

Microchip MPLAB XC8 Assembler V2.10 build 88905656 
                                                                                               Fri Oct 17 17:23:54 2025

Microchip MPLAB XC8 C Compiler v2.10 (Free license) build 20190730164152 Og1 
     1                           	processor	18F4550
     2                           	fnconf	rparam,??,?,0
     3                           	opt	pw 120
     4                           	opt	flic
     5                           	psect	idataBANK0,global,class=CODE,delta=1,noexec
     6                           	psect	smallconst,global,reloc=2,class=SMALLCONST,delta=1,noexec
     7                           	psect	cinit,global,reloc=2,class=CODE,delta=1
     8                           	psect	bssCOMRAM,global,class=COMRAM,space=1,delta=1,noexec
     9                           	psect	bssBANK0,global,class=BANK0,space=1,delta=1,lowdata,noexec
    10                           	psect	dataBANK0,global,class=BANK0,space=1,delta=1,lowdata,noexec
    11                           	psect	cstackBANK1,global,class=BANK1,space=1,delta=1,noexec
    12                           	psect	cstackBANK0,global,class=BANK0,space=1,delta=1,noexec
    13                           	psect	cstackCOMRAM,global,class=COMRAM,space=1,delta=1,noexec
    14                           	psect	text0,global,reloc=2,class=CODE,delta=1
    15                           	psect	text1,global,reloc=2,class=CODE,delta=1
    16                           	psect	text2,global,reloc=2,class=CODE,delta=1
    17                           	psect	text3,global,reloc=2,class=CODE,delta=1
    18                           	psect	text4,global,reloc=2,class=CODE,delta=1
    19                           	psect	text5,global,reloc=2,class=CODE,delta=1
    20                           	psect	text6,global,reloc=2,class=CODE,delta=1
    21                           	psect	text7,global,reloc=2,class=CODE,delta=1
    22                           	psect	text8,global,reloc=2,class=CODE,delta=1
    23                           	psect	text9,global,reloc=2,class=CODE,delta=1
    24                           	psect	text10,global,reloc=2,class=CODE,delta=1
    25                           	psect	text11,global,reloc=2,class=CODE,delta=1
    26                           	psect	text12,global,reloc=2,class=CODE,delta=1
    27                           	psect	text13,global,reloc=2,class=CODE,delta=1
    28                           	psect	text14,global,reloc=2,class=CODE,delta=1
    29                           	psect	text15,global,reloc=2,class=CODE,delta=1
    30                           	psect	text16,global,reloc=2,class=CODE,delta=1,group=2
    31                           	psect	text17,global,reloc=2,class=CODE,delta=1
    32                           	psect	text18,global,reloc=2,class=CODE,delta=1
    33                           	psect	text19,global,reloc=2,class=CODE,delta=1
    34                           	psect	text20,global,reloc=2,class=CODE,delta=1
    35                           	psect	text21,global,reloc=2,class=CODE,delta=1
    36                           	psect	text22,global,reloc=2,class=CODE,delta=1,group=2
    37                           	psect	text23,global,reloc=2,class=CODE,delta=1
    38                           	psect	text24,global,reloc=2,class=CODE,delta=1
    39                           	psect	text25,global,reloc=2,class=CODE,delta=1
    40                           	psect	text26,global,reloc=2,class=CODE,delta=1
    41                           	psect	text27,global,reloc=2,class=CODE,delta=1
    42                           	psect	text28,global,reloc=2,class=CODE,delta=1
    43                           	psect	text29,global,reloc=2,class=CODE,delta=1
    44                           	psect	text30,global,reloc=2,class=CODE,delta=1
    45                           	psect	text31,global,reloc=2,class=CODE,delta=1
    46                           	psect	text32,global,reloc=2,class=CODE,delta=1
    47                           	psect	text33,global,reloc=2,class=CODE,delta=1
    48                           	psect	text34,global,reloc=2,class=CODE,delta=1
    49                           	psect	text35,global,reloc=2,class=CODE,delta=1
    50                           	psect	text36,global,reloc=2,class=CODE,delta=1
    51                           	psect	intcode,global,reloc=2,class=CODE,delta=1
    52                           	psect	intcode_body,global,reloc=2,class=CODE,delta=1
    53                           	psect	text38,global,reloc=2,class=CODE,delta=1,inline
    54                           	psect	text39,global,reloc=2,class=CODE,delta=1
    55                           	psect	text40,global,reloc=2,class=CODE,delta=1
    56                           	psect	text41,global,reloc=2,class=CODE,delta=1
    57                           	psect	text42,global,reloc=2,class=CODE,delta=1
    58                           	psect	text43,global,reloc=2,class=CODE,delta=1
    59                           	psect	text44,global,reloc=2,class=CODE,delta=1
    60                           	psect	text45,global,reloc=2,class=CODE,delta=1
    61                           	psect	text46,global,reloc=2,class=CODE,delta=1
    62                           	psect	text47,global,reloc=2,class=CODE,delta=1
    63                           	psect	text48,global,reloc=2,class=CODE,delta=1
    64                           	psect	text49,global,reloc=2,class=CODE,delta=1
    65                           	psect	text50,global,reloc=2,class=CODE,delta=1
    66                           	psect	text51,global,reloc=2,class=CODE,delta=1
    67                           	psect	text52,global,reloc=2,class=CODE,delta=1
    68                           	psect	text53,global,reloc=2,class=CODE,delta=1
    69                           	psect	text54,global,reloc=2,class=CODE,delta=1
    70                           	psect	text55,global,reloc=2,class=CODE,delta=1
    71                           	psect	text56,global,reloc=2,class=CODE,delta=1
    72                           	psect	text57,global,reloc=2,class=CODE,delta=1
    73                           	psect	text58,global,reloc=2,class=CODE,delta=1
    74                           	psect	text59,global,reloc=2,class=CODE,delta=1
    75                           	psect	text60,global,reloc=2,class=CODE,delta=1
    76                           	psect	text61,global,reloc=2,class=CODE,delta=1
    77                           	psect	text62,global,reloc=2,class=CODE,delta=1
    78                           	psect	text63,global,reloc=2,class=CODE,delta=1
    79                           	psect	text64,global,reloc=2,class=CODE,delta=1
    80                           	psect	text65,global,reloc=2,class=CODE,delta=1
    81                           	psect	text66,global,reloc=2,class=CODE,delta=1
    82                           	psect	intsave_regs,global,class=BIGRAM,space=1,delta=1,noexec
    83                           	psect	rparam,global,class=COMRAM,space=1,delta=1,noexec
    84                           	psect	temp,global,ovrld,common,class=COMRAM,space=1,delta=1
    85                           	dabs	1,0x400,48,_BDT
    86                           	dabs	1,0x450,32,_CtrlTrfData
    87                           	dabs	1,0x430,8,_SetupPkt
    88                           	dabs	1,0x500,64,_cdc_data_tx
    89                           	dabs	1,0x540,64,_cdc_data_rx
    90  0000                     
    91                           ; Version 2.10
    92                           ; Generated 31/07/2019 GMT
    93                           ; 
    94                           ; Copyright © 2019, Microchip Technology Inc. and its subsidiaries ("Microchip")
    95                           ; All rights reserved.
    96                           ; 
    97                           ; This software is developed by Microchip Technology Inc. and its subsidiaries ("Microch
      +                          ip").
    98                           ; 
    99                           ; Redistribution and use in source and binary forms, with or without modification, are
   100                           ; permitted provided that the following conditions are met:
   101                           ; 
   102                           ;     1. Redistributions of source code must retain the above copyright notice, this lis
      +                          t of
   103                           ;        conditions and the following disclaimer.
   104                           ; 
   105                           ;     2. Redistributions in binary form must reproduce the above copyright notice, this 
      +                          list
   106                           ;        of conditions and the following disclaimer in the documentation and/or other
   107                           ;        materials provided with the distribution.
   108                           ; 
   109                           ;     3. Microchip's name may not be used to endorse or promote products derived from th
      +                          is
   110                           ;        software without specific prior written permission.
   111                           ; 
   112                           ; THIS SOFTWARE IS PROVIDED BY MICROCHIP "AS IS" AND ANY EXPRESS OR IMPLIED WARRANTIES,
   113                           ; INCLUDING, BUT NOT LIMITED TO, THE IMPLIED WARRANTIES OF MERCHANTABILITY AND FITNESS F
      +                          OR
   114                           ; PURPOSE ARE DISCLAIMED.  IN NO EVENT SHALL MICROCHIP BE LIABLE FOR ANY DIRECT, INDIREC
      +                          T,
   115                           ; INCIDENTAL, SPECIAL, EXEMPLARY, OR CONSEQUENTIAL DAMAGES (INCLUDING BUT NOT LIMITED TO
   116                           ; PROCUREMENT OF SUBSTITUTE GOODS OR SERVICES; LOSS OF USE, DATA OR PROFITS; OR BUSINESS
   117                           ; INTERRUPTION) HOWSOEVER CAUSED AND ON ANY THEORY OF LIABILITY, WHETHER IN CONTRACT, ST
      +                          RICT
   118                           ; LIABILITY, OR TORT (INCLUDING NEGLIGENCE OR OTHERWISE) ARISING IN ANY WAY OUT OF THE U
      +                          SE OF
   119                           ; THIS SOFTWARE, EVEN IF ADVISED OF THE POSSIBILITY OF SUCH DAMAGE.
   120                           ; 
   121                           ; 
   122                           ; Code-generator required, PIC18F4550 Definitions
   123                           ; 
   124                           ; SFR Addresses
   125  0000                     
   126                           	psect	idataBANK0
   127  004150                     __pidataBANK0:
   128                           	opt callstack 0
   129                           
   130                           ;initializer for sendFlap@F3958
   131  004150  46                 	db	70
   132  004151  4C                 	db	76
   133  004152  41                 	db	65
   134  004153  50                 	db	80
   135  004154  0D                 	db	13
   136  004155  0A                 	db	10
   137  004156  00                 	db	0
   138                           
   139                           	psect	smallconst
   140  000800                     __psmallconst:
   141                           	opt callstack 0
   142  000800  00                 	db	0
   143  000801                     _USB_SD_Ptr:
   144                           	opt callstack 0
   145  000801  A4                 	db	low _sd000
   146  000802  08                 	db	high _sd000
   147  000803  4C                 	db	low _sd001
   148  000804  08                 	db	high _sd001
   149  000805  72                 	db	low _sd002
   150  000806  08                 	db	high _sd002
   151  000807                     __end_of_USB_SD_Ptr:
   152                           	opt callstack 0
   153  000807                     _USB_CD_Ptr:
   154                           	opt callstack 0
   155  000807  09                 	db	low _configDescriptor1
   156  000808  08                 	db	high _configDescriptor1
   157  000809                     __end_of_USB_CD_Ptr:
   158                           	opt callstack 0
   159  000809                     _configDescriptor1:
   160                           	opt callstack 0
   161  000809  09                 	db	9
   162  00080A  02                 	db	2
   163  00080B  43                 	db	67
   164  00080C  00                 	db	0
   165  00080D  02                 	db	2
   166  00080E  01                 	db	1
   167  00080F  00                 	db	0
   168  000810  C0                 	db	192
   169  000811  32                 	db	50
   170  000812  09                 	db	9
   171  000813  04                 	db	4
   172  000814  00                 	db	0
   173  000815  00                 	db	0
   174  000816  01                 	db	1
   175  000817  02                 	db	2
   176  000818  02                 	db	2
   177  000819  01                 	db	1
   178  00081A  00                 	db	0
   179  00081B  05                 	db	5
   180  00081C  24                 	db	36
   181  00081D  00                 	db	0
   182  00081E  10                 	db	16
   183  00081F  01                 	db	1
   184  000820  04                 	db	4
   185  000821  24                 	db	36
   186  000822  02                 	db	2
   187  000823  02                 	db	2
   188  000824  05                 	db	5
   189  000825  24                 	db	36
   190  000826  06                 	db	6
   191  000827  00                 	db	0
   192  000828  01                 	db	1
   193  000829  05                 	db	5
   194  00082A  24                 	db	36
   195  00082B  01                 	db	1
   196  00082C  00                 	db	0
   197  00082D  01                 	db	1
   198  00082E  07                 	db	7
   199  00082F  05                 	db	5
   200  000830  81                 	db	129
   201  000831  03                 	db	3
   202  000832  0A                 	db	10
   203  000833  00                 	db	0
   204  000834  02                 	db	2
   205  000835  09                 	db	9
   206  000836  04                 	db	4
   207  000837  01                 	db	1
   208  000838  00                 	db	0
   209  000839  02                 	db	2
   210  00083A  0A                 	db	10
   211  00083B  00                 	db	0
   212  00083C  00                 	db	0
   213  00083D  00                 	db	0
   214  00083E  07                 	db	7
   215  00083F  05                 	db	5
   216  000840  02                 	db	2
   217  000841  02                 	db	2
   218  000842  40                 	db	64
   219  000843  00                 	db	0
   220  000844  00                 	db	0
   221  000845  07                 	db	7
   222  000846  05                 	db	5
   223  000847  82                 	db	130
   224  000848  02                 	db	2
   225  000849  40                 	db	64
   226  00084A  00                 	db	0
   227  00084B  00                 	db	0
   228  00084C                     __end_of_configDescriptor1:
   229                           	opt callstack 0
   230  00084C                     _sd001:
   231                           	opt callstack 0
   232  00084C  26                 	db	38
   233  00084D  03                 	db	3
   234  00084E  0044               	dw	68
   235  000850  0069               	dw	105
   236  000852  006C               	dw	108
   237  000854  0073               	dw	115
   238  000856  0068               	dw	104
   239  000858  0061               	dw	97
   240  00085A  006E               	dw	110
   241  00085C  0020               	dw	32
   242  00085E  0052               	dw	82
   243  000860  0020               	dw	32
   244  000862  004A               	dw	74
   245  000864  0061               	dw	97
   246  000866  0079               	dw	121
   247  000868  0061               	dw	97
   248  00086A  006B               	dw	107
   249  00086C  006F               	dw	111
   250  00086E  0064               	dw	100
   251  000870  0079               	dw	121
   252  000872                     __end_of_sd001:
   253                           	opt callstack 0
   254  000872                     _sd002:
   255                           	opt callstack 0
   256  000872  20                 	db	32
   257  000873  03                 	db	3
   258  000874  0054               	dw	84
   259  000876  0065               	dw	101
   260  000878  0073               	dw	115
   261  00087A  0074               	dw	116
   262  00087C  0020               	dw	32
   263  00087E  0055               	dw	85
   264  000880  0053               	dw	83
   265  000882  0042               	dw	66
   266  000884  0020               	dw	32
   267  000886  0044               	dw	68
   268  000888  0065               	dw	101
   269  00088A  0076               	dw	118
   270  00088C  0069               	dw	105
   271  00088E  0063               	dw	99
   272  000890  0065               	dw	101
   273  000892                     __end_of_sd002:
   274                           	opt callstack 0
   275  000892                     _device_dsc:
   276                           	opt callstack 0
   277  000892  12                 	db	18
   278  000893  01                 	db	1
   279  000894  0200               	dw	512
   280  000896  02                 	db	2
   281  000897  00                 	db	0
   282  000898  00                 	db	0
   283  000899  20                 	db	32
   284  00089A  04D8               	dw	1240
   285  00089C  000A               	dw	10
   286  00089E  0100               	dw	256
   287  0008A0  01                 	db	1
   288  0008A1  02                 	db	2
   289  0008A2  00                 	db	0
   290  0008A3  01                 	db	1
   291  0008A4                     __end_of_device_dsc:
   292                           	opt callstack 0
   293  0008A4                     _sd000:
   294                           	opt callstack 0
   295  0008A4  04                 	db	4
   296  0008A5  03                 	db	3
   297  0008A6  0409               	dw	1033
   298  0008A8                     __end_of_sd000:
   299                           	opt callstack 0
   300  0000                     _UEP0bits	set	3952
   301  0000                     _IPR2bits	set	4002
   302  0000                     _UCON	set	3949
   303  0000                     _USTAT	set	3948
   304  0000                     _UIEbits	set	3945
   305  0000                     _UIRbits	set	3944
   306  0000                     _UADDR	set	3950
   307  0000                     _UIE	set	3945
   308  0000                     _UEIE	set	3947
   309  0000                     _UCFG	set	3951
   310  0000                     _UIR	set	3944
   311  0000                     _UEIR	set	3946
   312  0000                     _UCONbits	set	3949
   313  0000                     _PIR2bits	set	4001
   314  0000                     _PIE2bits	set	4000
   315  0000                     _INTCONbits	set	4082
   316  0000                     _LATCbits	set	3979
   317  0000                     _TRISDbits	set	3989
   318  0000                     _LATC	set	3979
   319  0000                     _TRISC	set	3988
   320  0000                     _UEP1	set	3953
   321  0000                     _UEP0	set	3952
   322                           
   323                           ; #config settings
   324  0008A8  00                 	db	0	; dummy byte at the end
   325  0000                     
   326                           	psect	cinit
   327  003EAC                     __pcinit:
   328                           	opt callstack 0
   329  003EAC                     start_initialization:
   330                           	opt callstack 0
   331  003EAC                     __initialization:
   332                           	opt callstack 0
   333                           
   334                           ; Initialize objects allocated to BANK0 (7 bytes)
   335                           ; load TBLPTR registers with __pidataBANK0
   336  003EAC  0E50               	movlw	low __pidataBANK0
   337  003EAE  6EF6               	movwf	tblptrl,c
   338  003EB0  0E41               	movlw	high __pidataBANK0
   339  003EB2  6EF7               	movwf	tblptrh,c
   340  003EB4  0E00               	movlw	low (__pidataBANK0 shr (0+16))
   341  003EB6  6EF8               	movwf	tblptru,c
   342  003EB8  EE00  F0F9         	lfsr	0,__pdataBANK0
   343  003EBC  EE10 F007          	lfsr	1,7
   344  003EC0                     copy_data0:
   345  003EC0  0009               	tblrd		*+
   346  003EC2  CFF5 FFEE          	movff	tablat,postinc0
   347  003EC6  50E5               	movf	postdec1,w,c
   348  003EC8  50E1               	movf	fsr1l,w,c
   349  003ECA  E1FA               	bnz	copy_data0
   350                           
   351                           ; Clear objects allocated to BANK0 (127 bytes)
   352  003ECC  EE00  F060         	lfsr	0,__pbssBANK0
   353  003ED0  0E7F               	movlw	127
   354  003ED2                     clear_0:
   355  003ED2  6AEE               	clrf	postinc0,c
   356  003ED4  06E8               	decf	wreg,f,c
   357  003ED6  E1FD               	bnz	clear_0
   358                           
   359                           ; Clear objects allocated to COMRAM (42 bytes)
   360  003ED8  EE00  F001         	lfsr	0,__pbssCOMRAM
   361  003EDC  0E2A               	movlw	42
   362  003EDE                     clear_1:
   363  003EDE  6AEE               	clrf	postinc0,c
   364  003EE0  06E8               	decf	wreg,f,c
   365  003EE2  E1FD               	bnz	clear_1
   366  003EE4                     end_of_initialization:
   367                           	opt callstack 0
   368  003EE4                     __end_of__initialization:
   369                           	opt callstack 0
   370  003EE4  9054               	bcf	int$flags,0,c	;clear compiler interrupt flag (level 1)
   371  003EE6  9254               	bcf	int$flags,1,c	;clear compiler interrupt flag (level 2)
   372  003EE8  0E00               	movlw	low (__Lmediumconst shr (0+16))
   373  003EEA  6EF8               	movwf	tblptru,c
   374  003EEC  0100               	movlb	0
   375  003EEE  EF93  F01D         	goto	_main	;jump to C main() function
   376                           
   377                           	psect	bssCOMRAM
   378  000001                     __pbssCOMRAM:
   379                           	opt callstack 0
   380  000001                     _outPipes:
   381                           	opt callstack 0
   382  000001                     	ds	8
   383  000009                     _inPipes:
   384                           	opt callstack 0
   385  000009                     	ds	6
   386  00000F                     _pBDTEntryIn:
   387                           	opt callstack 0
   388  00000F                     	ds	6
   389  000015                     _ep_data_out:
   390                           	opt callstack 0
   391  000015                     	ds	3
   392  000018                     _ep_data_in:
   393                           	opt callstack 0
   394  000018                     	ds	3
   395  00001B                     _pBDTEntryEP0OutNext:
   396                           	opt callstack 0
   397  00001B                     	ds	2
   398  00001D                     _pBDTEntryEP0OutCurrent:
   399                           	opt callstack 0
   400  00001D                     	ds	2
   401  00001F                     _cdc_trf_state:
   402                           	opt callstack 0
   403  00001F                     	ds	1
   404  000020                     _USBDeferINDataStagePackets:
   405                           	opt callstack 0
   406  000020                     	ds	1
   407  000021                     _USBStatusStageEnabledFlag2:
   408                           	opt callstack 0
   409  000021                     	ds	1
   410  000022                     _USBStatusStageEnabledFlag1:
   411                           	opt callstack 0
   412  000022                     	ds	1
   413  000023                     _USBDeferStatusStagePacket:
   414                           	opt callstack 0
   415  000023                     	ds	1
   416  000024                     _BothEP0OutUOWNsSet:
   417                           	opt callstack 0
   418  000024                     	ds	1
   419  000025                     _USBBusIsSuspended:
   420                           	opt callstack 0
   421  000025                     	ds	1
   422  000026                     _RemoteWakeup:
   423                           	opt callstack 0
   424  000026                     	ds	1
   425  000027                     _controlTransferState:
   426                           	opt callstack 0
   427  000027                     	ds	1
   428  000028                     _shortPacketStatus:
   429                           	opt callstack 0
   430  000028                     	ds	1
   431  000029                     _USBDeviceState:
   432                           	opt callstack 0
   433  000029                     	ds	1
   434  00002A                     _USBActiveConfiguration:
   435                           	opt callstack 0
   436  00002A                     	ds	1
   437                           
   438                           	psect	bssBANK0
   439  000060                     __pbssBANK0:
   440                           	opt callstack 0
   441  000060                     	ds	32
   442  000080                     	ds	32
   443  0000A0                     _cdc_notice:
   444                           	opt callstack 0
   445  0000A0                     	ds	10
   446  0000AA                     _pBDTEntryOut:
   447                           	opt callstack 0
   448  0000AA                     	ds	6
   449  0000B0                     _BaudRateGen:
   450                           	opt callstack 0
   451  0000B0                     	ds	4
   452  0000B4                     _USB1msTickCount:
   453                           	opt callstack 0
   454  0000B4                     	ds	4
   455  0000B8                     _pCDCDst:
   456                           	opt callstack 0
   457  0000B8                     	ds	3
   458  0000BB                     _pCDCSrc:
   459                           	opt callstack 0
   460  0000BB                     	ds	3
   461  0000BE                     _CDCDataInHandle:
   462                           	opt callstack 0
   463  0000BE                     	ds	2
   464  0000C0                     _CDCDataOutHandle:
   465                           	opt callstack 0
   466  0000C0                     	ds	2
   467  0000C2                     _pDst:
   468                           	opt callstack 0
   469  0000C2                     	ds	2
   470  0000C4                     _control_signal_bitmap:
   471                           	opt callstack 0
   472  0000C4                     	ds	1
   473  0000C5                     _cdc_mem_type:
   474                           	opt callstack 0
   475  0000C5                     	ds	1
   476  0000C6                     _cdc_tx_len:
   477                           	opt callstack 0
   478  0000C6                     	ds	1
   479  0000C7                     _cdc_rx_len:
   480                           	opt callstack 0
   481  0000C7                     	ds	1
   482  0000C8                     _USBTicksSinceSuspendEnd:
   483                           	opt callstack 0
   484  0000C8                     	ds	1
   485  0000C9                     _USBDeferOUTDataStagePackets:
   486                           	opt callstack 0
   487  0000C9                     	ds	1
   488  0000CA                     _USBStatusStageTimeoutCounter:
   489                           	opt callstack 0
   490  0000CA                     	ds	1
   491  0000CB                     _endpoint_number:
   492                           	opt callstack 0
   493  0000CB                     	ds	1
   494  0000CC                     _result:
   495                           	opt callstack 0
   496  0000CC                     	ds	1
   497  0000CD                     _dummy_encapsulated_cmd_response:
   498                           	opt callstack 0
   499  0000CD                     	ds	8
   500  0000D5                     _line_coding:
   501                           	opt callstack 0
   502  0000D5                     	ds	7
   503  0000DC                     _USBAlternateInterface:
   504                           	opt callstack 0
   505  0000DC                     	ds	2
   506  0000DE                     _USTATcopy:
   507                           	opt callstack 0
   508  0000DE                     	ds	1
   509                           
   510                           	psect	dataBANK0
   511  0000F9                     __pdataBANK0:
   512                           	opt callstack 0
   513  0000F9                     sendFlap@F3958:
   514                           	opt callstack 0
   515  0000F9                     	ds	7
   516                           
   517                           	psect	cstackBANK1
   518  000100                     __pcstackBANK1:
   519                           	opt callstack 0
   520  000100                     USBStdFeatureReqHandler@pUEP:
   521                           	opt callstack 0
   522                           
   523                           ; 2 bytes @ 0x0
   524  000100                     	ds	2
   525  000102                     USBStdFeatureReqHandler@current_ep_data:
   526                           	opt callstack 0
   527                           
   528                           ; 1 bytes @ 0x2
   529  000102                     	ds	1
   530  000103                     USBStdFeatureReqHandler@p:
   531                           	opt callstack 0
   532                           
   533                           ; 2 bytes @ 0x3
   534  000103                     	ds	2
   535  000105                     main@btn_state:
   536                           	opt callstack 0
   537                           
   538                           ; 1 bytes @ 0x5
   539  000105                     	ds	1
   540                           
   541                           	psect	cstackBANK0
   542  0000DF                     __pcstackBANK0:
   543                           	opt callstack 0
   544  0000DF                     ??_USBStdGetDscHandler:
   545  0000DF                     ??_USBStdGetStatusHandler:
   546  0000DF                     ??_USBCheckCDCRequest:
   547  0000DF                     ?_USBTransferOnePacket:
   548                           	opt callstack 0
   549  0000DF                     USBTransferOnePacket@dir:
   550                           	opt callstack 0
   551  0000DF                     USBConfigureEndpoint@direction:
   552                           	opt callstack 0
   553  0000DF                     USBCtrlTrfTxService@byteToSend:
   554                           	opt callstack 0
   555  0000DF                     USBCtrlTrfRxService@i:
   556                           	opt callstack 0
   557  0000DF                     debounceDelay@i:
   558                           	opt callstack 0
   559  0000DF                     _isUSBReady$349:
   560                           	opt callstack 0
   561  0000DF                     putUSBUSART@data:
   562                           	opt callstack 0
   563  0000DF                     memcpy@d1:
   564                           	opt callstack 0
   565  0000DF                     memset@dest:
   566                           	opt callstack 0
   567                           
   568                           ; 2 bytes @ 0x0
   569  0000DF                     	ds	1
   570  0000E0                     ??_USBConfigureEndpoint:
   571  0000E0                     USBCtrlTrfRxService@byteToRead:
   572                           	opt callstack 0
   573  0000E0                     USBCtrlTrfInHandler@lastDTS:
   574                           	opt callstack 0
   575  0000E0                     USBTransferOnePacket@data:
   576                           	opt callstack 0
   577                           
   578                           ; 2 bytes @ 0x1
   579  0000E0                     	ds	1
   580  0000E1                     putUSBUSART@length:
   581                           	opt callstack 0
   582  0000E1                     debounceDelay@j:
   583                           	opt callstack 0
   584  0000E1                     USBStdGetStatusHandler@p:
   585                           	opt callstack 0
   586  0000E1                     memcpy@s1:
   587                           	opt callstack 0
   588  0000E1                     memset@c:
   589                           	opt callstack 0
   590                           
   591                           ; 2 bytes @ 0x2
   592  0000E1                     	ds	1
   593  0000E2                     USBTransferOnePacket@len:
   594                           	opt callstack 0
   595                           
   596                           ; 1 bytes @ 0x3
   597  0000E2                     	ds	1
   598  0000E3                     ??_USBTransferOnePacket:
   599  0000E3                     memcpy@n:
   600                           	opt callstack 0
   601  0000E3                     memset@n:
   602                           	opt callstack 0
   603                           
   604                           ; 2 bytes @ 0x4
   605  0000E3                     	ds	1
   606  0000E4                     USBConfigureEndpoint@EPNum:
   607                           	opt callstack 0
   608                           
   609                           ; 1 bytes @ 0x5
   610  0000E4                     	ds	1
   611  0000E5                     ??_memset:
   612  0000E5                     memcpy@tmp:
   613                           	opt callstack 0
   614  0000E5                     USBConfigureEndpoint@handle:
   615                           	opt callstack 0
   616                           
   617                           ; 2 bytes @ 0x6
   618  0000E5                     	ds	1
   619  0000E6                     memcpy@d:
   620                           	opt callstack 0
   621                           
   622                           ; 2 bytes @ 0x7
   623  0000E6                     	ds	1
   624  0000E7                     USBEnableEndpoint@options:
   625                           	opt callstack 0
   626  0000E7                     USBTransferOnePacket@ep:
   627                           	opt callstack 0
   628  0000E7                     memset@k:
   629                           	opt callstack 0
   630                           
   631                           ; 2 bytes @ 0x8
   632  0000E7                     	ds	1
   633  0000E8                     USBEnableEndpoint@p:
   634                           	opt callstack 0
   635  0000E8                     USBTransferOnePacket@handle:
   636                           	opt callstack 0
   637  0000E8                     memcpy@s:
   638                           	opt callstack 0
   639                           
   640                           ; 2 bytes @ 0x9
   641  0000E8                     	ds	1
   642  0000E9                     memset@s:
   643                           	opt callstack 0
   644                           
   645                           ; 2 bytes @ 0xA
   646  0000E9                     	ds	1
   647  0000EA                     USBEnableEndpoint@ep:
   648                           	opt callstack 0
   649  0000EA                     CDCTxService@i:
   650                           	opt callstack 0
   651                           
   652                           ; 1 bytes @ 0xB
   653  0000EA                     	ds	1
   654  0000EB                     USBDeviceInit@i:
   655                           	opt callstack 0
   656  0000EB                     CDCTxService@byte_to_send:
   657                           	opt callstack 0
   658  0000EB                     USER_USB_CALLBACK_EVENT_HANDLER@event:
   659                           	opt callstack 0
   660                           
   661                           ; 2 bytes @ 0xC
   662  0000EB                     	ds	1
   663  0000EC                     sendFlap@msg:
   664                           	opt callstack 0
   665                           
   666                           ; 7 bytes @ 0xD
   667  0000EC                     	ds	1
   668  0000ED                     USER_USB_CALLBACK_EVENT_HANDLER@pdata:
   669                           	opt callstack 0
   670                           
   671                           ; 2 bytes @ 0xE
   672  0000ED                     	ds	2
   673  0000EF                     USER_USB_CALLBACK_EVENT_HANDLER@size:
   674                           	opt callstack 0
   675                           
   676                           ; 2 bytes @ 0x10
   677  0000EF                     	ds	2
   678  0000F1                     ??_USER_USB_CALLBACK_EVENT_HANDLER:
   679                           
   680                           ; 1 bytes @ 0x12
   681  0000F1                     	ds	2
   682  0000F3                     ??_USBStdFeatureReqHandler:
   683  0000F3                     USBStdSetCfgHandler@i:
   684                           	opt callstack 0
   685                           
   686                           ; 1 bytes @ 0x14
   687  0000F3                     	ds	2
   688  0000F5                     ??_USBCheckStdRequest:
   689                           
   690                           ; 1 bytes @ 0x16
   691  0000F5                     	ds	2
   692  0000F7                     ??_USBCtrlEPService:
   693  0000F7                     
   694                           ; 1 bytes @ 0x18
   695  0000F7                     	ds	1
   696  0000F8                     USBDeviceTasks@i:
   697                           	opt callstack 0
   698                           
   699                           ; 1 bytes @ 0x19
   700  0000F8                     	ds	1
   701  0000F9                     
   702                           ; 1 bytes @ 0x1A
   703                           
   704                           	psect	cstackCOMRAM
   705  00002B                     __pcstackCOMRAM:
   706                           	opt callstack 0
   707  00002B                     ??i2_USBStdGetDscHandler:
   708  00002B                     ??i2_USBStdGetStatusHandler:
   709  00002B                     ??i2_USBCheckCDCRequest:
   710  00002B                     ?i2_USBTransferOnePacket:
   711                           	opt callstack 0
   712  00002B                     i2USBTransferOnePacket@dir:
   713                           	opt callstack 0
   714  00002B                     i2USBConfigureEndpoint@direction:
   715                           	opt callstack 0
   716  00002B                     i2USBCtrlTrfTxService@byteToSend:
   717                           	opt callstack 0
   718  00002B                     i2USBCtrlTrfRxService@i:
   719                           	opt callstack 0
   720  00002B                     i2memcpy@d1:
   721                           	opt callstack 0
   722  00002B                     i2memset@dest:
   723                           	opt callstack 0
   724                           
   725                           ; 2 bytes @ 0x0
   726  00002B                     	ds	1
   727  00002C                     ??i2_USBConfigureEndpoint:
   728  00002C                     i2USBCtrlTrfRxService@byteToRead:
   729                           	opt callstack 0
   730  00002C                     i2USBCtrlTrfInHandler@lastDTS:
   731                           	opt callstack 0
   732  00002C                     i2USBTransferOnePacket@data:
   733                           	opt callstack 0
   734                           
   735                           ; 2 bytes @ 0x1
   736  00002C                     	ds	1
   737  00002D                     i2USBStdGetStatusHandler@p:
   738                           	opt callstack 0
   739  00002D                     i2memcpy@s1:
   740                           	opt callstack 0
   741  00002D                     i2memset@c:
   742                           	opt callstack 0
   743                           
   744                           ; 2 bytes @ 0x2
   745  00002D                     	ds	1
   746  00002E                     i2USBTransferOnePacket@len:
   747                           	opt callstack 0
   748                           
   749                           ; 1 bytes @ 0x3
   750  00002E                     	ds	1
   751  00002F                     ??i2_USBTransferOnePacket:
   752  00002F                     i2memcpy@n:
   753                           	opt callstack 0
   754  00002F                     i2memset@n:
   755                           	opt callstack 0
   756                           
   757                           ; 2 bytes @ 0x4
   758  00002F                     	ds	1
   759  000030                     i2USBConfigureEndpoint@EPNum:
   760                           	opt callstack 0
   761                           
   762                           ; 1 bytes @ 0x5
   763  000030                     	ds	1
   764  000031                     ??i2_memset:
   765  000031                     i2USBConfigureEndpoint@handle:
   766                           	opt callstack 0
   767  000031                     i2memcpy@d:
   768                           	opt callstack 0
   769                           
   770                           ; 2 bytes @ 0x6
   771  000031                     	ds	2
   772  000033                     i2USBEnableEndpoint@options:
   773                           	opt callstack 0
   774  000033                     i2USBTransferOnePacket@ep:
   775                           	opt callstack 0
   776  000033                     i2memcpy@s:
   777                           	opt callstack 0
   778  000033                     i2memset@k:
   779                           	opt callstack 0
   780                           
   781                           ; 2 bytes @ 0x8
   782  000033                     	ds	1
   783  000034                     i2USBEnableEndpoint@p:
   784                           	opt callstack 0
   785  000034                     i2USBTransferOnePacket@handle:
   786                           	opt callstack 0
   787                           
   788                           ; 2 bytes @ 0x9
   789  000034                     	ds	1
   790  000035                     i2memcpy@tmp:
   791                           	opt callstack 0
   792  000035                     i2memset@s:
   793                           	opt callstack 0
   794                           
   795                           ; 2 bytes @ 0xA
   796  000035                     	ds	1
   797  000036                     i2USBEnableEndpoint@ep:
   798                           	opt callstack 0
   799                           
   800                           ; 1 bytes @ 0xB
   801  000036                     	ds	1
   802  000037                     i2USBDeviceInit@i:
   803                           	opt callstack 0
   804  000037                     i2USER_USB_CALLBACK_EVENT_HANDLER@event:
   805                           	opt callstack 0
   806                           
   807                           ; 2 bytes @ 0xC
   808  000037                     	ds	2
   809  000039                     i2USER_USB_CALLBACK_EVENT_HANDLER@pdata:
   810                           	opt callstack 0
   811                           
   812                           ; 2 bytes @ 0xE
   813  000039                     	ds	2
   814  00003B                     i2USER_USB_CALLBACK_EVENT_HANDLER@size:
   815                           	opt callstack 0
   816                           
   817                           ; 2 bytes @ 0x10
   818  00003B                     	ds	2
   819  00003D                     ??i2_USER_USB_CALLBACK_EVENT_HANDLER:
   820                           
   821                           ; 1 bytes @ 0x12
   822  00003D                     	ds	2
   823  00003F                     ??i2_USBStdFeatureReqHandler:
   824  00003F                     i2USBStdSetCfgHandler@i:
   825                           	opt callstack 0
   826                           
   827                           ; 1 bytes @ 0x14
   828  00003F                     	ds	2
   829  000041                     i2USBStdFeatureReqHandler@pUEP:
   830                           	opt callstack 0
   831                           
   832                           ; 2 bytes @ 0x16
   833  000041                     	ds	2
   834  000043                     i2USBStdFeatureReqHandler@current_ep_data:
   835                           	opt callstack 0
   836                           
   837                           ; 1 bytes @ 0x18
   838  000043                     	ds	1
   839  000044                     i2USBStdFeatureReqHandler@p:
   840                           	opt callstack 0
   841                           
   842                           ; 2 bytes @ 0x19
   843  000044                     	ds	2
   844  000046                     ??i2_USBCheckStdRequest:
   845                           
   846                           ; 1 bytes @ 0x1B
   847  000046                     	ds	2
   848  000048                     ??i2_USBCtrlEPService:
   849  000048                     
   850                           ; 1 bytes @ 0x1D
   851  000048                     	ds	1
   852  000049                     i2USBDeviceTasks@i:
   853                           	opt callstack 0
   854                           
   855                           ; 1 bytes @ 0x1E
   856  000049                     	ds	1
   857  00004A                     ??_mainISR:
   858                           
   859                           ; 1 bytes @ 0x1F
   860  00004A                     	ds	10
   861                           
   862 ;;
   863 ;;Main: autosize = 0, tempsize = 0, incstack = 0, save=0
   864 ;;
   865 ;; *************** function _main *****************
   866 ;; Defined at:
   867 ;;		line 22 in file "main.c"
   868 ;; Parameters:    Size  Location     Type
   869 ;;		None
   870 ;; Auto vars:     Size  Location     Type
   871 ;;  btn_state       1    5[BANK1 ] unsigned char 
   872 ;; Return value:  Size  Location     Type
   873 ;;                  1    wreg      void 
   874 ;; Registers used:
   875 ;;		wreg, fsr1l, fsr1h, fsr2l, fsr2h, status,2, status,0, tblptrl, tblptrh, tblptru, prodl, prodh, cstack
   876 ;; Tracked objects:
   877 ;;		On entry : 0/0
   878 ;;		On exit  : 0/0
   879 ;;		Unchanged: 0/0
   880 ;; Data sizes:     COMRAM   BANK0   BANK1   BANK2   BANK3  BANK4h  BANK4l   BANK5   BANK6   BANK7
   881 ;;      Params:         0       0       0       0       0       0       0       0       0       0
   882 ;;      Locals:         0       0       1       0       0       0       0       0       0       0
   883 ;;      Temps:          0       0       0       0       0       0       0       0       0       0
   884 ;;      Totals:         0       0       1       0       0       0       0       0       0       0
   885 ;;Total ram usage:        1 bytes
   886 ;; Hardware stack levels required when called:   20
   887 ;; This function calls:
   888 ;;		_USBDeviceTasks
   889 ;;		_debounceDelay
   890 ;;		_initUSBLib
   891 ;;		_isUSBReady
   892 ;;		_readButtonAsm
   893 ;;		_sendFlap
   894 ;; This function is called by:
   895 ;;		Startup code after reset
   896 ;; This function uses a non-reentrant model
   897 ;;
   898                           
   899                           	psect	text0
   900  003B26                     __ptext0:
   901                           	opt callstack 0
   902  003B26                     _main:
   903                           	opt callstack 11
   904  003B26                     
   905                           ;main.c: 24:             unsigned char btn_state = readButtonAsm();
   906  003B26  0E00               	movlw	0
   907  003B28  6E94               	movwf	148,c	;volatile
   908                           
   909                           ;main.c: 25:             if (btn_state) {
   910  003B2A  0E00               	movlw	0
   911  003B2C  6E8B               	movwf	139,c	;volatile
   912  003B2E                     
   913                           ;main.c: 26:                 LATCbits.LATC0 = 1;
   914  003B2E  8095               	bsf	149,0,c	;volatile
   915  003B30                     
   916                           ;main.c: 29:                 while(readButtonAsm());
   917  003B30  EC9C  F020         	call	_initUSBLib	;wreg free
   918  003B34                     l7361:
   919                           
   920                           ;main.c: 33:     }
   921  003B34  ECBC  F007         	call	_USBDeviceTasks	;wreg free
   922  003B38                     
   923                           ;main.c: 36: 
   924  003B38  ECDB  F01F         	call	_isUSBReady	;wreg free
   925  003B3C  0900               	iorlw	0
   926  003B3E  B4D8               	btfsc	status,2,c
   927  003B40  EFA4  F01D         	goto	u6861
   928  003B44  EFA6  F01D         	goto	u6860
   929  003B48                     u6861:
   930  003B48  EF9A  F01D         	goto	l7361
   931  003B4C                     u6860:
   932  003B4C                     
   933                           ;main.c: 37: void sendFlap(void) {
   934  003B4C  ECA3  F020         	call	_readButtonAsm	;wreg free
   935  003B50  0101               	movlb	1	; () banked
   936  003B52  6F05               	movwf	main@btn_state& (0+255),b
   937  003B54                     
   938                           ; BSR set to: 1
   939                           ;main.c: 38:     char msg[] = "FLAP\r\n";
   940  003B54  5105               	movf	main@btn_state& (0+255),w,b
   941  003B56  B4D8               	btfsc	status,2,c
   942  003B58  EFB0  F01D         	goto	u6871
   943  003B5C  EFB2  F01D         	goto	u6870
   944  003B60                     u6871:
   945  003B60  EF9A  F01D         	goto	l7361
   946  003B64                     u6870:
   947  003B64                     
   948                           ; BSR set to: 1
   949                           ;main.c: 39:     putUSBUSART((uint8_t*)msg, sizeof(msg)-1);
   950  003B64  808B               	bsf	139,0,c	;volatile
   951  003B66                     
   952                           ; BSR set to: 1
   953                           ;main.c: 40:     CDCTxService();
   954  003B66  EC87  F020         	call	_sendFlap	;wreg free
   955  003B6A                     
   956                           ;main.c: 41: }
   957  003B6A  ECF8  F01D         	call	_debounceDelay	;wreg free
   958  003B6E                     l7375:
   959  003B6E  ECA3  F020         	call	_readButtonAsm	;wreg free
   960  003B72  0900               	iorlw	0
   961  003B74  A4D8               	btfss	status,2,c
   962  003B76  EFBF  F01D         	goto	u6881
   963  003B7A  EFC1  F01D         	goto	u6880
   964  003B7E                     u6881:
   965  003B7E  EFB7  F01D         	goto	l7375
   966  003B82                     u6880:
   967  003B82                     
   968                           ;main.c: 43: unsigned char result;
   969  003B82  908B               	bcf	139,0,c	;volatile
   970  003B84  EF9A  F01D         	goto	l7361
   971  003B88  EF07  F000         	goto	start
   972  003B8C                     __end_of_main:
   973                           	opt callstack 0
   974                           
   975 ;; *************** function _sendFlap *****************
   976 ;; Defined at:
   977 ;;		line 50 in file "main.c"
   978 ;; Parameters:    Size  Location     Type
   979 ;;		None
   980 ;; Auto vars:     Size  Location     Type
   981 ;;  msg             7   13[BANK0 ] unsigned char [7]
   982 ;; Return value:  Size  Location     Type
   983 ;;                  1    wreg      void 
   984 ;; Registers used:
   985 ;;		wreg, fsr1l, fsr1h, fsr2l, fsr2h, status,2, status,0, prodl, prodh, cstack
   986 ;; Tracked objects:
   987 ;;		On entry : 0/0
   988 ;;		On exit  : 0/0
   989 ;;		Unchanged: 0/0
   990 ;; Data sizes:     COMRAM   BANK0   BANK1   BANK2   BANK3  BANK4h  BANK4l   BANK5   BANK6   BANK7
   991 ;;      Params:         0       0       0       0       0       0       0       0       0       0
   992 ;;      Locals:         0       7       0       0       0       0       0       0       0       0
   993 ;;      Temps:          0       0       0       0       0       0       0       0       0       0
   994 ;;      Totals:         0       7       0       0       0       0       0       0       0       0
   995 ;;Total ram usage:        7 bytes
   996 ;; Hardware stack levels used:    1
   997 ;; Hardware stack levels required when called:   13
   998 ;; This function calls:
   999 ;;		_CDCTxService
  1000 ;;		_putUSBUSART
  1001 ;; This function is called by:
  1002 ;;		_main
  1003 ;; This function uses a non-reentrant model
  1004 ;;
  1005                           
  1006                           	psect	text1
  1007  00410E                     __ptext1:
  1008                           	opt callstack 0
  1009  00410E                     _sendFlap:
  1010                           	opt callstack 17
  1011  00410E  EE20  F0F9         	lfsr	2,sendFlap@F3958
  1012  004112  EE10  F0EC         	lfsr	1,sendFlap@msg
  1013  004116  0E06               	movlw	6
  1014  004118                     u6831:
  1015  004118  CFDB FFE3          	movff	plusw2,plusw1
  1016  00411C  06E8               	decf	wreg,f,c
  1017  00411E  E2FC               	bc	u6831
  1018  004120  0EEC               	movlw	low sendFlap@msg
  1019  004122  0100               	movlb	0	; () banked
  1020  004124  6FDF               	movwf	putUSBUSART@data& (0+255),b
  1021  004126  0E00               	movlw	high sendFlap@msg
  1022  004128  6FE0               	movwf	(putUSBUSART@data+1)& (0+255),b
  1023  00412A  0E06               	movlw	6
  1024  00412C  6FE1               	movwf	putUSBUSART@length& (0+255),b
  1025  00412E  EC71  F020         	call	_putUSBUSART	;wreg free
  1026  004132  ECE7  F009         	call	_CDCTxService	;wreg free
  1027  004136  0012               	return		;funcret
  1028  004138                     __end_of_sendFlap:
  1029                           	opt callstack 0
  1030                           
  1031 ;; *************** function _putUSBUSART *****************
  1032 ;; Defined at:
  1033 ;;		line 556 in file "usb_device_cdc.c"
  1034 ;; Parameters:    Size  Location     Type
  1035 ;;  data            2    0[BANK0 ] PTR unsigned char 
  1036 ;;		 -> sendFlap@msg(7), 
  1037 ;;  length          1    2[BANK0 ] unsigned char 
  1038 ;; Auto vars:     Size  Location     Type
  1039 ;;		None
  1040 ;; Return value:  Size  Location     Type
  1041 ;;                  1    wreg      void 
  1042 ;; Registers used:
  1043 ;;		wreg, status,2, status,0
  1044 ;; Tracked objects:
  1045 ;;		On entry : 0/0
  1046 ;;		On exit  : 0/0
  1047 ;;		Unchanged: 0/0
  1048 ;; Data sizes:     COMRAM   BANK0   BANK1   BANK2   BANK3  BANK4h  BANK4l   BANK5   BANK6   BANK7
  1049 ;;      Params:         0       3       0       0       0       0       0       0       0       0
  1050 ;;      Locals:         0       0       0       0       0       0       0       0       0       0
  1051 ;;      Temps:          0       0       0       0       0       0       0       0       0       0
  1052 ;;      Totals:         0       3       0       0       0       0       0       0       0       0
  1053 ;;Total ram usage:        3 bytes
  1054 ;; Hardware stack levels used:    1
  1055 ;; Hardware stack levels required when called:   11
  1056 ;; This function calls:
  1057 ;;		Nothing
  1058 ;; This function is called by:
  1059 ;;		_sendFlap
  1060 ;; This function uses a non-reentrant model
  1061 ;;
  1062                           
  1063                           	psect	text2
  1064  0040E2                     __ptext2:
  1065                           	opt callstack 0
  1066  0040E2                     _putUSBUSART:
  1067                           	opt callstack 18
  1068  0040E2                     
  1069                           ;usb_device_cdc.c: 556: void putUSBUSART(uint8_t *data, uint8_t length);usb_device_cdc.c
      +                          : 557: {;usb_device_cdc.c: 581:     {PIE2bits.USBIE = 0;};
  1070  0040E2  9AA0               	bcf	160,5,c	;volatile
  1071  0040E4                     
  1072                           ;usb_device_cdc.c: 582:     if(cdc_trf_state == 0)
  1073  0040E4  501F               	movf	_cdc_trf_state^0,w,c
  1074  0040E6  A4D8               	btfss	status,2,c
  1075  0040E8  EF78  F020         	goto	u6311
  1076  0040EC  EF7A  F020         	goto	u6310
  1077  0040F0                     u6311:
  1078  0040F0  EF85  F020         	goto	l6985
  1079  0040F4                     u6310:
  1080  0040F4                     
  1081                           ;usb_device_cdc.c: 583:     {;usb_device_cdc.c: 584:         { pCDCSrc.bRam = (uint8_t*)
      +                          data; cdc_tx_len = length; cdc_mem_type = 0x01; cdc_trf_state = 1; };
  1082  0040F4  C0DF  F0BB         	movff	putUSBUSART@data,_pCDCSrc
  1083  0040F8  C0E0  F0BC         	movff	putUSBUSART@data+1,_pCDCSrc+1
  1084  0040FC  C0E1  F0C6         	movff	putUSBUSART@length,_cdc_tx_len
  1085  004100  0E01               	movlw	1
  1086  004102  0100               	movlb	0	; () banked
  1087  004104  6FC5               	movwf	_cdc_mem_type& (0+255),b
  1088  004106                     
  1089                           ; BSR set to: 0
  1090  004106  0E01               	movlw	1
  1091  004108  6E1F               	movwf	_cdc_trf_state^0,c
  1092  00410A                     l6985:
  1093                           
  1094                           ;usb_device_cdc.c: 586:     {PIE2bits.USBIE = 1;};
  1095  00410A  8AA0               	bsf	160,5,c	;volatile
  1096  00410C  0012               	return		;funcret
  1097  00410E                     __end_of_putUSBUSART:
  1098                           	opt callstack 0
  1099                           
  1100 ;; *************** function _CDCTxService *****************
  1101 ;; Defined at:
  1102 ;;		line 836 in file "usb_device_cdc.c"
  1103 ;; Parameters:    Size  Location     Type
  1104 ;;		None
  1105 ;; Auto vars:     Size  Location     Type
  1106 ;;  byte_to_send    1   12[BANK0 ] unsigned char 
  1107 ;;  i               1   11[BANK0 ] unsigned char 
  1108 ;; Return value:  Size  Location     Type
  1109 ;;                  1    wreg      void 
  1110 ;; Registers used:
  1111 ;;		wreg, fsr1l, fsr1h, fsr2l, fsr2h, status,2, status,0, prodl, prodh, cstack
  1112 ;; Tracked objects:
  1113 ;;		On entry : 0/0
  1114 ;;		On exit  : 0/0
  1115 ;;		Unchanged: 0/0
  1116 ;; Data sizes:     COMRAM   BANK0   BANK1   BANK2   BANK3  BANK4h  BANK4l   BANK5   BANK6   BANK7
  1117 ;;      Params:         0       0       0       0       0       0       0       0       0       0
  1118 ;;      Locals:         0       2       0       0       0       0       0       0       0       0
  1119 ;;      Temps:          0       0       0       0       0       0       0       0       0       0
  1120 ;;      Totals:         0       2       0       0       0       0       0       0       0       0
  1121 ;;Total ram usage:        2 bytes
  1122 ;; Hardware stack levels used:    1
  1123 ;; Hardware stack levels required when called:   12
  1124 ;; This function calls:
  1125 ;;		_USBTransferOnePacket
  1126 ;; This function is called by:
  1127 ;;		_sendFlap
  1128 ;; This function uses a non-reentrant model
  1129 ;;
  1130                           
  1131                           	psect	text3
  1132  0013CE                     __ptext3:
  1133                           	opt callstack 0
  1134  0013CE                     _CDCTxService:
  1135                           	opt callstack 17
  1136  0013CE                     
  1137                           ;usb_device_cdc.c: 838:     uint8_t byte_to_send;;usb_device_cdc.c: 839:     uint8_t i;;
      +                          usb_device_cdc.c: 841:     {PIE2bits.USBIE = 0;};
  1138  0013CE  9AA0               	bcf	160,5,c	;volatile
  1139  0013D0                     
  1140                           ;usb_device_cdc.c: 843:     {};;usb_device_cdc.c: 845:     if(((CDCDataInHandle != 0x000
      +                          0) && ((*(volatile uint8_t*)CDCDataInHandle & 0x80) != 0x00)))
  1141  0013D0  0100               	movlb	0	; () banked
  1142  0013D2  51BE               	movf	_CDCDataInHandle& (0+255),w,b
  1143  0013D4  11BF               	iorwf	(_CDCDataInHandle+1)& (0+255),w,b
  1144  0013D6  B4D8               	btfsc	status,2,c
  1145  0013D8  EFF0  F009         	goto	u6321
  1146  0013DC  EFF2  F009         	goto	u6320
  1147  0013E0                     u6321:
  1148  0013E0  EF00  F00A         	goto	l6995
  1149  0013E4                     u6320:
  1150  0013E4                     
  1151                           ; BSR set to: 0
  1152  0013E4  C0BE  FFD9         	movff	_CDCDataInHandle,fsr2l
  1153  0013E8  C0BF  FFDA         	movff	_CDCDataInHandle+1,fsr2h
  1154  0013EC  AEDF               	btfss	indf2,7,c
  1155  0013EE  EFFB  F009         	goto	u6331
  1156  0013F2  EFFD  F009         	goto	u6330
  1157  0013F6                     u6331:
  1158  0013F6  EF00  F00A         	goto	l6995
  1159  0013FA                     u6330:
  1160  0013FA                     
  1161                           ; BSR set to: 0
  1162                           ;usb_device_cdc.c: 846:     {;usb_device_cdc.c: 847:         {PIE2bits.USBIE = 1;};
  1163  0013FA  8AA0               	bsf	160,5,c	;volatile
  1164                           
  1165                           ;usb_device_cdc.c: 848:         return;
  1166  0013FC  EFB2  F00A         	goto	l604
  1167  001400                     l6995:
  1168                           
  1169                           ; BSR set to: 0
  1170                           ;usb_device_cdc.c: 856:     if(cdc_trf_state == 3)
  1171  001400  0E03               	movlw	3
  1172  001402  181F               	xorwf	_cdc_trf_state^0,w,c
  1173  001404  A4D8               	btfss	status,2,c
  1174  001406  EF07  F00A         	goto	u6341
  1175  00140A  EF09  F00A         	goto	u6340
  1176  00140E                     u6341:
  1177  00140E  EF0B  F00A         	goto	l605
  1178  001412                     u6340:
  1179  001412                     
  1180                           ; BSR set to: 0
  1181                           ;usb_device_cdc.c: 857:         cdc_trf_state = 0;
  1182  001412  0E00               	movlw	0
  1183  001414  6E1F               	movwf	_cdc_trf_state^0,c
  1184  001416                     l605:
  1185                           
  1186                           ; BSR set to: 0
  1187                           ;usb_device_cdc.c: 862:     if(cdc_trf_state == 0)
  1188  001416  501F               	movf	_cdc_trf_state^0,w,c
  1189  001418  A4D8               	btfss	status,2,c
  1190  00141A  EF11  F00A         	goto	u6351
  1191  00141E  EF13  F00A         	goto	u6350
  1192  001422                     u6351:
  1193  001422  EF16  F00A         	goto	l7001
  1194  001426                     u6350:
  1195  001426                     
  1196                           ; BSR set to: 0
  1197                           ;usb_device_cdc.c: 863:     {;usb_device_cdc.c: 864:         {PIE2bits.USBIE = 1;};
  1198  001426  8AA0               	bsf	160,5,c	;volatile
  1199                           
  1200                           ;usb_device_cdc.c: 865:         return;
  1201  001428  EFB2  F00A         	goto	l604
  1202  00142C                     l7001:
  1203                           
  1204                           ; BSR set to: 0
  1205                           ;usb_device_cdc.c: 871:     if(cdc_trf_state == 2)
  1206  00142C  0E02               	movlw	2
  1207  00142E  181F               	xorwf	_cdc_trf_state^0,w,c
  1208  001430  A4D8               	btfss	status,2,c
  1209  001432  EF1D  F00A         	goto	u6361
  1210  001436  EF1F  F00A         	goto	u6360
  1211  00143A                     u6361:
  1212  00143A  EF32  F00A         	goto	l7007
  1213  00143E                     u6360:
  1214  00143E                     
  1215                           ; BSR set to: 0
  1216                           ;usb_device_cdc.c: 872:     {;usb_device_cdc.c: 873:         CDCDataInHandle = USBTransf
      +                          erOnePacket(2,1,((void*)0),0);
  1217  00143E  0E01               	movlw	1
  1218  001440  6FDF               	movwf	USBTransferOnePacket@dir& (0+255),b
  1219  001442  0E00               	movlw	0
  1220  001444  6FE0               	movwf	USBTransferOnePacket@data& (0+255),b
  1221  001446  0E00               	movlw	0
  1222  001448  6FE1               	movwf	(USBTransferOnePacket@data+1)& (0+255),b
  1223  00144A  0E00               	movlw	0
  1224  00144C  6FE2               	movwf	USBTransferOnePacket@len& (0+255),b
  1225  00144E  0E02               	movlw	2
  1226  001450  EC1F  F010         	call	_USBTransferOnePacket
  1227  001454  C0DF  F0BE         	movff	?_USBTransferOnePacket,_CDCDataInHandle
  1228  001458  C0E0  F0BF         	movff	?_USBTransferOnePacket+1,_CDCDataInHandle+1
  1229  00145C                     
  1230                           ;usb_device_cdc.c: 875:         cdc_trf_state = 3;
  1231  00145C  0E03               	movlw	3
  1232  00145E  6E1F               	movwf	_cdc_trf_state^0,c
  1233                           
  1234                           ;usb_device_cdc.c: 876:     }
  1235  001460  EFB1  F00A         	goto	l7051
  1236  001464                     l7007:
  1237                           
  1238                           ; BSR set to: 0
  1239  001464  041F               	decf	_cdc_trf_state^0,w,c
  1240  001466  A4D8               	btfss	status,2,c
  1241  001468  EF38  F00A         	goto	u6371
  1242  00146C  EF3A  F00A         	goto	u6370
  1243  001470                     u6371:
  1244  001470  EFB1  F00A         	goto	l7051
  1245  001474                     u6370:
  1246  001474                     
  1247                           ; BSR set to: 0
  1248                           ;usb_device_cdc.c: 878:     {;usb_device_cdc.c: 882:      if(cdc_tx_len > sizeof(cdc_dat
      +                          a_tx))
  1249  001474  0E40               	movlw	64
  1250  001476  65C6               	cpfsgt	_cdc_tx_len& (0+255),b
  1251  001478  EF40  F00A         	goto	u6381
  1252  00147C  EF42  F00A         	goto	u6380
  1253  001480                     u6381:
  1254  001480  EF46  F00A         	goto	l610
  1255  001484                     u6380:
  1256  001484                     
  1257                           ; BSR set to: 0
  1258                           ;usb_device_cdc.c: 883:          byte_to_send = sizeof(cdc_data_tx);
  1259  001484  0E40               	movlw	64
  1260  001486  6FEB               	movwf	CDCTxService@byte_to_send& (0+255),b
  1261  001488  EF48  F00A         	goto	l7013
  1262  00148C                     l610:
  1263                           
  1264                           ; BSR set to: 0
  1265                           ;usb_device_cdc.c: 885:          byte_to_send = cdc_tx_len;
  1266  00148C  C0C6  F0EB         	movff	_cdc_tx_len,CDCTxService@byte_to_send
  1267  001490                     l7013:
  1268                           
  1269                           ; BSR set to: 0
  1270                           ;usb_device_cdc.c: 890:      cdc_tx_len = cdc_tx_len - byte_to_send;
  1271  001490  51EB               	movf	CDCTxService@byte_to_send& (0+255),w,b
  1272  001492  5DC6               	subwf	_cdc_tx_len& (0+255),w,b
  1273  001494  6FC6               	movwf	_cdc_tx_len& (0+255),b
  1274                           
  1275                           ;usb_device_cdc.c: 892:         pCDCDst.bRam = (uint8_t*)&cdc_data_tx;
  1276  001496  0E00               	movlw	0
  1277  001498  6FB8               	movwf	_pCDCDst& (0+255),b
  1278  00149A  0E05               	movlw	5
  1279  00149C  6FB9               	movwf	(_pCDCDst+1)& (0+255),b
  1280  00149E                     
  1281                           ; BSR set to: 0
  1282                           ;usb_device_cdc.c: 894:         i = byte_to_send;
  1283  00149E  C0EB  F0EA         	movff	CDCTxService@byte_to_send,CDCTxService@i
  1284  0014A2                     
  1285                           ; BSR set to: 0
  1286                           ;usb_device_cdc.c: 895:         if(cdc_mem_type == 0x00)
  1287  0014A2  51C5               	movf	_cdc_mem_type& (0+255),w,b
  1288  0014A4  A4D8               	btfss	status,2,c
  1289  0014A6  EF57  F00A         	goto	u6391
  1290  0014AA  EF59  F00A         	goto	u6390
  1291  0014AE                     u6391:
  1292  0014AE  EF83  F00A         	goto	l7039
  1293  0014B2                     u6390:
  1294  0014B2  EF6A  F00A         	goto	l7029
  1295  0014B6                     l7021:
  1296                           
  1297                           ; BSR set to: 0
  1298                           ;usb_device_cdc.c: 898:             {;usb_device_cdc.c: 899:                 *pCDCDst.bR
      +                          am = *pCDCSrc.bRom;
  1299  0014B6  C0BB  FFD9         	movff	_pCDCSrc,fsr2l
  1300  0014BA  C0BC  FFDA         	movff	_pCDCSrc+1,fsr2h
  1301  0014BE  C0B8  FFE1         	movff	_pCDCDst,fsr1l
  1302  0014C2  C0B9  FFE2         	movff	_pCDCDst+1,fsr1h
  1303  0014C6  CFDF FFE7          	movff	indf2,indf1
  1304  0014CA                     
  1305                           ; BSR set to: 0
  1306                           ;usb_device_cdc.c: 900:                 pCDCDst.bRam++;
  1307  0014CA  4BB8               	infsnz	_pCDCDst& (0+255),f,b
  1308  0014CC  2BB9               	incf	(_pCDCDst+1)& (0+255),f,b
  1309  0014CE                     
  1310                           ; BSR set to: 0
  1311                           ;usb_device_cdc.c: 901:                 pCDCSrc.bRom++;
  1312  0014CE  4BBB               	infsnz	_pCDCSrc& (0+255),f,b
  1313  0014D0  2BBC               	incf	(_pCDCSrc+1)& (0+255),f,b
  1314  0014D2                     
  1315                           ; BSR set to: 0
  1316                           ;usb_device_cdc.c: 902:                 i--;
  1317  0014D2  07EA               	decf	CDCTxService@i& (0+255),f,b
  1318  0014D4                     l7029:
  1319                           
  1320                           ; BSR set to: 0
  1321                           ;usb_device_cdc.c: 897:             while(i)
  1322  0014D4  51EA               	movf	CDCTxService@i& (0+255),w,b
  1323  0014D6  A4D8               	btfss	status,2,c
  1324  0014D8  EF70  F00A         	goto	u6401
  1325  0014DC  EF72  F00A         	goto	u6400
  1326  0014E0                     u6401:
  1327  0014E0  EF5B  F00A         	goto	l7021
  1328  0014E4                     u6400:
  1329  0014E4  EF8B  F00A         	goto	l7041
  1330  0014E8                     l7031:
  1331                           
  1332                           ; BSR set to: 0
  1333                           ;usb_device_cdc.c: 908:             {;usb_device_cdc.c: 909:                 *pCDCDst.bR
      +                          am = *pCDCSrc.bRam;
  1334  0014E8  C0BB  FFD9         	movff	_pCDCSrc,fsr2l
  1335  0014EC  C0BC  FFDA         	movff	_pCDCSrc+1,fsr2h
  1336  0014F0  C0B8  FFE1         	movff	_pCDCDst,fsr1l
  1337  0014F4  C0B9  FFE2         	movff	_pCDCDst+1,fsr1h
  1338  0014F8  CFDF FFE7          	movff	indf2,indf1
  1339  0014FC                     
  1340                           ; BSR set to: 0
  1341                           ;usb_device_cdc.c: 910:                 pCDCDst.bRam++;
  1342  0014FC  4BB8               	infsnz	_pCDCDst& (0+255),f,b
  1343  0014FE  2BB9               	incf	(_pCDCDst+1)& (0+255),f,b
  1344  001500                     
  1345                           ; BSR set to: 0
  1346                           ;usb_device_cdc.c: 911:                 pCDCSrc.bRam++;
  1347  001500  4BBB               	infsnz	_pCDCSrc& (0+255),f,b
  1348  001502  2BBC               	incf	(_pCDCSrc+1)& (0+255),f,b
  1349  001504                     
  1350                           ; BSR set to: 0
  1351                           ;usb_device_cdc.c: 912:                 i--;
  1352  001504  07EA               	decf	CDCTxService@i& (0+255),f,b
  1353  001506                     l7039:
  1354                           
  1355                           ; BSR set to: 0
  1356                           ;usb_device_cdc.c: 907:             while(i)
  1357  001506  51EA               	movf	CDCTxService@i& (0+255),w,b
  1358  001508  A4D8               	btfss	status,2,c
  1359  00150A  EF89  F00A         	goto	u6411
  1360  00150E  EF8B  F00A         	goto	u6410
  1361  001512                     u6411:
  1362  001512  EF74  F00A         	goto	l7031
  1363  001516                     u6410:
  1364  001516                     l7041:
  1365                           
  1366                           ; BSR set to: 0
  1367                           ;usb_device_cdc.c: 920:         if(cdc_tx_len == 0)
  1368  001516  51C6               	movf	_cdc_tx_len& (0+255),w,b
  1369  001518  A4D8               	btfss	status,2,c
  1370  00151A  EF91  F00A         	goto	u6421
  1371  00151E  EF93  F00A         	goto	u6420
  1372  001522                     u6421:
  1373  001522  EFA2  F00A         	goto	l7049
  1374  001526                     u6420:
  1375  001526                     
  1376                           ; BSR set to: 0
  1377                           ;usb_device_cdc.c: 921:         {;usb_device_cdc.c: 922:             if(byte_to_send == 
      +                          64)
  1378  001526  0E40               	movlw	64
  1379  001528  19EB               	xorwf	CDCTxService@byte_to_send& (0+255),w,b
  1380  00152A  A4D8               	btfss	status,2,c
  1381  00152C  EF9A  F00A         	goto	u6431
  1382  001530  EF9C  F00A         	goto	u6430
  1383  001534                     u6431:
  1384  001534  EFA0  F00A         	goto	l7047
  1385  001538                     u6430:
  1386  001538                     
  1387                           ; BSR set to: 0
  1388                           ;usb_device_cdc.c: 923:                 cdc_trf_state = 2;
  1389  001538  0E02               	movlw	2
  1390  00153A  6E1F               	movwf	_cdc_trf_state^0,c
  1391  00153C  EFA2  F00A         	goto	l7049
  1392  001540                     l7047:
  1393                           
  1394                           ; BSR set to: 0
  1395                           ;usb_device_cdc.c: 925:                 cdc_trf_state = 3;
  1396  001540  0E03               	movlw	3
  1397  001542  6E1F               	movwf	_cdc_trf_state^0,c
  1398  001544                     l7049:
  1399                           
  1400                           ; BSR set to: 0
  1401                           ;usb_device_cdc.c: 927:         CDCDataInHandle = USBTransferOnePacket(2,1,(uint8_t*)&cd
      +                          c_data_tx,byte_to_send);
  1402  001544  0E01               	movlw	1
  1403  001546  6FDF               	movwf	USBTransferOnePacket@dir& (0+255),b
  1404  001548  0E00               	movlw	0
  1405  00154A  6FE0               	movwf	USBTransferOnePacket@data& (0+255),b
  1406  00154C  0E05               	movlw	5
  1407  00154E  6FE1               	movwf	(USBTransferOnePacket@data+1)& (0+255),b
  1408  001550  C0EB  F0E2         	movff	CDCTxService@byte_to_send,USBTransferOnePacket@len
  1409  001554  0E02               	movlw	2
  1410  001556  EC1F  F010         	call	_USBTransferOnePacket
  1411  00155A  C0DF  F0BE         	movff	?_USBTransferOnePacket,_CDCDataInHandle
  1412  00155E  C0E0  F0BF         	movff	?_USBTransferOnePacket+1,_CDCDataInHandle+1
  1413  001562                     l7051:
  1414                           
  1415                           ;usb_device_cdc.c: 931:     {PIE2bits.USBIE = 1;};
  1416  001562  8AA0               	bsf	160,5,c	;volatile
  1417  001564                     l604:
  1418  001564  0012               	return		;funcret
  1419  001566                     __end_of_CDCTxService:
  1420                           	opt callstack 0
  1421                           
  1422 ;; *************** function _readButtonAsm *****************
  1423 ;; Defined at:
  1424 ;;		line 58 in file "main.c"
  1425 ;; Parameters:    Size  Location     Type
  1426 ;;		None
  1427 ;; Auto vars:     Size  Location     Type
  1428 ;;		None
  1429 ;; Return value:  Size  Location     Type
  1430 ;;                  1    wreg      unsigned char 
  1431 ;; Registers used:
  1432 ;;		None
  1433 ;; Tracked objects:
  1434 ;;		On entry : 0/0
  1435 ;;		On exit  : 0/0
  1436 ;;		Unchanged: 0/0
  1437 ;; Data sizes:     COMRAM   BANK0   BANK1   BANK2   BANK3  BANK4h  BANK4l   BANK5   BANK6   BANK7
  1438 ;;      Params:         0       0       0       0       0       0       0       0       0       0
  1439 ;;      Locals:         0       0       0       0       0       0       0       0       0       0
  1440 ;;      Temps:          0       0       0       0       0       0       0       0       0       0
  1441 ;;      Totals:         0       0       0       0       0       0       0       0       0       0
  1442 ;;Total ram usage:        0 bytes
  1443 ;; Hardware stack levels used:    1
  1444 ;; Hardware stack levels required when called:   11
  1445 ;; This function calls:
  1446 ;;		Nothing
  1447 ;; This function is called by:
  1448 ;;		_main
  1449 ;; This function uses a non-reentrant model
  1450 ;;
  1451                           
  1452                           	psect	text4
  1453  004146                     __ptext4:
  1454                           	opt callstack 0
  1455  004146                     _readButtonAsm:
  1456                           	opt callstack 19
  1457  004146  0E01               	movlw	1	;# 
  1458  004148  A083               	btfss	3971,0,c	;# 
  1459  00414A  0E00               	movlw	0	;# 
  1460  00414C  0012               	return		;# 
  1461  00414E  0012               	return		;funcret
  1462  004150                     __end_of_readButtonAsm:
  1463                           	opt callstack 0
  1464                           
  1465 ;; *************** function _isUSBReady *****************
  1466 ;; Defined at:
  1467 ;;		line 31 in file "usb_cdc_lib.c"
  1468 ;; Parameters:    Size  Location     Type
  1469 ;;		None
  1470 ;; Auto vars:     Size  Location     Type
  1471 ;;		None
  1472 ;; Return value:  Size  Location     Type
  1473 ;;                  1    wreg      unsigned char 
  1474 ;; Registers used:
  1475 ;;		wreg, status,2, status,0
  1476 ;; Tracked objects:
  1477 ;;		On entry : 0/0
  1478 ;;		On exit  : 0/0
  1479 ;;		Unchanged: 0/0
  1480 ;; Data sizes:     COMRAM   BANK0   BANK1   BANK2   BANK3  BANK4h  BANK4l   BANK5   BANK6   BANK7
  1481 ;;      Params:         0       0       0       0       0       0       0       0       0       0
  1482 ;;      Locals:         0       2       0       0       0       0       0       0       0       0
  1483 ;;      Temps:          0       0       0       0       0       0       0       0       0       0
  1484 ;;      Totals:         0       2       0       0       0       0       0       0       0       0
  1485 ;;Total ram usage:        2 bytes
  1486 ;; Hardware stack levels used:    1
  1487 ;; Hardware stack levels required when called:   11
  1488 ;; This function calls:
  1489 ;;		Nothing
  1490 ;; This function is called by:
  1491 ;;		_main
  1492 ;; This function uses a non-reentrant model
  1493 ;;
  1494                           
  1495                           	psect	text5
  1496  003FB6                     __ptext5:
  1497                           	opt callstack 0
  1498  003FB6                     _isUSBReady:
  1499                           	opt callstack 19
  1500  003FB6                     
  1501                           ;usb_cdc_lib.c: 33:     return ((USBDeviceState < CONFIGURED_STATE) || (UCONbits.SUSPND 
      +                          == 1)) ? 0x00 : 0xFF;
  1502  003FB6  0E1F               	movlw	31
  1503  003FB8  6429               	cpfsgt	_USBDeviceState^0,c	;volatile
  1504  003FBA  EFE1  F01F         	goto	u6811
  1505  003FBE  EFE3  F01F         	goto	u6810
  1506  003FC2                     u6811:
  1507  003FC2  EFF0  F01F         	goto	l7323
  1508  003FC6                     u6810:
  1509  003FC6  B26D               	btfsc	109,1,c	;volatile
  1510  003FC8  EFE8  F01F         	goto	u6821
  1511  003FCC  EFEA  F01F         	goto	u6820
  1512  003FD0                     u6821:
  1513  003FD0  EFF0  F01F         	goto	l7323
  1514  003FD4                     u6820:
  1515  003FD4  0E00               	movlw	0
  1516  003FD6  0100               	movlb	0	; () banked
  1517  003FD8  6FE0               	movwf	(_isUSBReady$349+1)& (0+255),b
  1518  003FDA  69DF               	setf	_isUSBReady$349& (0+255),b
  1519  003FDC  EFF5  F01F         	goto	l95
  1520  003FE0                     l7323:
  1521  003FE0  0E00               	movlw	0
  1522  003FE2  0100               	movlb	0	; () banked
  1523  003FE4  6FE0               	movwf	(_isUSBReady$349+1)& (0+255),b
  1524  003FE6  0E00               	movlw	0
  1525  003FE8  6FDF               	movwf	_isUSBReady$349& (0+255),b
  1526  003FEA                     l95:
  1527                           
  1528                           ; BSR set to: 0
  1529  003FEA  51DF               	movf	_isUSBReady$349& (0+255),w,b
  1530  003FEC                     
  1531                           ; BSR set to: 0
  1532  003FEC  0012               	return		;funcret
  1533  003FEE                     __end_of_isUSBReady:
  1534                           	opt callstack 0
  1535                           
  1536 ;; *************** function _initUSBLib *****************
  1537 ;; Defined at:
  1538 ;;		line 10 in file "usb_cdc_lib.c"
  1539 ;; Parameters:    Size  Location     Type
  1540 ;;		None
  1541 ;; Auto vars:     Size  Location     Type
  1542 ;;		None
  1543 ;; Return value:  Size  Location     Type
  1544 ;;                  1    wreg      void 
  1545 ;; Registers used:
  1546 ;;		wreg, fsr2l, fsr2h, status,2, status,0, prodl, prodh, cstack
  1547 ;; Tracked objects:
  1548 ;;		On entry : 0/0
  1549 ;;		On exit  : 0/0
  1550 ;;		Unchanged: 0/0
  1551 ;; Data sizes:     COMRAM   BANK0   BANK1   BANK2   BANK3  BANK4h  BANK4l   BANK5   BANK6   BANK7
  1552 ;;      Params:         0       0       0       0       0       0       0       0       0       0
  1553 ;;      Locals:         0       0       0       0       0       0       0       0       0       0
  1554 ;;      Temps:          0       0       0       0       0       0       0       0       0       0
  1555 ;;      Totals:         0       0       0       0       0       0       0       0       0       0
  1556 ;;Total ram usage:        0 bytes
  1557 ;; Hardware stack levels used:    1
  1558 ;; Hardware stack levels required when called:   13
  1559 ;; This function calls:
  1560 ;;		_USBDeviceAttach
  1561 ;;		_USBDeviceInit
  1562 ;; This function is called by:
  1563 ;;		_main
  1564 ;; This function uses a non-reentrant model
  1565 ;;
  1566                           
  1567                           	psect	text6
  1568  004138                     __ptext6:
  1569                           	opt callstack 0
  1570  004138                     _initUSBLib:
  1571                           	opt callstack 17
  1572  004138                     
  1573                           ;usb_cdc_lib.c: 13:     INTCONbits.GIE = 1;
  1574  004138  8EF2               	bsf	242,7,c	;volatile
  1575                           
  1576                           ;usb_cdc_lib.c: 14:     INTCONbits.PEIE = 1;
  1577  00413A  8CF2               	bsf	242,6,c	;volatile
  1578  00413C                     
  1579                           ;usb_cdc_lib.c: 16:     USBDeviceInit();
  1580  00413C  EC90  F00D         	call	_USBDeviceInit	;wreg free
  1581  004140                     
  1582                           ;usb_cdc_lib.c: 17:     USBDeviceAttach();
  1583  004140  EC79  F01F         	call	_USBDeviceAttach	;wreg free
  1584  004144  0012               	return		;funcret
  1585  004146                     __end_of_initUSBLib:
  1586                           	opt callstack 0
  1587                           
  1588 ;; *************** function _USBDeviceAttach *****************
  1589 ;; Defined at:
  1590 ;;		line 1358 in file "usb_device.c"
  1591 ;; Parameters:    Size  Location     Type
  1592 ;;		None
  1593 ;; Auto vars:     Size  Location     Type
  1594 ;;		None
  1595 ;; Return value:  Size  Location     Type
  1596 ;;                  1    wreg      void 
  1597 ;; Registers used:
  1598 ;;		wreg, status,2
  1599 ;; Tracked objects:
  1600 ;;		On entry : 0/0
  1601 ;;		On exit  : 0/0
  1602 ;;		Unchanged: 0/0
  1603 ;; Data sizes:     COMRAM   BANK0   BANK1   BANK2   BANK3  BANK4h  BANK4l   BANK5   BANK6   BANK7
  1604 ;;      Params:         0       0       0       0       0       0       0       0       0       0
  1605 ;;      Locals:         0       0       0       0       0       0       0       0       0       0
  1606 ;;      Temps:          0       0       0       0       0       0       0       0       0       0
  1607 ;;      Totals:         0       0       0       0       0       0       0       0       0       0
  1608 ;;Total ram usage:        0 bytes
  1609 ;; Hardware stack levels used:    1
  1610 ;; Hardware stack levels required when called:   11
  1611 ;; This function calls:
  1612 ;;		Nothing
  1613 ;; This function is called by:
  1614 ;;		_initUSBLib
  1615 ;; This function uses a non-reentrant model
  1616 ;;
  1617                           
  1618                           	psect	text7
  1619  003EF2                     __ptext7:
  1620                           	opt callstack 0
  1621  003EF2                     _USBDeviceAttach:
  1622                           	opt callstack 18
  1623  003EF2                     
  1624                           ;usb_device.c: 1362:     {;usb_device.c: 1363:         if(1 == 1)
  1625  003EF2  5029               	movf	_USBDeviceState^0,w,c	;volatile
  1626  003EF4  A4D8               	btfss	status,2,c
  1627  003EF6  EF7F  F01F         	goto	u6471
  1628  003EFA  EF81  F01F         	goto	u6470
  1629  003EFE                     u6471:
  1630  003EFE  EF99  F01F         	goto	l309
  1631  003F02                     u6470:
  1632  003F02                     
  1633                           ;usb_device.c: 1364:         {;usb_device.c: 1366:             UCON = 0;
  1634  003F02  0E00               	movlw	0
  1635  003F04  6E6D               	movwf	109,c	;volatile
  1636                           
  1637                           ;usb_device.c: 1369:             UIE = 0;
  1638  003F06  0E00               	movlw	0
  1639  003F08  6E69               	movwf	105,c	;volatile
  1640                           
  1641                           ;usb_device.c: 1373:             { UCFG = 0x10 | 0x00 | 0x04 | 0x02; UEIE = 0x9F; UIE = 
      +                          0x39 | 0x40 | 0x02; };
  1642  003F0A  0E16               	movlw	22
  1643  003F0C  6E6F               	movwf	111,c	;volatile
  1644  003F0E  0E9F               	movlw	159
  1645  003F10  6E6B               	movwf	107,c	;volatile
  1646  003F12  0E7B               	movlw	123
  1647  003F14  6E69               	movwf	105,c	;volatile
  1648  003F16                     
  1649                           ;usb_device.c: 1375:             {IPR2bits.USBIP = 1;PIE2bits.USBIE = 1;};
  1650  003F16  8AA2               	bsf	162,5,c	;volatile
  1651  003F18  8AA0               	bsf	160,5,c	;volatile
  1652                           
  1653                           ;usb_device.c: 1378:             while(!UCONbits.USBEN){UCONbits.USBEN = 1;}
  1654  003F1A  EF90  F01F         	goto	l306
  1655  003F1E                     l307:
  1656  003F1E  866D               	bsf	109,3,c	;volatile
  1657  003F20                     l306:
  1658  003F20  A66D               	btfss	109,3,c	;volatile
  1659  003F22  EF95  F01F         	goto	u6481
  1660  003F26  EF97  F01F         	goto	u6480
  1661  003F2A                     u6481:
  1662  003F2A  EF8F  F01F         	goto	l307
  1663  003F2E                     u6480:
  1664  003F2E                     
  1665                           ;usb_device.c: 1381:             USBDeviceState = ATTACHED_STATE;
  1666  003F2E  0E01               	movlw	1
  1667  003F30  6E29               	movwf	_USBDeviceState^0,c	;volatile
  1668  003F32                     l309:
  1669  003F32  0012               	return		;funcret
  1670  003F34                     __end_of_USBDeviceAttach:
  1671                           	opt callstack 0
  1672                           
  1673 ;; *************** function _debounceDelay *****************
  1674 ;; Defined at:
  1675 ;;		line 72 in file "main.c"
  1676 ;; Parameters:    Size  Location     Type
  1677 ;;		None
  1678 ;; Auto vars:     Size  Location     Type
  1679 ;;  j               2    2[BANK0 ] volatile int 
  1680 ;;  i               2    0[BANK0 ] volatile int 
  1681 ;; Return value:  Size  Location     Type
  1682 ;;                  1    wreg      void 
  1683 ;; Registers used:
  1684 ;;		wreg, status,2, status,0
  1685 ;; Tracked objects:
  1686 ;;		On entry : 0/0
  1687 ;;		On exit  : 0/0
  1688 ;;		Unchanged: 0/0
  1689 ;; Data sizes:     COMRAM   BANK0   BANK1   BANK2   BANK3  BANK4h  BANK4l   BANK5   BANK6   BANK7
  1690 ;;      Params:         0       0       0       0       0       0       0       0       0       0
  1691 ;;      Locals:         0       4       0       0       0       0       0       0       0       0
  1692 ;;      Temps:          0       0       0       0       0       0       0       0       0       0
  1693 ;;      Totals:         0       4       0       0       0       0       0       0       0       0
  1694 ;;Total ram usage:        4 bytes
  1695 ;; Hardware stack levels used:    1
  1696 ;; Hardware stack levels required when called:   11
  1697 ;; This function calls:
  1698 ;;		Nothing
  1699 ;; This function is called by:
  1700 ;;		_main
  1701 ;; This function uses a non-reentrant model
  1702 ;;
  1703                           
  1704                           	psect	text8
  1705  003BF0                     __ptext8:
  1706                           	opt callstack 0
  1707  003BF0                     _debounceDelay:
  1708                           	opt callstack 19
  1709  003BF0                     
  1710                           ;main.c: 73:     for (volatile int i=0; i<255; i++)
  1711  003BF0  0E00               	movlw	0
  1712  003BF2  0100               	movlb	0	; () banked
  1713  003BF4  6FE0               	movwf	(debounceDelay@i+1)& (0+255),b	;volatile
  1714  003BF6  0E00               	movlw	0
  1715  003BF8  6FDF               	movwf	debounceDelay@i& (0+255),b	;volatile
  1716  003BFA                     l7337:
  1717                           
  1718                           ; BSR set to: 0
  1719  003BFA  BFE0               	btfsc	(debounceDelay@i+1)& (0+255),7,b	;volatile
  1720  003BFC  EF08  F01E         	goto	u6841
  1721  003C00  51E0               	movf	(debounceDelay@i+1)& (0+255),w,b	;volatile
  1722  003C02  E108               	bnz	u6840
  1723  003C04  29DF               	incf	debounceDelay@i& (0+255),w,b	;volatile
  1724  003C06  A0D8               	btfss	status,0,c
  1725  003C08  EF08  F01E         	goto	u6841
  1726  003C0C  EF0A  F01E         	goto	u6840
  1727  003C10                     u6841:
  1728  003C10  EF0C  F01E         	goto	l7341
  1729  003C14                     u6840:
  1730  003C14  EF27  F01E         	goto	l60
  1731  003C18                     l7341:
  1732                           
  1733                           ; BSR set to: 0
  1734                           ;main.c: 74:         for (volatile int j=0; j<255; j++);
  1735  003C18  0E00               	movlw	0
  1736  003C1A  6FE2               	movwf	(debounceDelay@j+1)& (0+255),b	;volatile
  1737  003C1C  0E00               	movlw	0
  1738  003C1E  6FE1               	movwf	debounceDelay@j& (0+255),b	;volatile
  1739  003C20                     l7343:
  1740                           
  1741                           ; BSR set to: 0
  1742  003C20  BFE2               	btfsc	(debounceDelay@j+1)& (0+255),7,b	;volatile
  1743  003C22  EF1B  F01E         	goto	u6851
  1744  003C26  51E2               	movf	(debounceDelay@j+1)& (0+255),w,b	;volatile
  1745  003C28  E108               	bnz	u6850
  1746  003C2A  29E1               	incf	debounceDelay@j& (0+255),w,b	;volatile
  1747  003C2C  A0D8               	btfss	status,0,c
  1748  003C2E  EF1B  F01E         	goto	u6851
  1749  003C32  EF1D  F01E         	goto	u6850
  1750  003C36                     u6851:
  1751  003C36  EF1F  F01E         	goto	l7347
  1752  003C3A                     u6850:
  1753  003C3A  EF23  F01E         	goto	l7351
  1754  003C3E                     l7347:
  1755                           
  1756                           ; BSR set to: 0
  1757  003C3E  4BE1               	infsnz	debounceDelay@j& (0+255),f,b	;volatile
  1758  003C40  2BE2               	incf	(debounceDelay@j+1)& (0+255),f,b	;volatile
  1759  003C42  EF10  F01E         	goto	l7343
  1760  003C46                     l7351:
  1761                           
  1762                           ; BSR set to: 0
  1763  003C46  4BDF               	infsnz	debounceDelay@i& (0+255),f,b	;volatile
  1764  003C48  2BE0               	incf	(debounceDelay@i+1)& (0+255),f,b	;volatile
  1765  003C4A  EFFD  F01D         	goto	l7337
  1766  003C4E                     l60:
  1767                           
  1768                           ; BSR set to: 0
  1769  003C4E  0012               	return		;funcret
  1770  003C50                     __end_of_debounceDelay:
  1771                           	opt callstack 0
  1772                           
  1773 ;; *************** function _USBDeviceTasks *****************
  1774 ;; Defined at:
  1775 ;;		line 481 in file "usb_device.c"
  1776 ;; Parameters:    Size  Location     Type
  1777 ;;		None
  1778 ;; Auto vars:     Size  Location     Type
  1779 ;;  i               1   25[BANK0 ] unsigned char 
  1780 ;; Return value:  Size  Location     Type
  1781 ;;                  1    wreg      void 
  1782 ;; Registers used:
  1783 ;;		wreg, fsr1l, fsr1h, fsr2l, fsr2h, status,2, status,0, tblptrl, tblptrh, tblptru, prodl, prodh, cstack
  1784 ;; Tracked objects:
  1785 ;;		On entry : 0/0
  1786 ;;		On exit  : 0/0
  1787 ;;		Unchanged: 0/0
  1788 ;; Data sizes:     COMRAM   BANK0   BANK1   BANK2   BANK3  BANK4h  BANK4l   BANK5   BANK6   BANK7
  1789 ;;      Params:         0       0       0       0       0       0       0       0       0       0
  1790 ;;      Locals:         0       1       0       0       0       0       0       0       0       0
  1791 ;;      Temps:          0       0       0       0       0       0       0       0       0       0
  1792 ;;      Totals:         0       1       0       0       0       0       0       0       0       0
  1793 ;;Total ram usage:        1 bytes
  1794 ;; Hardware stack levels used:    1
  1795 ;; Hardware stack levels required when called:   19
  1796 ;; This function calls:
  1797 ;;		_USBCtrlEPAllowStatusStage
  1798 ;;		_USBCtrlEPService
  1799 ;;		_USBDeviceInit
  1800 ;;		_USBIncrement1msInternalTimers
  1801 ;;		_USBStallHandler
  1802 ;;		_USBSuspend
  1803 ;;		_USBWakeFromSuspend
  1804 ;;		_USER_USB_CALLBACK_EVENT_HANDLER
  1805 ;; This function is called by:
  1806 ;;		_main
  1807 ;; This function uses a non-reentrant model
  1808 ;;
  1809                           
  1810                           	psect	text9
  1811  000F78                     __ptext9:
  1812                           	opt callstack 0
  1813  000F78                     _USBDeviceTasks:
  1814                           	opt callstack 11
  1815  000F78                     
  1816                           ;usb_device.c: 483:     uint8_t i;;usb_device.c: 594:     if(USBDeviceState == ATTACHED_
      +                          STATE)
  1817  000F78  0429               	decf	_USBDeviceState^0,w,c	;volatile
  1818  000F7A  A4D8               	btfss	status,2,c
  1819  000F7C  EFC2  F007         	goto	u6581
  1820  000F80  EFC4  F007         	goto	u6580
  1821  000F84                     u6581:
  1822  000F84  EFD1  F007         	goto	l7225
  1823  000F88                     u6580:
  1824  000F88                     
  1825                           ;usb_device.c: 595:     {;usb_device.c: 605:         if(!UCONbits.SE0)
  1826  000F88  BA6D               	btfsc	109,5,c	;volatile
  1827  000F8A  EFC9  F007         	goto	u6591
  1828  000F8E  EFCB  F007         	goto	u6590
  1829  000F92                     u6591:
  1830  000F92  EFD1  F007         	goto	l7225
  1831  000F96                     u6590:
  1832  000F96                     
  1833                           ;usb_device.c: 606:         {;usb_device.c: 612:                 {UIR = 0;};
  1834  000F96  0E00               	movlw	0
  1835  000F98  6E68               	movwf	104,c	;volatile
  1836  000F9A                     
  1837                           ;usb_device.c: 618:             UIEbits.URSTIE = 1;
  1838  000F9A  8069               	bsf	105,0,c	;volatile
  1839  000F9C                     
  1840                           ;usb_device.c: 619:             UIEbits.IDLEIE = 1;
  1841  000F9C  8869               	bsf	105,4,c	;volatile
  1842                           
  1843                           ;usb_device.c: 620:             USBDeviceState = POWERED_STATE;
  1844  000F9E  0E02               	movlw	2
  1845  000FA0  6E29               	movwf	_USBDeviceState^0,c	;volatile
  1846  000FA2                     l7225:
  1847                           
  1848                           ;usb_device.c: 640:     if(UIRbits.ACTVIF && UIEbits.ACTVIE)
  1849  000FA2  A468               	btfss	104,2,c	;volatile
  1850  000FA4  EFD6  F007         	goto	u6601
  1851  000FA8  EFD8  F007         	goto	u6600
  1852  000FAC                     u6601:
  1853  000FAC  EFE2  F007         	goto	l7233
  1854  000FB0                     u6600:
  1855  000FB0  A469               	btfss	105,2,c	;volatile
  1856  000FB2  EFDD  F007         	goto	u6611
  1857  000FB6  EFDF  F007         	goto	u6610
  1858  000FBA                     u6611:
  1859  000FBA  EFE2  F007         	goto	l7233
  1860  000FBE                     u6610:
  1861  000FBE                     
  1862                           ;usb_device.c: 641:     {;usb_device.c: 642:         (UIR &= 0xFB);
  1863  000FBE  9468               	bcf	104,2,c	;volatile
  1864  000FC0                     
  1865                           ;usb_device.c: 646:             USBWakeFromSuspend();
  1866  000FC0  EC9A  F01F         	call	_USBWakeFromSuspend	;wreg free
  1867  000FC4                     l7233:
  1868                           
  1869                           ;usb_device.c: 653:     if(UCONbits.SUSPND==1)
  1870  000FC4  A26D               	btfss	109,1,c	;volatile
  1871  000FC6  EFE7  F007         	goto	u6621
  1872  000FCA  EFE9  F007         	goto	u6620
  1873  000FCE                     u6621:
  1874  000FCE  EFEC  F007         	goto	l257
  1875  000FD2                     u6620:
  1876  000FD2                     
  1877                           ;usb_device.c: 654:     {;usb_device.c: 655:         {PIR2bits.USBIF = 0;};
  1878  000FD2  9AA1               	bcf	161,5,c	;volatile
  1879                           
  1880                           ;usb_device.c: 656:         return;
  1881  000FD4  EFD2  F008         	goto	l258
  1882  000FD8                     l257:
  1883                           
  1884                           ;usb_device.c: 669:     if(UIRbits.URSTIF && UIEbits.URSTIE)
  1885  000FD8  A068               	btfss	104,0,c	;volatile
  1886  000FDA  EFF1  F007         	goto	u6631
  1887  000FDE  EFF3  F007         	goto	u6630
  1888  000FE2                     u6631:
  1889  000FE2  EF00  F008         	goto	l7247
  1890  000FE6                     u6630:
  1891  000FE6  A069               	btfss	105,0,c	;volatile
  1892  000FE8  EFF8  F007         	goto	u6641
  1893  000FEC  EFFA  F007         	goto	u6640
  1894  000FF0                     u6641:
  1895  000FF0  EF00  F008         	goto	l7247
  1896  000FF4                     u6640:
  1897  000FF4                     
  1898                           ;usb_device.c: 670:     {;usb_device.c: 671:         USBDeviceInit();
  1899  000FF4  EC90  F00D         	call	_USBDeviceInit	;wreg free
  1900  000FF8                     
  1901                           ;usb_device.c: 675:         {PIE2bits.USBIE = 1;};
  1902  000FF8  8AA0               	bsf	160,5,c	;volatile
  1903  000FFA                     
  1904                           ;usb_device.c: 677:         USBDeviceState = DEFAULT_STATE;
  1905  000FFA  0E04               	movlw	4
  1906  000FFC  6E29               	movwf	_USBDeviceState^0,c	;volatile
  1907  000FFE                     
  1908                           ;usb_device.c: 687:         (UIR &= 0xFE);
  1909  000FFE  9068               	bcf	104,0,c	;volatile
  1910  001000                     l7247:
  1911                           
  1912                           ;usb_device.c: 693:     if(UIRbits.IDLEIF && UIEbits.IDLEIE)
  1913  001000  A868               	btfss	104,4,c	;volatile
  1914  001002  EF05  F008         	goto	u6651
  1915  001006  EF07  F008         	goto	u6650
  1916  00100A                     u6651:
  1917  00100A  EF10  F008         	goto	l7253
  1918  00100E                     u6650:
  1919  00100E  A869               	btfss	105,4,c	;volatile
  1920  001010  EF0C  F008         	goto	u6661
  1921  001014  EF0E  F008         	goto	u6660
  1922  001018                     u6661:
  1923  001018  EF10  F008         	goto	l7253
  1924  00101C                     u6660:
  1925  00101C                     
  1926                           ;usb_device.c: 694:     {;usb_device.c: 700:             USBSuspend();
  1927  00101C  EC43  F020         	call	_USBSuspend	;wreg free
  1928  001020                     l7253:
  1929                           
  1930                           ;usb_device.c: 714:     if(UIRbits.SOFIF)
  1931  001020  AC68               	btfss	104,6,c	;volatile
  1932  001022  EF15  F008         	goto	u6671
  1933  001026  EF17  F008         	goto	u6670
  1934  00102A                     u6671:
  1935  00102A  EF44  F008         	goto	l7271
  1936  00102E                     u6670:
  1937  00102E                     
  1938                           ;usb_device.c: 715:     {;usb_device.c: 717:         if(UIEbits.SOFIE)
  1939  00102E  AC69               	btfss	105,6,c	;volatile
  1940  001030  EF1C  F008         	goto	u6681
  1941  001034  EF1E  F008         	goto	u6680
  1942  001038                     u6681:
  1943  001038  EF2D  F008         	goto	l7259
  1944  00103C                     u6680:
  1945  00103C                     
  1946                           ;usb_device.c: 718:         {;usb_device.c: 719:             USER_USB_CALLBACK_EVENT_HAN
      +                          DLER((USB_EVENT)EVENT_SOF,0,1);
  1947  00103C  0E00               	movlw	0
  1948  00103E  0100               	movlb	0	; () banked
  1949  001040  6FEC               	movwf	(USER_USB_CALLBACK_EVENT_HANDLER@event+1)& (0+255),b
  1950  001042  0E73               	movlw	115
  1951  001044  6FEB               	movwf	USER_USB_CALLBACK_EVENT_HANDLER@event& (0+255),b
  1952  001046  0E00               	movlw	0
  1953  001048  6FED               	movwf	USER_USB_CALLBACK_EVENT_HANDLER@pdata& (0+255),b
  1954  00104A  0E00               	movlw	0
  1955  00104C  6FEE               	movwf	(USER_USB_CALLBACK_EVENT_HANDLER@pdata+1)& (0+255),b
  1956  00104E  0E00               	movlw	0
  1957  001050  6FF0               	movwf	(USER_USB_CALLBACK_EVENT_HANDLER@size+1)& (0+255),b
  1958  001052  0E01               	movlw	1
  1959  001054  6FEF               	movwf	USER_USB_CALLBACK_EVENT_HANDLER@size& (0+255),b
  1960  001056  EC62  F01C         	call	_USER_USB_CALLBACK_EVENT_HANDLER	;wreg free
  1961  00105A                     l7259:
  1962                           
  1963                           ;usb_device.c: 721:         (UIR &= 0xBF);
  1964  00105A  9C68               	bcf	104,6,c	;volatile
  1965  00105C                     
  1966                           ;usb_device.c: 724:             USBIncrement1msInternalTimers();
  1967  00105C  ECF7  F01F         	call	_USBIncrement1msInternalTimers	;wreg free
  1968  001060                     
  1969                           ;usb_device.c: 741:             if(USBStatusStageTimeoutCounter != 0u)
  1970  001060  0100               	movlb	0	; () banked
  1971  001062  51CA               	movf	_USBStatusStageTimeoutCounter& (0+255),w,b	;volatile
  1972  001064  B4D8               	btfsc	status,2,c
  1973  001066  EF37  F008         	goto	u6691
  1974  00106A  EF39  F008         	goto	u6690
  1975  00106E                     u6691:
  1976  00106E  EF3A  F008         	goto	l7267
  1977  001072                     u6690:
  1978  001072                     
  1979                           ; BSR set to: 0
  1980                           ;usb_device.c: 742:             {;usb_device.c: 743:                 USBStatusStageTimeo
      +                          utCounter--;
  1981  001072  07CA               	decf	_USBStatusStageTimeoutCounter& (0+255),f,b	;volatile
  1982  001074                     l7267:
  1983                           
  1984                           ; BSR set to: 0
  1985                           ;usb_device.c: 750:             if(USBStatusStageTimeoutCounter == 0)
  1986  001074  51CA               	movf	_USBStatusStageTimeoutCounter& (0+255),w,b	;volatile
  1987  001076  A4D8               	btfss	status,2,c
  1988  001078  EF40  F008         	goto	u6701
  1989  00107C  EF42  F008         	goto	u6700
  1990  001080                     u6701:
  1991  001080  EF44  F008         	goto	l7271
  1992  001084                     u6700:
  1993  001084                     
  1994                           ; BSR set to: 0
  1995                           ;usb_device.c: 751:             {;usb_device.c: 752:                 USBCtrlEPAllowStatu
      +                          sStage();
  1996  001084  ECE1  F017         	call	_USBCtrlEPAllowStatusStage	;wreg free
  1997  001088                     l7271:
  1998                           
  1999                           ;usb_device.c: 757:     if(UIRbits.STALLIF && UIEbits.STALLIE)
  2000  001088  AA68               	btfss	104,5,c	;volatile
  2001  00108A  EF49  F008         	goto	u6711
  2002  00108E  EF4B  F008         	goto	u6710
  2003  001092                     u6711:
  2004  001092  EF54  F008         	goto	l7277
  2005  001096                     u6710:
  2006  001096  AA69               	btfss	105,5,c	;volatile
  2007  001098  EF50  F008         	goto	u6721
  2008  00109C  EF52  F008         	goto	u6720
  2009  0010A0                     u6721:
  2010  0010A0  EF54  F008         	goto	l7277
  2011  0010A4                     u6720:
  2012  0010A4                     
  2013                           ;usb_device.c: 758:     {;usb_device.c: 759:         USBStallHandler();
  2014  0010A4  EC28  F01E         	call	_USBStallHandler	;wreg free
  2015  0010A8                     l7277:
  2016                           
  2017                           ;usb_device.c: 762:     if(UIRbits.UERRIF && UIEbits.UERRIE)
  2018  0010A8  A268               	btfss	104,1,c	;volatile
  2019  0010AA  EF59  F008         	goto	u6731
  2020  0010AE  EF5B  F008         	goto	u6730
  2021  0010B2                     u6731:
  2022  0010B2  EF72  F008         	goto	l7285
  2023  0010B6                     u6730:
  2024  0010B6  A269               	btfss	105,1,c	;volatile
  2025  0010B8  EF60  F008         	goto	u6741
  2026  0010BC  EF62  F008         	goto	u6740
  2027  0010C0                     u6741:
  2028  0010C0  EF72  F008         	goto	l7285
  2029  0010C4                     u6740:
  2030  0010C4                     
  2031                           ;usb_device.c: 763:     {;usb_device.c: 764:         USER_USB_CALLBACK_EVENT_HANDLER((US
      +                          B_EVENT)EVENT_BUS_ERROR,0,1);
  2032  0010C4  0E7F               	movlw	127
  2033  0010C6  0100               	movlb	0	; () banked
  2034  0010C8  6FEC               	movwf	(USER_USB_CALLBACK_EVENT_HANDLER@event+1)& (0+255),b
  2035  0010CA  69EB               	setf	USER_USB_CALLBACK_EVENT_HANDLER@event& (0+255),b
  2036  0010CC  0E00               	movlw	0
  2037  0010CE  6FED               	movwf	USER_USB_CALLBACK_EVENT_HANDLER@pdata& (0+255),b
  2038  0010D0  0E00               	movlw	0
  2039  0010D2  6FEE               	movwf	(USER_USB_CALLBACK_EVENT_HANDLER@pdata+1)& (0+255),b
  2040  0010D4  0E00               	movlw	0
  2041  0010D6  6FF0               	movwf	(USER_USB_CALLBACK_EVENT_HANDLER@size+1)& (0+255),b
  2042  0010D8  0E01               	movlw	1
  2043  0010DA  6FEF               	movwf	USER_USB_CALLBACK_EVENT_HANDLER@size& (0+255),b
  2044  0010DC  EC62  F01C         	call	_USER_USB_CALLBACK_EVENT_HANDLER	;wreg free
  2045  0010E0                     
  2046                           ;usb_device.c: 765:         {UEIR = 0;};
  2047  0010E0  0E00               	movlw	0
  2048  0010E2  6E6A               	movwf	106,c	;volatile
  2049  0010E4                     l7285:
  2050                           
  2051                           ;usb_device.c: 780:     if(USBDeviceState < DEFAULT_STATE)
  2052  0010E4  0E04               	movlw	4
  2053  0010E6  6029               	cpfslt	_USBDeviceState^0,c	;volatile
  2054  0010E8  EF78  F008         	goto	u6751
  2055  0010EC  EF7A  F008         	goto	u6750
  2056  0010F0                     u6751:
  2057  0010F0  EF7D  F008         	goto	l267
  2058  0010F4                     u6750:
  2059  0010F4                     
  2060                           ;usb_device.c: 781:     {;usb_device.c: 782:         {PIR2bits.USBIF = 0;};
  2061  0010F4  9AA1               	bcf	161,5,c	;volatile
  2062                           
  2063                           ;usb_device.c: 783:         return;
  2064  0010F6  EFD2  F008         	goto	l258
  2065  0010FA                     l267:
  2066                           
  2067                           ;usb_device.c: 789:     if(UIEbits.TRNIE)
  2068  0010FA  A669               	btfss	105,3,c	;volatile
  2069  0010FC  EF82  F008         	goto	u6761
  2070  001100  EF84  F008         	goto	u6760
  2071  001104                     u6761:
  2072  001104  EFD1  F008         	goto	l268
  2073  001108                     u6760:
  2074  001108                     
  2075                           ;usb_device.c: 790:     {;usb_device.c: 791:         for(i = 0; i < 4u; i++)
  2076  001108  0E00               	movlw	0
  2077  00110A  0100               	movlb	0	; () banked
  2078  00110C  6FF8               	movwf	USBDeviceTasks@i& (0+255),b
  2079  00110E                     l269:
  2080                           
  2081                           ; BSR set to: 0
  2082                           ;usb_device.c: 792:         {;usb_device.c: 793:             if(UIRbits.TRNIF)
  2083  00110E  A668               	btfss	104,3,c	;volatile
  2084  001110  EF8C  F008         	goto	u6771
  2085  001114  EF8E  F008         	goto	u6770
  2086  001118                     u6771:
  2087  001118  EFD1  F008         	goto	l268
  2088  00111C                     u6770:
  2089  00111C                     
  2090                           ; BSR set to: 0
  2091                           ;usb_device.c: 794:             {;usb_device.c: 796:                 USTATcopy.Val = UST
      +                          AT;
  2092  00111C  CF6C F0DE          	movff	3948,_USTATcopy	;volatile
  2093  001120                     
  2094                           ; BSR set to: 0
  2095                           ;usb_device.c: 797:                 endpoint_number = USTATcopy.endpoint_number;
  2096  001120  31DE               	rrcf	_USTATcopy& (0+255),w,b	;volatile
  2097  001122  32E8               	rrcf	wreg,f,c
  2098  001124  32E8               	rrcf	wreg,f,c
  2099  001126  0B0F               	andlw	15
  2100  001128  6FCB               	movwf	_endpoint_number& (0+255),b	;volatile
  2101  00112A                     
  2102                           ; BSR set to: 0
  2103                           ;usb_device.c: 799:                 (UIR &= 0xF7);
  2104  00112A  9668               	bcf	104,3,c	;volatile
  2105  00112C                     
  2106                           ; BSR set to: 0
  2107                           ;usb_device.c: 804:                 if(USTATcopy.direction == 0)
  2108  00112C  B5DE               	btfsc	_USTATcopy& (0+255),2,b	;volatile
  2109  00112E  EF9B  F008         	goto	u6781
  2110  001132  EF9D  F008         	goto	u6780
  2111  001136                     u6781:
  2112  001136  EFA6  F008         	goto	l7305
  2113  00113A                     u6780:
  2114  00113A                     
  2115                           ; BSR set to: 0
  2116                           ;usb_device.c: 805:                 {;usb_device.c: 806:                     ep_data_out
      +                          [endpoint_number].bits.ping_pong_state ^= 1;
  2117  00113A  0E15               	movlw	low _ep_data_out
  2118  00113C  25CB               	addwf	_endpoint_number& (0+255),w,b	;volatile
  2119  00113E  6ED9               	movwf	fsr2l,c
  2120  001140  6ADA               	clrf	fsr2h,c
  2121  001142  0E00               	movlw	high _ep_data_out
  2122  001144  22DA               	addwfc	fsr2h,f,c
  2123  001146  70DF               	btg	indf2,0,c
  2124                           
  2125                           ;usb_device.c: 807:                 }
  2126  001148  EFAD  F008         	goto	l7307
  2127  00114C                     l7305:
  2128                           
  2129                           ; BSR set to: 0
  2130                           ;usb_device.c: 809:                 {;usb_device.c: 810:                     ep_data_in[
      +                          endpoint_number].bits.ping_pong_state ^= 1;
  2131  00114C  0E18               	movlw	low _ep_data_in
  2132  00114E  25CB               	addwf	_endpoint_number& (0+255),w,b	;volatile
  2133  001150  6ED9               	movwf	fsr2l,c
  2134  001152  6ADA               	clrf	fsr2h,c
  2135  001154  0E00               	movlw	high _ep_data_in
  2136  001156  22DA               	addwfc	fsr2h,f,c
  2137  001158  70DF               	btg	indf2,0,c
  2138  00115A                     l7307:
  2139                           
  2140                           ; BSR set to: 0
  2141                           ;usb_device.c: 816:                 if(endpoint_number == 0)
  2142  00115A  51CB               	movf	_endpoint_number& (0+255),w,b	;volatile
  2143  00115C  A4D8               	btfss	status,2,c
  2144  00115E  EFB3  F008         	goto	u6791
  2145  001162  EFB5  F008         	goto	u6790
  2146  001166                     u6791:
  2147  001166  EFB9  F008         	goto	l7311
  2148  00116A                     u6790:
  2149  00116A                     
  2150                           ; BSR set to: 0
  2151                           ;usb_device.c: 817:                 {;usb_device.c: 818:                     USBCtrlEPSe
      +                          rvice();
  2152  00116A  ECBB  F019         	call	_USBCtrlEPService	;wreg free
  2153                           
  2154                           ;usb_device.c: 819:                 }
  2155  00116E  EFC7  F008         	goto	l7313
  2156  001172                     l7311:
  2157                           
  2158                           ; BSR set to: 0
  2159                           ;usb_device.c: 821:                 {;usb_device.c: 822:                     USER_USB_CA
      +                          LLBACK_EVENT_HANDLER((USB_EVENT)EVENT_TRANSFER,(uint8_t*)&USTATcopy.Val,0);
  2160  001172  0E00               	movlw	0
  2161  001174  6FEC               	movwf	(USER_USB_CALLBACK_EVENT_HANDLER@event+1)& (0+255),b
  2162  001176  0E72               	movlw	114
  2163  001178  6FEB               	movwf	USER_USB_CALLBACK_EVENT_HANDLER@event& (0+255),b
  2164  00117A  0EDE               	movlw	low _USTATcopy
  2165  00117C  6FED               	movwf	USER_USB_CALLBACK_EVENT_HANDLER@pdata& (0+255),b
  2166  00117E  0E00               	movlw	high _USTATcopy
  2167  001180  6FEE               	movwf	(USER_USB_CALLBACK_EVENT_HANDLER@pdata+1)& (0+255),b
  2168  001182  0E00               	movlw	0
  2169  001184  6FF0               	movwf	(USER_USB_CALLBACK_EVENT_HANDLER@size+1)& (0+255),b
  2170  001186  0E00               	movlw	0
  2171  001188  6FEF               	movwf	USER_USB_CALLBACK_EVENT_HANDLER@size& (0+255),b
  2172  00118A  EC62  F01C         	call	_USER_USB_CALLBACK_EVENT_HANDLER	;wreg free
  2173  00118E                     l7313:
  2174                           
  2175                           ;usb_device.c: 829:         }
  2176  00118E  0100               	movlb	0	; () banked
  2177  001190  2BF8               	incf	USBDeviceTasks@i& (0+255),f,b
  2178  001192                     
  2179                           ; BSR set to: 0
  2180  001192  0E03               	movlw	3
  2181  001194  65F8               	cpfsgt	USBDeviceTasks@i& (0+255),b
  2182  001196  EFCF  F008         	goto	u6801
  2183  00119A  EFD1  F008         	goto	u6800
  2184  00119E                     u6801:
  2185  00119E  EF87  F008         	goto	l269
  2186  0011A2                     u6800:
  2187  0011A2                     l268:
  2188                           
  2189                           ;usb_device.c: 832:     {PIR2bits.USBIF = 0;};
  2190  0011A2  9AA1               	bcf	161,5,c	;volatile
  2191  0011A4                     l258:
  2192  0011A4  0012               	return		;funcret
  2193  0011A6                     __end_of_USBDeviceTasks:
  2194                           	opt callstack 0
  2195                           
  2196 ;; *************** function _USBWakeFromSuspend *****************
  2197 ;; Defined at:
  2198 ;;		line 2309 in file "usb_device.c"
  2199 ;; Parameters:    Size  Location     Type
  2200 ;;		None
  2201 ;; Auto vars:     Size  Location     Type
  2202 ;;		None
  2203 ;; Return value:  Size  Location     Type
  2204 ;;                  1    wreg      void 
  2205 ;; Registers used:
  2206 ;;		wreg, fsr2l, fsr2h, status,2, status,0, prodl, prodh, cstack
  2207 ;; Tracked objects:
  2208 ;;		On entry : 0/0
  2209 ;;		On exit  : 0/0
  2210 ;;		Unchanged: 0/0
  2211 ;; Data sizes:     COMRAM   BANK0   BANK1   BANK2   BANK3  BANK4h  BANK4l   BANK5   BANK6   BANK7
  2212 ;;      Params:         0       0       0       0       0       0       0       0       0       0
  2213 ;;      Locals:         0       0       0       0       0       0       0       0       0       0
  2214 ;;      Temps:          0       0       0       0       0       0       0       0       0       0
  2215 ;;      Totals:         0       0       0       0       0       0       0       0       0       0
  2216 ;;Total ram usage:        0 bytes
  2217 ;; Hardware stack levels used:    1
  2218 ;; Hardware stack levels required when called:   15
  2219 ;; This function calls:
  2220 ;;		_USER_USB_CALLBACK_EVENT_HANDLER
  2221 ;; This function is called by:
  2222 ;;		_USBDeviceTasks
  2223 ;; This function uses a non-reentrant model
  2224 ;;
  2225                           
  2226                           	psect	text10
  2227  003F34                     __ptext10:
  2228                           	opt callstack 0
  2229  003F34                     _USBWakeFromSuspend:
  2230                           	opt callstack 14
  2231  003F34                     
  2232                           ;usb_device.c: 2311:     USBBusIsSuspended = 0;
  2233  003F34  0E00               	movlw	0
  2234  003F36  6E25               	movwf	_USBBusIsSuspended^0,c	;volatile
  2235  003F38                     
  2236                           ;usb_device.c: 2317:     USER_USB_CALLBACK_EVENT_HANDLER((USB_EVENT)EVENT_RESUME,0,0);
  2237  003F38  0E00               	movlw	0
  2238  003F3A  0100               	movlb	0	; () banked
  2239  003F3C  6FEC               	movwf	(USER_USB_CALLBACK_EVENT_HANDLER@event+1)& (0+255),b
  2240  003F3E  0E74               	movlw	116
  2241  003F40  6FEB               	movwf	USER_USB_CALLBACK_EVENT_HANDLER@event& (0+255),b
  2242  003F42  0E00               	movlw	0
  2243  003F44  6FED               	movwf	USER_USB_CALLBACK_EVENT_HANDLER@pdata& (0+255),b
  2244  003F46  0E00               	movlw	0
  2245  003F48  6FEE               	movwf	(USER_USB_CALLBACK_EVENT_HANDLER@pdata+1)& (0+255),b
  2246  003F4A  0E00               	movlw	0
  2247  003F4C  6FF0               	movwf	(USER_USB_CALLBACK_EVENT_HANDLER@size+1)& (0+255),b
  2248  003F4E  0E00               	movlw	0
  2249  003F50  6FEF               	movwf	USER_USB_CALLBACK_EVENT_HANDLER@size& (0+255),b
  2250  003F52  EC62  F01C         	call	_USER_USB_CALLBACK_EVENT_HANDLER	;wreg free
  2251  003F56                     
  2252                           ;usb_device.c: 2324:         UCONbits.SUSPND = 0;
  2253  003F56  926D               	bcf	109,1,c	;volatile
  2254  003F58                     
  2255                           ;usb_device.c: 2329:     UIEbits.ACTVIE = 0;
  2256  003F58  9469               	bcf	105,2,c	;volatile
  2257                           
  2258                           ;usb_device.c: 2347:     while(UIRbits.ACTVIF)
  2259  003F5A  EFB0  F01F         	goto	l7149
  2260  003F5E                     l7147:
  2261                           
  2262                           ;usb_device.c: 2349:     {;usb_device.c: 2350:         (UIR &= 0xFB);
  2263  003F5E  9468               	bcf	104,2,c	;volatile
  2264  003F60                     l7149:
  2265                           
  2266                           ;usb_device.c: 2347:     while(UIRbits.ACTVIF)
  2267  003F60  B468               	btfsc	104,2,c	;volatile
  2268  003F62  EFB5  F01F         	goto	u6491
  2269  003F66  EFB7  F01F         	goto	u6490
  2270  003F6A                     u6491:
  2271  003F6A  EFAF  F01F         	goto	l7147
  2272  003F6E                     u6490:
  2273  003F6E                     
  2274                           ;usb_device.c: 2353:     USBTicksSinceSuspendEnd = 0;
  2275  003F6E  0E00               	movlw	0
  2276  003F70  0100               	movlb	0	; () banked
  2277  003F72  6FC8               	movwf	_USBTicksSinceSuspendEnd& (0+255),b	;volatile
  2278  003F74                     
  2279                           ; BSR set to: 0
  2280  003F74  0012               	return		;funcret
  2281  003F76                     __end_of_USBWakeFromSuspend:
  2282                           	opt callstack 0
  2283                           
  2284 ;; *************** function _USBSuspend *****************
  2285 ;; Defined at:
  2286 ;;		line 2251 in file "usb_device.c"
  2287 ;; Parameters:    Size  Location     Type
  2288 ;;		None
  2289 ;; Auto vars:     Size  Location     Type
  2290 ;;		None
  2291 ;; Return value:  Size  Location     Type
  2292 ;;                  1    wreg      void 
  2293 ;; Registers used:
  2294 ;;		wreg, fsr2l, fsr2h, status,2, status,0, prodl, prodh, cstack
  2295 ;; Tracked objects:
  2296 ;;		On entry : 0/0
  2297 ;;		On exit  : 0/0
  2298 ;;		Unchanged: 0/0
  2299 ;; Data sizes:     COMRAM   BANK0   BANK1   BANK2   BANK3  BANK4h  BANK4l   BANK5   BANK6   BANK7
  2300 ;;      Params:         0       0       0       0       0       0       0       0       0       0
  2301 ;;      Locals:         0       0       0       0       0       0       0       0       0       0
  2302 ;;      Temps:          0       0       0       0       0       0       0       0       0       0
  2303 ;;      Totals:         0       0       0       0       0       0       0       0       0       0
  2304 ;;Total ram usage:        0 bytes
  2305 ;; Hardware stack levels used:    1
  2306 ;; Hardware stack levels required when called:   15
  2307 ;; This function calls:
  2308 ;;		_USER_USB_CALLBACK_EVENT_HANDLER
  2309 ;; This function is called by:
  2310 ;;		_USBDeviceTasks
  2311 ;; This function uses a non-reentrant model
  2312 ;;
  2313                           
  2314                           	psect	text11
  2315  004086                     __ptext11:
  2316                           	opt callstack 0
  2317  004086                     _USBSuspend:
  2318                           	opt callstack 14
  2319  004086                     
  2320                           ;usb_device.c: 2276:     UIEbits.ACTVIE = 1;
  2321  004086  8469               	bsf	105,2,c	;volatile
  2322  004088                     
  2323                           ;usb_device.c: 2277:     (UIR &= 0xEF);
  2324  004088  9868               	bcf	104,4,c	;volatile
  2325  00408A                     
  2326                           ;usb_device.c: 2280:         UCONbits.SUSPND = 1;
  2327  00408A  826D               	bsf	109,1,c	;volatile
  2328  00408C                     
  2329                           ;usb_device.c: 2283:     USBBusIsSuspended = 1;
  2330  00408C  0E01               	movlw	1
  2331  00408E  6E25               	movwf	_USBBusIsSuspended^0,c	;volatile
  2332  004090                     
  2333                           ;usb_device.c: 2284:     USBTicksSinceSuspendEnd = 0;
  2334  004090  0E00               	movlw	0
  2335  004092  0100               	movlb	0	; () banked
  2336  004094  6FC8               	movwf	_USBTicksSinceSuspendEnd& (0+255),b	;volatile
  2337  004096                     
  2338                           ; BSR set to: 0
  2339                           ;usb_device.c: 2291:     USER_USB_CALLBACK_EVENT_HANDLER((USB_EVENT)EVENT_SUSPEND,0,0);
  2340  004096  0E00               	movlw	0
  2341  004098  6FEC               	movwf	(USER_USB_CALLBACK_EVENT_HANDLER@event+1)& (0+255),b
  2342  00409A  0E75               	movlw	117
  2343  00409C  6FEB               	movwf	USER_USB_CALLBACK_EVENT_HANDLER@event& (0+255),b
  2344  00409E  0E00               	movlw	0
  2345  0040A0  6FED               	movwf	USER_USB_CALLBACK_EVENT_HANDLER@pdata& (0+255),b
  2346  0040A2  0E00               	movlw	0
  2347  0040A4  6FEE               	movwf	(USER_USB_CALLBACK_EVENT_HANDLER@pdata+1)& (0+255),b
  2348  0040A6  0E00               	movlw	0
  2349  0040A8  6FF0               	movwf	(USER_USB_CALLBACK_EVENT_HANDLER@size+1)& (0+255),b
  2350  0040AA  0E00               	movlw	0
  2351  0040AC  6FEF               	movwf	USER_USB_CALLBACK_EVENT_HANDLER@size& (0+255),b
  2352  0040AE  EC62  F01C         	call	_USER_USB_CALLBACK_EVENT_HANDLER	;wreg free
  2353  0040B2  0012               	return		;funcret
  2354  0040B4                     __end_of_USBSuspend:
  2355                           	opt callstack 0
  2356                           
  2357 ;; *************** function _USBStallHandler *****************
  2358 ;; Defined at:
  2359 ;;		line 2208 in file "usb_device.c"
  2360 ;; Parameters:    Size  Location     Type
  2361 ;;		None
  2362 ;; Auto vars:     Size  Location     Type
  2363 ;;		None
  2364 ;; Return value:  Size  Location     Type
  2365 ;;                  1    wreg      void 
  2366 ;; Registers used:
  2367 ;;		wreg, fsr2l, fsr2h, status,2, status,0
  2368 ;; Tracked objects:
  2369 ;;		On entry : 0/0
  2370 ;;		On exit  : 0/0
  2371 ;;		Unchanged: 0/0
  2372 ;; Data sizes:     COMRAM   BANK0   BANK1   BANK2   BANK3  BANK4h  BANK4l   BANK5   BANK6   BANK7
  2373 ;;      Params:         0       0       0       0       0       0       0       0       0       0
  2374 ;;      Locals:         0       0       0       0       0       0       0       0       0       0
  2375 ;;      Temps:          0       1       0       0       0       0       0       0       0       0
  2376 ;;      Totals:         0       1       0       0       0       0       0       0       0       0
  2377 ;;Total ram usage:        1 bytes
  2378 ;; Hardware stack levels used:    1
  2379 ;; Hardware stack levels required when called:   11
  2380 ;; This function calls:
  2381 ;;		Nothing
  2382 ;; This function is called by:
  2383 ;;		_USBDeviceTasks
  2384 ;; This function uses a non-reentrant model
  2385 ;;
  2386                           
  2387                           	psect	text12
  2388  003C50                     __ptext12:
  2389                           	opt callstack 0
  2390  003C50                     _USBStallHandler:
  2391                           	opt callstack 18
  2392  003C50                     
  2393                           ;usb_device.c: 2220:     if(UEP0bits.EPSTALL == 1)
  2394  003C50  A070               	btfss	112,0,c	;volatile
  2395  003C52  EF2D  F01E         	goto	u6521
  2396  003C56  EF2F  F01E         	goto	u6520
  2397  003C5A                     u6521:
  2398  003C5A  EF56  F01E         	goto	l407
  2399  003C5E                     u6520:
  2400  003C5E                     
  2401                           ;usb_device.c: 2221:     {;usb_device.c: 2223:         if((pBDTEntryEP0OutCurrent->STAT.
      +                          Val == 0x80) && (pBDTEntryIn[0]->STAT.Val == (0x80|0x04)))
  2402  003C5E  C01D  FFD9         	movff	_pBDTEntryEP0OutCurrent,fsr2l
  2403  003C62  C01E  FFDA         	movff	_pBDTEntryEP0OutCurrent+1,fsr2h
  2404  003C66  0E80               	movlw	128
  2405  003C68  18DE               	xorwf	postinc2,w,c
  2406  003C6A  A4D8               	btfss	status,2,c
  2407  003C6C  EF3A  F01E         	goto	u6531
  2408  003C70  EF3C  F01E         	goto	u6530
  2409  003C74                     u6531:
  2410  003C74  EF55  F01E         	goto	l7185
  2411  003C78                     u6530:
  2412  003C78  C00F  FFD9         	movff	_pBDTEntryIn,fsr2l
  2413  003C7C  C010  FFDA         	movff	_pBDTEntryIn+1,fsr2h
  2414  003C80  0E84               	movlw	132
  2415  003C82  18DE               	xorwf	postinc2,w,c
  2416  003C84  A4D8               	btfss	status,2,c
  2417  003C86  EF47  F01E         	goto	u6541
  2418  003C8A  EF49  F01E         	goto	u6540
  2419  003C8E                     u6541:
  2420  003C8E  EF55  F01E         	goto	l7185
  2421  003C92                     u6540:
  2422  003C92                     
  2423                           ;usb_device.c: 2224:         {;usb_device.c: 2226:             pBDTEntryEP0OutCurrent->S
      +                          TAT.Val = 0x00|(0x08 & 0x08)|0x04;
  2424  003C92  C01D  FFD9         	movff	_pBDTEntryEP0OutCurrent,fsr2l
  2425  003C96  C01E  FFDA         	movff	_pBDTEntryEP0OutCurrent+1,fsr2h
  2426  003C9A  0E0C               	movlw	12
  2427  003C9C  6EDF               	movwf	indf2,c
  2428  003C9E                     
  2429                           ;usb_device.c: 2227:             pBDTEntryEP0OutCurrent->STAT.Val |= 0x80;
  2430  003C9E  C01D  FFD9         	movff	_pBDTEntryEP0OutCurrent,fsr2l
  2431  003CA2  C01E  FFDA         	movff	_pBDTEntryEP0OutCurrent+1,fsr2h
  2432  003CA6  0E00               	movlw	0
  2433  003CA8  8EDB               	bsf	plusw2,7,c
  2434  003CAA                     l7185:
  2435                           
  2436                           ;usb_device.c: 2229:         UEP0bits.EPSTALL = 0;
  2437  003CAA  9070               	bcf	112,0,c	;volatile
  2438  003CAC                     l407:
  2439                           
  2440                           ;usb_device.c: 2232:     (UIR &= 0xDF);
  2441  003CAC  9A68               	bcf	104,5,c	;volatile
  2442  003CAE  0012               	return		;funcret
  2443  003CB0                     __end_of_USBStallHandler:
  2444                           	opt callstack 0
  2445                           
  2446 ;; *************** function _USBIncrement1msInternalTimers *****************
  2447 ;; Defined at:
  2448 ;;		line 3031 in file "usb_device.c"
  2449 ;; Parameters:    Size  Location     Type
  2450 ;;		None
  2451 ;; Auto vars:     Size  Location     Type
  2452 ;;		None
  2453 ;; Return value:  Size  Location     Type
  2454 ;;                  1    wreg      void 
  2455 ;; Registers used:
  2456 ;;		wreg, status,2, status,0
  2457 ;; Tracked objects:
  2458 ;;		On entry : 0/0
  2459 ;;		On exit  : 0/0
  2460 ;;		Unchanged: 0/0
  2461 ;; Data sizes:     COMRAM   BANK0   BANK1   BANK2   BANK3  BANK4h  BANK4l   BANK5   BANK6   BANK7
  2462 ;;      Params:         0       0       0       0       0       0       0       0       0       0
  2463 ;;      Locals:         0       0       0       0       0       0       0       0       0       0
  2464 ;;      Temps:          0       0       0       0       0       0       0       0       0       0
  2465 ;;      Totals:         0       0       0       0       0       0       0       0       0       0
  2466 ;;Total ram usage:        0 bytes
  2467 ;; Hardware stack levels used:    1
  2468 ;; Hardware stack levels required when called:   11
  2469 ;; This function calls:
  2470 ;;		Nothing
  2471 ;; This function is called by:
  2472 ;;		_USBDeviceTasks
  2473 ;; This function uses a non-reentrant model
  2474 ;;
  2475                           
  2476                           	psect	text13
  2477  003FEE                     __ptext13:
  2478                           	opt callstack 0
  2479  003FEE                     _USBIncrement1msInternalTimers:
  2480                           	opt callstack 18
  2481  003FEE                     
  2482                           ;usb_device.c: 3039:     USB1msTickCount++;
  2483  003FEE  0E01               	movlw	1
  2484  003FF0  0100               	movlb	0	; () banked
  2485  003FF2  27B4               	addwf	_USB1msTickCount& (0+255),f,b	;volatile
  2486  003FF4  0E00               	movlw	0
  2487  003FF6  23B5               	addwfc	(_USB1msTickCount+1)& (0+255),f,b	;volatile
  2488  003FF8  23B6               	addwfc	(_USB1msTickCount+2)& (0+255),f,b	;volatile
  2489  003FFA  23B7               	addwfc	(_USB1msTickCount+3)& (0+255),f,b	;volatile
  2490  003FFC                     
  2491                           ; BSR set to: 0
  2492                           ;usb_device.c: 3040:     if(USBBusIsSuspended == 0)
  2493  003FFC  5025               	movf	_USBBusIsSuspended^0,w,c	;volatile
  2494  003FFE  A4D8               	btfss	status,2,c
  2495  004000  EF04  F020         	goto	u6501
  2496  004004  EF06  F020         	goto	u6500
  2497  004008                     u6501:
  2498  004008  EF10  F020         	goto	l499
  2499  00400C                     u6500:
  2500  00400C                     
  2501                           ; BSR set to: 0
  2502                           ;usb_device.c: 3041:     {;usb_device.c: 3042:         USBTicksSinceSuspendEnd++;
  2503  00400C  2BC8               	incf	_USBTicksSinceSuspendEnd& (0+255),f,b	;volatile
  2504  00400E                     
  2505                           ; BSR set to: 0
  2506                           ;usb_device.c: 3044:         if(USBTicksSinceSuspendEnd == 0)
  2507  00400E  51C8               	movf	_USBTicksSinceSuspendEnd& (0+255),w,b	;volatile
  2508  004010  A4D8               	btfss	status,2,c
  2509  004012  EF0D  F020         	goto	u6511
  2510  004016  EF0F  F020         	goto	u6510
  2511  00401A                     u6511:
  2512  00401A  EF10  F020         	goto	l499
  2513  00401E                     u6510:
  2514  00401E                     
  2515                           ; BSR set to: 0
  2516                           ;usb_device.c: 3045:         {;usb_device.c: 3046:             USBTicksSinceSuspendEnd =
      +                           255;
  2517  00401E  69C8               	setf	_USBTicksSinceSuspendEnd& (0+255),b	;volatile
  2518  004020                     l499:
  2519                           
  2520                           ; BSR set to: 0
  2521  004020  0012               	return		;funcret
  2522  004022                     __end_of_USBIncrement1msInternalTimers:
  2523                           	opt callstack 0
  2524                           
  2525 ;; *************** function _USBDeviceInit *****************
  2526 ;; Defined at:
  2527 ;;		line 281 in file "usb_device.c"
  2528 ;; Parameters:    Size  Location     Type
  2529 ;;		None
  2530 ;; Auto vars:     Size  Location     Type
  2531 ;;  i               1   12[BANK0 ] unsigned char 
  2532 ;; Return value:  Size  Location     Type
  2533 ;;                  1    wreg      void 
  2534 ;; Registers used:
  2535 ;;		wreg, fsr2l, fsr2h, status,2, status,0, prodl, prodh, cstack
  2536 ;; Tracked objects:
  2537 ;;		On entry : 0/0
  2538 ;;		On exit  : 0/0
  2539 ;;		Unchanged: 0/0
  2540 ;; Data sizes:     COMRAM   BANK0   BANK1   BANK2   BANK3  BANK4h  BANK4l   BANK5   BANK6   BANK7
  2541 ;;      Params:         0       0       0       0       0       0       0       0       0       0
  2542 ;;      Locals:         0       1       0       0       0       0       0       0       0       0
  2543 ;;      Temps:          0       0       0       0       0       0       0       0       0       0
  2544 ;;      Totals:         0       1       0       0       0       0       0       0       0       0
  2545 ;;Total ram usage:        1 bytes
  2546 ;; Hardware stack levels used:    1
  2547 ;; Hardware stack levels required when called:   12
  2548 ;; This function calls:
  2549 ;;		_memset
  2550 ;; This function is called by:
  2551 ;;		_initUSBLib
  2552 ;;		_USBDeviceTasks
  2553 ;; This function uses a non-reentrant model
  2554 ;;
  2555                           
  2556                           	psect	text14
  2557  001B20                     __ptext14:
  2558                           	opt callstack 0
  2559  001B20                     _USBDeviceInit:
  2560                           	opt callstack 17
  2561  001B20                     
  2562                           ;usb_device.c: 283:     uint8_t i;;usb_device.c: 285:     {PIE2bits.USBIE = 0;};
  2563  001B20  9AA0               	bcf	160,5,c	;volatile
  2564  001B22                     
  2565                           ;usb_device.c: 292:     {UEIR = 0;};
  2566  001B22  0E00               	movlw	0
  2567  001B24  6E6A               	movwf	106,c	;volatile
  2568                           
  2569                           ;usb_device.c: 295:     {UIR = 0;};
  2570  001B26  0E00               	movlw	0
  2571  001B28  6E68               	movwf	104,c	;volatile
  2572                           
  2573                           ;usb_device.c: 298:     UEP0 = 0;
  2574  001B2A  0E00               	movlw	0
  2575  001B2C  6E70               	movwf	112,c	;volatile
  2576  001B2E                     
  2577                           ;usb_device.c: 300:     memset((void*)&UEP1,0x00,(2));;
  2578  001B2E  0E71               	movlw	113
  2579  001B30  0100               	movlb	0	; () banked
  2580  001B32  6FDF               	movwf	memset@dest& (0+255),b
  2581  001B34  0E0F               	movlw	15
  2582  001B36  6FE0               	movwf	(memset@dest+1)& (0+255),b
  2583  001B38  0E00               	movlw	0
  2584  001B3A  6FE2               	movwf	(memset@c+1)& (0+255),b
  2585  001B3C  0E00               	movlw	0
  2586  001B3E  6FE1               	movwf	memset@c& (0+255),b
  2587  001B40  0E00               	movlw	0
  2588  001B42  6FE4               	movwf	(memset@n+1)& (0+255),b
  2589  001B44  0E02               	movlw	2
  2590  001B46  6FE3               	movwf	memset@n& (0+255),b
  2591  001B48  ECB3  F00A         	call	_memset	;wreg free
  2592  001B4C                     
  2593                           ;usb_device.c: 302:     { UCFG = 0x10 | 0x00 | 0x04 | 0x02; UEIE = 0x9F; UIE = 0x39 | 0x
      +                          40 | 0x02; };
  2594  001B4C  0E16               	movlw	22
  2595  001B4E  6E6F               	movwf	111,c	;volatile
  2596  001B50  0E9F               	movlw	159
  2597  001B52  6E6B               	movwf	107,c	;volatile
  2598  001B54  0E7B               	movlw	123
  2599  001B56  6E69               	movwf	105,c	;volatile
  2600  001B58                     
  2601                           ;usb_device.c: 311:     for(i = 0; i < (sizeof(BDT)/sizeof(BDT_ENTRY)); i++)
  2602  001B58  0E00               	movlw	0
  2603  001B5A  0100               	movlb	0	; () banked
  2604  001B5C  6FEB               	movwf	USBDeviceInit@i& (0+255),b
  2605  001B5E                     l7071:
  2606                           
  2607                           ; BSR set to: 0
  2608                           ;usb_device.c: 312:     {;usb_device.c: 313:         BDT[i].Val = 0x00;
  2609  001B5E  51EB               	movf	USBDeviceInit@i& (0+255),w,b
  2610  001B60  0D04               	mullw	4
  2611  001B62  0E00               	movlw	0
  2612  001B64  24F3               	addwf	243,w,c
  2613  001B66  6ED9               	movwf	fsr2l,c
  2614  001B68  0E04               	movlw	4
  2615  001B6A  20F4               	addwfc	prodh,w,c
  2616  001B6C  6EDA               	movwf	fsr2h,c
  2617  001B6E  6ADE               	clrf	postinc2,c
  2618  001B70  6ADE               	clrf	postinc2,c
  2619  001B72  6ADE               	clrf	postinc2,c
  2620  001B74  6ADD               	clrf	postdec2,c
  2621  001B76                     
  2622                           ; BSR set to: 0
  2623                           ;usb_device.c: 314:     }
  2624  001B76  2BEB               	incf	USBDeviceInit@i& (0+255),f,b
  2625  001B78                     
  2626                           ; BSR set to: 0
  2627  001B78  0E0B               	movlw	11
  2628  001B7A  65EB               	cpfsgt	USBDeviceInit@i& (0+255),b
  2629  001B7C  EFC2  F00D         	goto	u6441
  2630  001B80  EFC4  F00D         	goto	u6440
  2631  001B84                     u6441:
  2632  001B84  EFAF  F00D         	goto	l7071
  2633  001B88                     u6440:
  2634  001B88                     
  2635                           ; BSR set to: 0
  2636                           ;usb_device.c: 317:     UCONbits.PPBRST = 1;
  2637  001B88  8C6D               	bsf	109,6,c	;volatile
  2638  001B8A                     
  2639                           ; BSR set to: 0
  2640                           ;usb_device.c: 320:     UADDR = 0x00;
  2641  001B8A  0E00               	movlw	0
  2642  001B8C  6E6E               	movwf	110,c	;volatile
  2643  001B8E                     
  2644                           ; BSR set to: 0
  2645                           ;usb_device.c: 323:     UCONbits.PKTDIS = 0;
  2646  001B8E  986D               	bcf	109,4,c	;volatile
  2647  001B90                     
  2648                           ; BSR set to: 0
  2649                           ;usb_device.c: 326:     UCONbits.PPBRST = 0;
  2650  001B90  9C6D               	bcf	109,6,c	;volatile
  2651  001B92                     l7083:
  2652                           
  2653                           ;usb_device.c: 330:     {;usb_device.c: 331:         (UIR &= 0xF7);
  2654  001B92  9668               	bcf	104,3,c	;volatile
  2655  001B94                     
  2656                           ;usb_device.c: 333:         inPipes[0].info.Val = 0;
  2657  001B94  0E00               	movlw	0
  2658  001B96  6E0C               	movwf	(_inPipes+3)^0,c	;volatile
  2659  001B98                     
  2660                           ;usb_device.c: 334:         outPipes[0].info.Val = 0;
  2661  001B98  0E00               	movlw	0
  2662  001B9A  6E04               	movwf	(_outPipes+3)^0,c	;volatile
  2663  001B9C                     
  2664                           ;usb_device.c: 335:         outPipes[0].wCount.Val = 0;
  2665  001B9C  0E00               	movlw	0
  2666  001B9E  6E06               	movwf	(_outPipes+5)^0,c	;volatile
  2667  001BA0  0E00               	movlw	0
  2668  001BA2  6E05               	movwf	(_outPipes+4)^0,c	;volatile
  2669  001BA4                     
  2670                           ;usb_device.c: 336:     }while(UIRbits.TRNIF == 1);
  2671  001BA4  B668               	btfsc	104,3,c	;volatile
  2672  001BA6  EFD7  F00D         	goto	u6451
  2673  001BAA  EFD9  F00D         	goto	u6450
  2674  001BAE                     u6451:
  2675  001BAE  EFC9  F00D         	goto	l7083
  2676  001BB2                     u6450:
  2677  001BB2                     
  2678                           ;usb_device.c: 340:     USBStatusStageEnabledFlag1 = 1;
  2679  001BB2  0E01               	movlw	1
  2680  001BB4  6E22               	movwf	_USBStatusStageEnabledFlag1^0,c	;volatile
  2681                           
  2682                           ;usb_device.c: 341:     USBStatusStageEnabledFlag2 = 1;
  2683  001BB6  0E01               	movlw	1
  2684  001BB8  6E21               	movwf	_USBStatusStageEnabledFlag2^0,c	;volatile
  2685                           
  2686                           ;usb_device.c: 343:     USBDeferINDataStagePackets = 0;
  2687  001BBA  0E00               	movlw	0
  2688  001BBC  6E20               	movwf	_USBDeferINDataStagePackets^0,c	;volatile
  2689                           
  2690                           ;usb_device.c: 344:     USBDeferOUTDataStagePackets = 0;
  2691  001BBE  0E00               	movlw	0
  2692  001BC0  0100               	movlb	0	; () banked
  2693  001BC2  6FC9               	movwf	_USBDeferOUTDataStagePackets& (0+255),b	;volatile
  2694                           
  2695                           ;usb_device.c: 345:     USBBusIsSuspended = 0;
  2696  001BC4  0E00               	movlw	0
  2697  001BC6  6E25               	movwf	_USBBusIsSuspended^0,c	;volatile
  2698                           
  2699                           ;usb_device.c: 349:     for(i = 0; i < (uint8_t)(2 +1u); i++)
  2700  001BC8  0E00               	movlw	0
  2701  001BCA  6FEB               	movwf	USBDeviceInit@i& (0+255),b
  2702  001BCC                     l7099:
  2703                           
  2704                           ; BSR set to: 0
  2705                           ;usb_device.c: 350:     {;usb_device.c: 351:         pBDTEntryIn[i] = 0u;
  2706  001BCC  51EB               	movf	USBDeviceInit@i& (0+255),w,b
  2707  001BCE  0D02               	mullw	2
  2708  001BD0  0E0F               	movlw	low _pBDTEntryIn
  2709  001BD2  24F3               	addwf	243,w,c
  2710  001BD4  6ED9               	movwf	fsr2l,c
  2711  001BD6  0E00               	movlw	high _pBDTEntryIn
  2712  001BD8  20F4               	addwfc	prodh,w,c
  2713  001BDA  6EDA               	movwf	fsr2h,c
  2714  001BDC  0E00               	movlw	0
  2715  001BDE  6EDE               	movwf	postinc2,c
  2716  001BE0  0E00               	movlw	0
  2717  001BE2  6EDD               	movwf	postdec2,c
  2718                           
  2719                           ;usb_device.c: 352:         pBDTEntryOut[i] = 0u;
  2720  001BE4  51EB               	movf	USBDeviceInit@i& (0+255),w,b
  2721  001BE6  0D02               	mullw	2
  2722  001BE8  0EAA               	movlw	low _pBDTEntryOut
  2723  001BEA  24F3               	addwf	243,w,c
  2724  001BEC  6ED9               	movwf	fsr2l,c
  2725  001BEE  0E00               	movlw	high _pBDTEntryOut
  2726  001BF0  20F4               	addwfc	prodh,w,c
  2727  001BF2  6EDA               	movwf	fsr2h,c
  2728  001BF4  0E00               	movlw	0
  2729  001BF6  6EDE               	movwf	postinc2,c
  2730  001BF8  0E00               	movlw	0
  2731  001BFA  6EDD               	movwf	postdec2,c
  2732  001BFC                     
  2733                           ; BSR set to: 0
  2734                           ;usb_device.c: 353:         ep_data_in[i].Val = 0u;
  2735  001BFC  0E18               	movlw	low _ep_data_in
  2736  001BFE  25EB               	addwf	USBDeviceInit@i& (0+255),w,b
  2737  001C00  6ED9               	movwf	fsr2l,c
  2738  001C02  6ADA               	clrf	fsr2h,c
  2739  001C04  0E00               	movlw	high _ep_data_in
  2740  001C06  22DA               	addwfc	fsr2h,f,c
  2741  001C08  0E00               	movlw	0
  2742  001C0A  6EDF               	movwf	indf2,c
  2743  001C0C                     
  2744                           ; BSR set to: 0
  2745                           ;usb_device.c: 354:         ep_data_out[i].Val = 0u;
  2746  001C0C  0E15               	movlw	low _ep_data_out
  2747  001C0E  25EB               	addwf	USBDeviceInit@i& (0+255),w,b
  2748  001C10  6ED9               	movwf	fsr2l,c
  2749  001C12  6ADA               	clrf	fsr2h,c
  2750  001C14  0E00               	movlw	high _ep_data_out
  2751  001C16  22DA               	addwfc	fsr2h,f,c
  2752  001C18  0E00               	movlw	0
  2753  001C1A  6EDF               	movwf	indf2,c
  2754  001C1C                     
  2755                           ; BSR set to: 0
  2756                           ;usb_device.c: 355:     }
  2757  001C1C  2BEB               	incf	USBDeviceInit@i& (0+255),f,b
  2758  001C1E                     
  2759                           ; BSR set to: 0
  2760  001C1E  0E02               	movlw	2
  2761  001C20  65EB               	cpfsgt	USBDeviceInit@i& (0+255),b
  2762  001C22  EF15  F00E         	goto	u6461
  2763  001C26  EF17  F00E         	goto	u6460
  2764  001C2A                     u6461:
  2765  001C2A  EFE6  F00D         	goto	l7099
  2766  001C2E                     u6460:
  2767  001C2E                     
  2768                           ; BSR set to: 0
  2769                           ;usb_device.c: 358:     pBDTEntryIn[0] = (volatile BDT_ENTRY*)&BDT[2];
  2770  001C2E  0E08               	movlw	8
  2771  001C30  6E0F               	movwf	_pBDTEntryIn^0,c
  2772  001C32  0E04               	movlw	4
  2773  001C34  6E10               	movwf	(_pBDTEntryIn+1)^0,c
  2774  001C36                     
  2775                           ; BSR set to: 0
  2776                           ;usb_device.c: 360:     UEP0 = 0x06|0x10;
  2777  001C36  0E16               	movlw	22
  2778  001C38  6E70               	movwf	112,c	;volatile
  2779  001C3A                     
  2780                           ; BSR set to: 0
  2781                           ;usb_device.c: 362:     BDT[0].ADR = ((uint16_t)(&SetupPkt));
  2782  001C3A  0E04               	movlw	4
  2783  001C3C  0104               	movlb	4	; () banked
  2784  001C3E  6F03               	movwf	3,b	;volatile
  2785  001C40  0E30               	movlw	48
  2786  001C42  6F02               	movwf	2,b	;volatile
  2787  001C44                     
  2788                           ; BSR set to: 4
  2789                           ;usb_device.c: 363:     BDT[0].CNT = 32;
  2790  001C44  0E20               	movlw	32
  2791  001C46  6F01               	movwf	1,b	;volatile
  2792  001C48                     
  2793                           ; BSR set to: 4
  2794                           ;usb_device.c: 364:     BDT[0].STAT.Val = 0x00|0x04;
  2795  001C48  0E04               	movlw	4
  2796  001C4A  6F00               	movwf	0,b	;volatile
  2797  001C4C                     
  2798                           ; BSR set to: 4
  2799                           ;usb_device.c: 365:     BDT[0].STAT.Val |= 0x80;
  2800  001C4C  8F00               	bsf	0,7,b	;volatile
  2801  001C4E                     
  2802                           ; BSR set to: 4
  2803                           ;usb_device.c: 368:     USBActiveConfiguration = 0;
  2804  001C4E  0E00               	movlw	0
  2805  001C50  6E2A               	movwf	_USBActiveConfiguration^0,c	;volatile
  2806  001C52                     
  2807                           ; BSR set to: 4
  2808                           ;usb_device.c: 370:     USB1msTickCount = 0;
  2809  001C52  0E00               	movlw	0
  2810  001C54  0100               	movlb	0	; () banked
  2811  001C56  6FB4               	movwf	_USB1msTickCount& (0+255),b	;volatile
  2812  001C58  0E00               	movlw	0
  2813  001C5A  6FB5               	movwf	(_USB1msTickCount+1)& (0+255),b	;volatile
  2814  001C5C  0E00               	movlw	0
  2815  001C5E  6FB6               	movwf	(_USB1msTickCount+2)& (0+255),b	;volatile
  2816  001C60  0E00               	movlw	0
  2817  001C62  6FB7               	movwf	(_USB1msTickCount+3)& (0+255),b	;volatile
  2818  001C64                     
  2819                           ; BSR set to: 0
  2820                           ;usb_device.c: 371:     USBTicksSinceSuspendEnd = 0;
  2821  001C64  0E00               	movlw	0
  2822  001C66  6FC8               	movwf	_USBTicksSinceSuspendEnd& (0+255),b	;volatile
  2823  001C68                     
  2824                           ; BSR set to: 0
  2825                           ;usb_device.c: 374:     USBDeviceState = DETACHED_STATE;
  2826  001C68  0E00               	movlw	0
  2827  001C6A  6E29               	movwf	_USBDeviceState^0,c	;volatile
  2828  001C6C                     
  2829                           ; BSR set to: 0
  2830  001C6C  0012               	return		;funcret
  2831  001C6E                     __end_of_USBDeviceInit:
  2832                           	opt callstack 0
  2833                           
  2834 ;; *************** function _USBCtrlEPService *****************
  2835 ;; Defined at:
  2836 ;;		line 2378 in file "usb_device.c"
  2837 ;; Parameters:    Size  Location     Type
  2838 ;;		None
  2839 ;; Auto vars:     Size  Location     Type
  2840 ;;		None
  2841 ;; Return value:  Size  Location     Type
  2842 ;;                  1    wreg      void 
  2843 ;; Registers used:
  2844 ;;		wreg, fsr1l, fsr1h, fsr2l, fsr2h, status,2, status,0, tblptrl, tblptrh, tblptru, prodl, prodh, cstack
  2845 ;; Tracked objects:
  2846 ;;		On entry : 0/0
  2847 ;;		On exit  : 0/0
  2848 ;;		Unchanged: 0/0
  2849 ;; Data sizes:     COMRAM   BANK0   BANK1   BANK2   BANK3  BANK4h  BANK4l   BANK5   BANK6   BANK7
  2850 ;;      Params:         0       0       0       0       0       0       0       0       0       0
  2851 ;;      Locals:         0       0       0       0       0       0       0       0       0       0
  2852 ;;      Temps:          0       1       0       0       0       0       0       0       0       0
  2853 ;;      Totals:         0       1       0       0       0       0       0       0       0       0
  2854 ;;Total ram usage:        1 bytes
  2855 ;; Hardware stack levels used:    1
  2856 ;; Hardware stack levels required when called:   18
  2857 ;; This function calls:
  2858 ;;		_USBCtrlTrfInHandler
  2859 ;;		_USBCtrlTrfOutHandler
  2860 ;;		_USBCtrlTrfSetupHandler
  2861 ;;		_memcpy
  2862 ;; This function is called by:
  2863 ;;		_USBDeviceTasks
  2864 ;; This function uses a non-reentrant model
  2865 ;;
  2866                           
  2867                           	psect	text15
  2868  003376                     __ptext15:
  2869                           	opt callstack 0
  2870  003376                     _USBCtrlEPService:
  2871                           	opt callstack 11
  2872  003376                     
  2873                           ;usb_device.c: 2384:         USBStatusStageTimeoutCounter = (uint8_t)45;
  2874  003376  0E2D               	movlw	45
  2875  003378  0100               	movlb	0	; () banked
  2876  00337A  6FCA               	movwf	_USBStatusStageTimeoutCounter& (0+255),b	;volatile
  2877  00337C                     
  2878                           ; BSR set to: 0
  2879                           ;usb_device.c: 2388:     if((USTATcopy.Val & ~0x02) == 0x00)
  2880  00337C  C0DE  F0F7         	movff	_USTATcopy,??_USBCtrlEPService	;volatile
  2881  003380  0EFD               	movlw	253
  2882  003382  17F7               	andwf	??_USBCtrlEPService& (0+255),f,b
  2883  003384  A4D8               	btfss	status,2,c
  2884  003386  EFC7  F019         	goto	u6551
  2885  00338A  EFC9  F019         	goto	u6550
  2886  00338E                     u6551:
  2887  00338E  EF0B  F01A         	goto	l7205
  2888  003392                     u6550:
  2889  003392                     
  2890                           ; BSR set to: 0
  2891                           ;usb_device.c: 2389:     {;usb_device.c: 2392:             pBDTEntryEP0OutCurrent = (vol
      +                          atile BDT_ENTRY*)&BDT[(USTATcopy.Val & 0x7E)>>1];
  2892  003392  C0DE  F0F7         	movff	_USTATcopy,??_USBCtrlEPService	;volatile
  2893  003396  90D8               	bcf	status,0,c
  2894  003398  33F7               	rrcf	??_USBCtrlEPService& (0+255),f,b
  2895  00339A  0E3F               	movlw	63
  2896  00339C  17F7               	andwf	??_USBCtrlEPService& (0+255),f,b
  2897  00339E  51F7               	movf	??_USBCtrlEPService& (0+255),w,b
  2898  0033A0  0D04               	mullw	4
  2899  0033A2  0E00               	movlw	0
  2900  0033A4  24F3               	addwf	243,w,c
  2901  0033A6  6E1D               	movwf	_pBDTEntryEP0OutCurrent^0,c
  2902  0033A8  0E04               	movlw	4
  2903  0033AA  20F4               	addwfc	prodh,w,c
  2904  0033AC  6E1E               	movwf	(_pBDTEntryEP0OutCurrent+1)^0,c
  2905  0033AE                     
  2906                           ; BSR set to: 0
  2907                           ;usb_device.c: 2400:         pBDTEntryEP0OutNext = pBDTEntryEP0OutCurrent;
  2908  0033AE  C01D  F01B         	movff	_pBDTEntryEP0OutCurrent,_pBDTEntryEP0OutNext
  2909  0033B2  C01E  F01C         	movff	_pBDTEntryEP0OutCurrent+1,_pBDTEntryEP0OutNext+1
  2910  0033B6                     
  2911                           ; BSR set to: 0
  2912                           ;usb_device.c: 2402:         pBDTEntryEP0OutNext = (volatile BDT_ENTRY*)(((uint16_t)pBDT
      +                          EntryEP0OutNext) ^ 0x0004);
  2913  0033B6  0E04               	movlw	4
  2914  0033B8  181B               	xorwf	_pBDTEntryEP0OutNext^0,w,c
  2915  0033BA  6E1B               	movwf	_pBDTEntryEP0OutNext^0,c
  2916  0033BC  501C               	movf	(_pBDTEntryEP0OutNext+1)^0,w,c
  2917  0033BE  6E1C               	movwf	(_pBDTEntryEP0OutNext+1)^0,c
  2918  0033C0                     
  2919                           ; BSR set to: 0
  2920                           ;usb_device.c: 2405:         if(pBDTEntryEP0OutCurrent->STAT.PID == 0xD)
  2921  0033C0  C01D  FFD9         	movff	_pBDTEntryEP0OutCurrent,fsr2l
  2922  0033C4  C01E  FFDA         	movff	_pBDTEntryEP0OutCurrent+1,fsr2h
  2923  0033C8  30DF               	rrcf	indf2,w,c
  2924  0033CA  32E8               	rrcf	wreg,f,c
  2925  0033CC  0B0F               	andlw	15
  2926  0033CE  0A0D               	xorlw	13
  2927  0033D0  A4D8               	btfss	status,2,c
  2928  0033D2  EFED  F019         	goto	u6561
  2929  0033D6  EFEF  F019         	goto	u6560
  2930  0033DA                     u6561:
  2931  0033DA  EF07  F01A         	goto	l7203
  2932  0033DE                     u6560:
  2933  0033DE                     
  2934                           ; BSR set to: 0
  2935                           ;usb_device.c: 2406:         {;usb_device.c: 2411:             memcpy((uint8_t*)&SetupPk
      +                          t, (uint8_t*)((void *)(pBDTEntryEP0OutCurrent->ADR)), 8);
  2936  0033DE  0E30               	movlw	48
  2937  0033E0  6FDF               	movwf	memcpy@d1& (0+255),b
  2938  0033E2  0E04               	movlw	4
  2939  0033E4  6FE0               	movwf	(memcpy@d1+1)& (0+255),b
  2940  0033E6  EE20 F002          	lfsr	2,2
  2941  0033EA  501D               	movf	_pBDTEntryEP0OutCurrent^0,w,c
  2942  0033EC  26D9               	addwf	fsr2l,f,c
  2943  0033EE  501E               	movf	(_pBDTEntryEP0OutCurrent+1)^0,w,c
  2944  0033F0  22DA               	addwfc	fsr2h,f,c
  2945  0033F2  CFDE F0E1          	movff	postinc2,memcpy@s1
  2946  0033F6  CFDD F0E2          	movff	postdec2,memcpy@s1+1
  2947  0033FA  0E00               	movlw	0
  2948  0033FC  6FE4               	movwf	(memcpy@n+1)& (0+255),b
  2949  0033FE  0E08               	movlw	8
  2950  003400  6FE3               	movwf	memcpy@n& (0+255),b
  2951  003402  ECDF  F01E         	call	_memcpy	;wreg free
  2952  003406                     
  2953                           ;usb_device.c: 2414:             USBCtrlTrfSetupHandler();
  2954  003406  ECD1  F01B         	call	_USBCtrlTrfSetupHandler	;wreg free
  2955                           
  2956                           ;usb_device.c: 2415:         }
  2957  00340A  EF17  F01A         	goto	l426
  2958  00340E                     l7203:
  2959                           
  2960                           ; BSR set to: 0
  2961                           ;usb_device.c: 2417:         {;usb_device.c: 2419:             USBCtrlTrfOutHandler();
  2962  00340E  ECEB  F01C         	call	_USBCtrlTrfOutHandler	;wreg free
  2963  003412  EF17  F01A         	goto	l426
  2964  003416                     l7205:
  2965                           
  2966                           ; BSR set to: 0
  2967  003416  51DE               	movf	_USTATcopy& (0+255),w,b	;volatile
  2968  003418  0BFD               	andlw	253
  2969  00341A  0A04               	xorlw	4
  2970  00341C  A4D8               	btfss	status,2,c
  2971  00341E  EF13  F01A         	goto	u6571
  2972  003422  EF15  F01A         	goto	u6570
  2973  003426                     u6571:
  2974  003426  EF17  F01A         	goto	l426
  2975  00342A                     u6570:
  2976  00342A                     
  2977                           ; BSR set to: 0
  2978                           ;usb_device.c: 2423:     {;usb_device.c: 2426:         USBCtrlTrfInHandler();
  2979  00342A  EC57  F015         	call	_USBCtrlTrfInHandler	;wreg free
  2980  00342E                     l426:
  2981  00342E  0012               	return		;funcret
  2982  003430                     __end_of_USBCtrlEPService:
  2983                           	opt callstack 0
  2984                           
  2985 ;; *************** function _memcpy *****************
  2986 ;; Defined at:
  2987 ;;		line 4 in file "C:\Program Files (x86)\Microchip\xc8\v2.10\pic\sources\c99\common\memcpy.c"
  2988 ;; Parameters:    Size  Location     Type
  2989 ;;  d1              2    0[BANK0 ] PTR void 
  2990 ;;		 -> SetupPkt(8), 
  2991 ;;  s1              2    2[BANK0 ] PTR const void 
  2992 ;;		 -> CtrlTrfData(32), RAM(2047), SetupPkt(8), 
  2993 ;;  n               2    4[BANK0 ] unsigned int 
  2994 ;; Auto vars:     Size  Location     Type
  2995 ;;  s               2    9[BANK0 ] PTR const unsigned char 
  2996 ;;		 -> CtrlTrfData(32), RAM(2047), SetupPkt(8), 
  2997 ;;  d               2    7[BANK0 ] PTR unsigned char 
  2998 ;;		 -> SetupPkt(8), 
  2999 ;;  tmp             1    6[BANK0 ] unsigned char 
  3000 ;; Return value:  Size  Location     Type
  3001 ;;                  2    0[BANK0 ] PTR void 
  3002 ;; Registers used:
  3003 ;;		wreg, fsr2l, fsr2h, status,2, status,0
  3004 ;; Tracked objects:
  3005 ;;		On entry : 0/0
  3006 ;;		On exit  : 0/0
  3007 ;;		Unchanged: 0/0
  3008 ;; Data sizes:     COMRAM   BANK0   BANK1   BANK2   BANK3  BANK4h  BANK4l   BANK5   BANK6   BANK7
  3009 ;;      Params:         0       6       0       0       0       0       0       0       0       0
  3010 ;;      Locals:         0       5       0       0       0       0       0       0       0       0
  3011 ;;      Temps:          0       0       0       0       0       0       0       0       0       0
  3012 ;;      Totals:         0      11       0       0       0       0       0       0       0       0
  3013 ;;Total ram usage:       11 bytes
  3014 ;; Hardware stack levels used:    1
  3015 ;; Hardware stack levels required when called:   11
  3016 ;; This function calls:
  3017 ;;		Nothing
  3018 ;; This function is called by:
  3019 ;;		_USBCtrlEPService
  3020 ;; This function uses a non-reentrant model
  3021 ;;
  3022                           
  3023                           	psect	text16
  3024  003DBE                     __ptext16:
  3025                           	opt callstack 0
  3026  003DBE                     _memcpy:
  3027                           	opt callstack 17
  3028  003DBE  C0E1  F0E8         	movff	memcpy@s1,memcpy@s
  3029  003DC2  C0E2  F0E9         	movff	memcpy@s1+1,memcpy@s+1
  3030  003DC6  C0DF  F0E6         	movff	memcpy@d1,memcpy@d
  3031  003DCA  C0E0  F0E7         	movff	memcpy@d1+1,memcpy@d+1
  3032  003DCE  EFF9  F01E         	goto	l6891
  3033  003DD2                     l6883:
  3034                           
  3035                           ; BSR set to: 0
  3036  003DD2  C0E8  FFD9         	movff	memcpy@s,fsr2l
  3037  003DD6  C0E9  FFDA         	movff	memcpy@s+1,fsr2h
  3038  003DDA  50DF               	movf	indf2,w,c
  3039  003DDC  6FE5               	movwf	memcpy@tmp& (0+255),b
  3040  003DDE                     
  3041                           ; BSR set to: 0
  3042  003DDE  4BE8               	infsnz	memcpy@s& (0+255),f,b
  3043  003DE0  2BE9               	incf	(memcpy@s+1)& (0+255),f,b
  3044  003DE2                     
  3045                           ; BSR set to: 0
  3046  003DE2  C0E6  FFD9         	movff	memcpy@d,fsr2l
  3047  003DE6  C0E7  FFDA         	movff	memcpy@d+1,fsr2h
  3048  003DEA  C0E5  FFDF         	movff	memcpy@tmp,indf2
  3049  003DEE                     
  3050                           ; BSR set to: 0
  3051  003DEE  4BE6               	infsnz	memcpy@d& (0+255),f,b
  3052  003DF0  2BE7               	incf	(memcpy@d+1)& (0+255),f,b
  3053  003DF2                     l6891:
  3054  003DF2  0100               	movlb	0	; () banked
  3055  003DF4  07E3               	decf	memcpy@n& (0+255),f,b
  3056  003DF6  A0D8               	btfss	status,0,c
  3057  003DF8  07E4               	decf	(memcpy@n+1)& (0+255),f,b
  3058  003DFA  29E3               	incf	memcpy@n& (0+255),w,b
  3059  003DFC  E106               	bnz	u6221
  3060  003DFE  29E4               	incf	(memcpy@n+1)& (0+255),w,b
  3061  003E00  A4D8               	btfss	status,2,c
  3062  003E02  EF05  F01F         	goto	u6221
  3063  003E06  EF07  F01F         	goto	u6220
  3064  003E0A                     u6221:
  3065  003E0A  EFE9  F01E         	goto	l6883
  3066  003E0E                     u6220:
  3067  003E0E                     
  3068                           ; BSR set to: 0
  3069  003E0E  0012               	return		;funcret
  3070  003E10                     __end_of_memcpy:
  3071                           	opt callstack 0
  3072                           
  3073 ;; *************** function _USBCtrlTrfSetupHandler *****************
  3074 ;; Defined at:
  3075 ;;		line 2471 in file "usb_device.c"
  3076 ;; Parameters:    Size  Location     Type
  3077 ;;		None
  3078 ;; Auto vars:     Size  Location     Type
  3079 ;;		None
  3080 ;; Return value:  Size  Location     Type
  3081 ;;                  1    wreg      void 
  3082 ;; Registers used:
  3083 ;;		wreg, fsr1l, fsr1h, fsr2l, fsr2h, status,2, status,0, tblptrl, tblptrh, tblptru, prodl, prodh, cstack
  3084 ;; Tracked objects:
  3085 ;;		On entry : 0/0
  3086 ;;		On exit  : 0/0
  3087 ;;		Unchanged: 0/0
  3088 ;; Data sizes:     COMRAM   BANK0   BANK1   BANK2   BANK3  BANK4h  BANK4l   BANK5   BANK6   BANK7
  3089 ;;      Params:         0       0       0       0       0       0       0       0       0       0
  3090 ;;      Locals:         0       0       0       0       0       0       0       0       0       0
  3091 ;;      Temps:          0       0       0       0       0       0       0       0       0       0
  3092 ;;      Totals:         0       0       0       0       0       0       0       0       0       0
  3093 ;;Total ram usage:        0 bytes
  3094 ;; Hardware stack levels used:    1
  3095 ;; Hardware stack levels required when called:   17
  3096 ;; This function calls:
  3097 ;;		_USBCheckStdRequest
  3098 ;;		_USBCtrlEPServiceComplete
  3099 ;;		_USER_USB_CALLBACK_EVENT_HANDLER
  3100 ;; This function is called by:
  3101 ;;		_USBCtrlEPService
  3102 ;; This function uses a non-reentrant model
  3103 ;;
  3104                           
  3105                           	psect	text17
  3106  0037A2                     __ptext17:
  3107                           	opt callstack 0
  3108  0037A2                     _USBCtrlTrfSetupHandler:
  3109                           	opt callstack 11
  3110  0037A2                     
  3111                           ;usb_device.c: 2476:     shortPacketStatus = 0;
  3112  0037A2  0E00               	movlw	0
  3113  0037A4  6E28               	movwf	_shortPacketStatus^0,c	;volatile
  3114                           
  3115                           ;usb_device.c: 2477:     USBDeferStatusStagePacket = 0;
  3116  0037A6  0E00               	movlw	0
  3117  0037A8  6E23               	movwf	_USBDeferStatusStagePacket^0,c	;volatile
  3118                           
  3119                           ;usb_device.c: 2478:     USBDeferINDataStagePackets = 0;
  3120  0037AA  0E00               	movlw	0
  3121  0037AC  6E20               	movwf	_USBDeferINDataStagePackets^0,c	;volatile
  3122                           
  3123                           ;usb_device.c: 2479:     USBDeferOUTDataStagePackets = 0;
  3124  0037AE  0E00               	movlw	0
  3125  0037B0  0100               	movlb	0	; () banked
  3126  0037B2  6FC9               	movwf	_USBDeferOUTDataStagePackets& (0+255),b	;volatile
  3127                           
  3128                           ;usb_device.c: 2480:     BothEP0OutUOWNsSet = 0;
  3129  0037B4  0E00               	movlw	0
  3130  0037B6  6E24               	movwf	_BothEP0OutUOWNsSet^0,c	;volatile
  3131                           
  3132                           ;usb_device.c: 2481:     controlTransferState = 0;
  3133  0037B8  0E00               	movlw	0
  3134  0037BA  6E27               	movwf	_controlTransferState^0,c	;volatile
  3135  0037BC                     
  3136                           ; BSR set to: 0
  3137                           ;usb_device.c: 2490:     pBDTEntryIn[0]->STAT.Val &= ~(0x80);
  3138  0037BC  C00F  FFD9         	movff	_pBDTEntryIn,fsr2l
  3139  0037C0  C010  FFDA         	movff	_pBDTEntryIn+1,fsr2h
  3140  0037C4  0E7F               	movlw	127
  3141  0037C6  16DF               	andwf	indf2,f,c
  3142  0037C8                     
  3143                           ; BSR set to: 0
  3144                           ;usb_device.c: 2492:     pBDTEntryIn[0] = (volatile BDT_ENTRY*)(((uint16_t)pBDTEntryIn[0
      +                          ]) ^ 0x0004);
  3145  0037C8  0E04               	movlw	4
  3146  0037CA  180F               	xorwf	_pBDTEntryIn^0,w,c
  3147  0037CC  6E0F               	movwf	_pBDTEntryIn^0,c
  3148  0037CE  5010               	movf	(_pBDTEntryIn+1)^0,w,c
  3149  0037D0  6E10               	movwf	(_pBDTEntryIn+1)^0,c
  3150  0037D2                     
  3151                           ; BSR set to: 0
  3152                           ;usb_device.c: 2493:     pBDTEntryIn[0]->STAT.Val &= ~(0x80);
  3153  0037D2  C00F  FFD9         	movff	_pBDTEntryIn,fsr2l
  3154  0037D6  C010  FFDA         	movff	_pBDTEntryIn+1,fsr2h
  3155  0037DA  0E7F               	movlw	127
  3156  0037DC  16DF               	andwf	indf2,f,c
  3157  0037DE                     
  3158                           ; BSR set to: 0
  3159                           ;usb_device.c: 2494:     pBDTEntryIn[0] = (volatile BDT_ENTRY*)(((uint16_t)pBDTEntryIn[0
      +                          ]) ^ 0x0004);
  3160  0037DE  0E04               	movlw	4
  3161  0037E0  180F               	xorwf	_pBDTEntryIn^0,w,c
  3162  0037E2  6E0F               	movwf	_pBDTEntryIn^0,c
  3163  0037E4  5010               	movf	(_pBDTEntryIn+1)^0,w,c
  3164  0037E6  6E10               	movwf	(_pBDTEntryIn+1)^0,c
  3165  0037E8                     
  3166                           ; BSR set to: 0
  3167                           ;usb_device.c: 2495:     pBDTEntryEP0OutNext->STAT.Val &= ~(0x80);
  3168  0037E8  C01B  FFD9         	movff	_pBDTEntryEP0OutNext,fsr2l
  3169  0037EC  C01C  FFDA         	movff	_pBDTEntryEP0OutNext+1,fsr2h
  3170  0037F0  0E7F               	movlw	127
  3171  0037F2  16DF               	andwf	indf2,f,c
  3172  0037F4                     
  3173                           ; BSR set to: 0
  3174                           ;usb_device.c: 2497:     inPipes[0].info.Val = 0;
  3175  0037F4  0E00               	movlw	0
  3176  0037F6  6E0C               	movwf	(_inPipes+3)^0,c	;volatile
  3177  0037F8                     
  3178                           ; BSR set to: 0
  3179                           ;usb_device.c: 2498:     inPipes[0].wCount.Val = 0;
  3180  0037F8  0E00               	movlw	0
  3181  0037FA  6E0E               	movwf	(_inPipes+5)^0,c	;volatile
  3182  0037FC  0E00               	movlw	0
  3183  0037FE  6E0D               	movwf	(_inPipes+4)^0,c	;volatile
  3184  003800                     
  3185                           ; BSR set to: 0
  3186                           ;usb_device.c: 2499:     outPipes[0].info.Val = 0;
  3187  003800  0E00               	movlw	0
  3188  003802  6E04               	movwf	(_outPipes+3)^0,c	;volatile
  3189  003804                     
  3190                           ; BSR set to: 0
  3191                           ;usb_device.c: 2500:     outPipes[0].wCount.Val = 0;
  3192  003804  0E00               	movlw	0
  3193  003806  6E06               	movwf	(_outPipes+5)^0,c	;volatile
  3194  003808  0E00               	movlw	0
  3195  00380A  6E05               	movwf	(_outPipes+4)^0,c	;volatile
  3196  00380C                     
  3197                           ; BSR set to: 0
  3198                           ;usb_device.c: 2506:     USBCheckStdRequest();
  3199  00380C  ECA1  F012         	call	_USBCheckStdRequest	;wreg free
  3200  003810                     
  3201                           ;usb_device.c: 2507:     USER_USB_CALLBACK_EVENT_HANDLER((USB_EVENT)EVENT_EP0_REQUEST,0,
      +                          0);
  3202  003810  0E00               	movlw	0
  3203  003812  0100               	movlb	0	; () banked
  3204  003814  6FEC               	movwf	(USER_USB_CALLBACK_EVENT_HANDLER@event+1)& (0+255),b
  3205  003816  0E03               	movlw	3
  3206  003818  6FEB               	movwf	USER_USB_CALLBACK_EVENT_HANDLER@event& (0+255),b
  3207  00381A  0E00               	movlw	0
  3208  00381C  6FED               	movwf	USER_USB_CALLBACK_EVENT_HANDLER@pdata& (0+255),b
  3209  00381E  0E00               	movlw	0
  3210  003820  6FEE               	movwf	(USER_USB_CALLBACK_EVENT_HANDLER@pdata+1)& (0+255),b
  3211  003822  0E00               	movlw	0
  3212  003824  6FF0               	movwf	(USER_USB_CALLBACK_EVENT_HANDLER@size+1)& (0+255),b
  3213  003826  0E00               	movlw	0
  3214  003828  6FEF               	movwf	USER_USB_CALLBACK_EVENT_HANDLER@size& (0+255),b
  3215  00382A  EC62  F01C         	call	_USER_USB_CALLBACK_EVENT_HANDLER	;wreg free
  3216  00382E                     
  3217                           ;usb_device.c: 2520:     USBCtrlEPServiceComplete();
  3218  00382E  EC7E  F00F         	call	_USBCtrlEPServiceComplete	;wreg free
  3219  003832  0012               	return		;funcret
  3220  003834                     __end_of_USBCtrlTrfSetupHandler:
  3221                           	opt callstack 0
  3222                           
  3223 ;; *************** function _USBCtrlEPServiceComplete *****************
  3224 ;; Defined at:
  3225 ;;		line 1622 in file "usb_device.c"
  3226 ;; Parameters:    Size  Location     Type
  3227 ;;		None
  3228 ;; Auto vars:     Size  Location     Type
  3229 ;;		None
  3230 ;; Return value:  Size  Location     Type
  3231 ;;                  1    wreg      void 
  3232 ;; Registers used:
  3233 ;;		wreg, fsr1l, fsr1h, fsr2l, fsr2h, status,2, status,0, tblptrl, tblptrh, tblptru, cstack
  3234 ;; Tracked objects:
  3235 ;;		On entry : 0/0
  3236 ;;		On exit  : 0/0
  3237 ;;		Unchanged: 0/0
  3238 ;; Data sizes:     COMRAM   BANK0   BANK1   BANK2   BANK3  BANK4h  BANK4l   BANK5   BANK6   BANK7
  3239 ;;      Params:         0       0       0       0       0       0       0       0       0       0
  3240 ;;      Locals:         0       0       0       0       0       0       0       0       0       0
  3241 ;;      Temps:          0       0       0       0       0       0       0       0       0       0
  3242 ;;      Totals:         0       0       0       0       0       0       0       0       0       0
  3243 ;;Total ram usage:        0 bytes
  3244 ;; Hardware stack levels used:    1
  3245 ;; Hardware stack levels required when called:   13
  3246 ;; This function calls:
  3247 ;;		_USBCtrlEPAllowDataStage
  3248 ;;		_USBCtrlEPAllowStatusStage
  3249 ;; This function is called by:
  3250 ;;		_USBCtrlTrfSetupHandler
  3251 ;; This function uses a non-reentrant model
  3252 ;;
  3253                           
  3254                           	psect	text18
  3255  001EFC                     __ptext18:
  3256                           	opt callstack 0
  3257  001EFC                     _USBCtrlEPServiceComplete:
  3258                           	opt callstack 14
  3259  001EFC                     
  3260                           ;usb_device.c: 1628:     UCONbits.PKTDIS = 0;
  3261  001EFC  986D               	bcf	109,4,c	;volatile
  3262                           
  3263                           ;usb_device.c: 1634:     if(inPipes[0].info.bits.busy == 0)
  3264  001EFE  BE0C               	btfsc	(_inPipes+3)^0,7,c	;volatile
  3265  001F00  EF84  F00F         	goto	u6091
  3266  001F04  EF86  F00F         	goto	u6090
  3267  001F08                     u6091:
  3268  001F08  EFCC  F00F         	goto	l331
  3269  001F0C                     u6090:
  3270  001F0C                     
  3271                           ;usb_device.c: 1635:     {;usb_device.c: 1636:         if(outPipes[0].info.bits.busy == 
      +                          1)
  3272  001F0C  AE04               	btfss	(_outPipes+3)^0,7,c	;volatile
  3273  001F0E  EF8B  F00F         	goto	u6101
  3274  001F12  EF8D  F00F         	goto	u6100
  3275  001F16                     u6101:
  3276  001F16  EFA0  F00F         	goto	l6755
  3277  001F1A                     u6100:
  3278  001F1A                     
  3279                           ;usb_device.c: 1637:         {;usb_device.c: 1638:             controlTransferState = 2;
  3280  001F1A  0E02               	movlw	2
  3281  001F1C  6E27               	movwf	_controlTransferState^0,c	;volatile
  3282                           
  3283                           ;usb_device.c: 1649:             if(USBDeferOUTDataStagePackets == 0)
  3284  001F1E  0100               	movlb	0	; () banked
  3285  001F20  51C9               	movf	_USBDeferOUTDataStagePackets& (0+255),w,b	;volatile
  3286  001F22  A4D8               	btfss	status,2,c
  3287  001F24  EF96  F00F         	goto	u6111
  3288  001F28  EF98  F00F         	goto	u6110
  3289  001F2C                     u6111:
  3290  001F2C  EF9A  F00F         	goto	l6751
  3291  001F30                     u6110:
  3292  001F30                     
  3293                           ; BSR set to: 0
  3294                           ;usb_device.c: 1650:             {;usb_device.c: 1651:                 USBCtrlEPAllowDat
      +                          aStage();
  3295  001F30  ECCD  F01A         	call	_USBCtrlEPAllowDataStage	;wreg free
  3296  001F34                     l6751:
  3297                           
  3298                           ;usb_device.c: 1656:             USBStatusStageEnabledFlag2 = 0;
  3299  001F34  0E00               	movlw	0
  3300  001F36  6E21               	movwf	_USBStatusStageEnabledFlag2^0,c	;volatile
  3301  001F38                     
  3302                           ;usb_device.c: 1657:             USBStatusStageEnabledFlag1 = 0;
  3303  001F38  0E00               	movlw	0
  3304  001F3A  6E22               	movwf	_USBStatusStageEnabledFlag1^0,c	;volatile
  3305                           
  3306                           ;usb_device.c: 1658:         }
  3307  001F3C  EF1E  F010         	goto	l341
  3308  001F40                     l6755:
  3309                           
  3310                           ;usb_device.c: 1660:         {;usb_device.c: 1665:             pBDTEntryEP0OutNext->CNT 
      +                          = 32;
  3311  001F40  EE20 F001          	lfsr	2,1
  3312  001F44  501B               	movf	_pBDTEntryEP0OutNext^0,w,c
  3313  001F46  26D9               	addwf	fsr2l,f,c
  3314  001F48  501C               	movf	(_pBDTEntryEP0OutNext+1)^0,w,c
  3315  001F4A  22DA               	addwfc	fsr2h,f,c
  3316  001F4C  0E20               	movlw	32
  3317  001F4E  6EDF               	movwf	indf2,c
  3318                           
  3319                           ;usb_device.c: 1666:             pBDTEntryEP0OutNext->ADR = ((uint16_t)(&SetupPkt));
  3320  001F50  EE20 F002          	lfsr	2,2
  3321  001F54  501B               	movf	_pBDTEntryEP0OutNext^0,w,c
  3322  001F56  26D9               	addwf	fsr2l,f,c
  3323  001F58  501C               	movf	(_pBDTEntryEP0OutNext+1)^0,w,c
  3324  001F5A  22DA               	addwfc	fsr2h,f,c
  3325  001F5C  0E30               	movlw	48
  3326  001F5E  6EDE               	movwf	postinc2,c
  3327  001F60  0E04               	movlw	4
  3328  001F62  6EDD               	movwf	postdec2,c
  3329  001F64                     
  3330                           ;usb_device.c: 1667:             pBDTEntryEP0OutNext->STAT.Val = 0x00|(0x08 & 0x08)|0x04
      +                          ;
  3331  001F64  C01B  FFD9         	movff	_pBDTEntryEP0OutNext,fsr2l
  3332  001F68  C01C  FFDA         	movff	_pBDTEntryEP0OutNext+1,fsr2h
  3333  001F6C  0E0C               	movlw	12
  3334  001F6E  6EDF               	movwf	indf2,c
  3335  001F70                     
  3336                           ;usb_device.c: 1668:             pBDTEntryEP0OutNext->STAT.Val |= 0x80;
  3337  001F70  C01B  FFD9         	movff	_pBDTEntryEP0OutNext,fsr2l
  3338  001F74  C01C  FFDA         	movff	_pBDTEntryEP0OutNext+1,fsr2h
  3339  001F78  0E00               	movlw	0
  3340  001F7A  8EDB               	bsf	plusw2,7,c
  3341                           
  3342                           ;usb_device.c: 1669:             pBDTEntryIn[0]->STAT.Val = 0x04;
  3343  001F7C  C00F  FFD9         	movff	_pBDTEntryIn,fsr2l
  3344  001F80  C010  FFDA         	movff	_pBDTEntryIn+1,fsr2h
  3345  001F84  0E04               	movlw	4
  3346  001F86  6EDF               	movwf	indf2,c
  3347  001F88                     
  3348                           ;usb_device.c: 1670:             pBDTEntryIn[0]->STAT.Val |= 0x80;
  3349  001F88  C00F  FFD9         	movff	_pBDTEntryIn,fsr2l
  3350  001F8C  C010  FFDA         	movff	_pBDTEntryIn+1,fsr2h
  3351  001F90  0E00               	movlw	0
  3352  001F92  8EDB               	bsf	plusw2,7,c
  3353  001F94  EF1E  F010         	goto	l341
  3354  001F98                     l331:
  3355                           
  3356                           ;usb_device.c: 1674:     {;usb_device.c: 1675:   if(SetupPkt.DataDir == (0x80>>7))
  3357  001F98  0104               	movlb	4	; () banked
  3358  001F9A  AF30               	btfss	48,7,b	;volatile
  3359  001F9C  EFD2  F00F         	goto	u6121
  3360  001FA0  EFD4  F00F         	goto	u6120
  3361  001FA4                     u6121:
  3362  001FA4  EFF0  F00F         	goto	l6775
  3363  001FA8                     u6120:
  3364  001FA8                     
  3365                           ; BSR set to: 4
  3366                           ;usb_device.c: 1676:   {;usb_device.c: 1677:    controlTransferState = 1;
  3367  001FA8  0E01               	movlw	1
  3368  001FAA  6E27               	movwf	_controlTransferState^0,c	;volatile
  3369                           
  3370                           ;usb_device.c: 1691:    if(USBDeferINDataStagePackets == 0)
  3371  001FAC  5020               	movf	_USBDeferINDataStagePackets^0,w,c	;volatile
  3372  001FAE  A4D8               	btfss	status,2,c
  3373  001FB0  EFDC  F00F         	goto	u6131
  3374  001FB4  EFDE  F00F         	goto	u6130
  3375  001FB8                     u6131:
  3376  001FB8  EFE0  F00F         	goto	l6767
  3377  001FBC                     u6130:
  3378  001FBC                     
  3379                           ; BSR set to: 4
  3380                           ;usb_device.c: 1692:             {;usb_device.c: 1693:                 USBCtrlEPAllowDat
      +                          aStage();
  3381  001FBC  ECCD  F01A         	call	_USBCtrlEPAllowDataStage	;wreg free
  3382  001FC0                     l6767:
  3383                           
  3384                           ;usb_device.c: 1716:             USBStatusStageEnabledFlag2 = 0;
  3385  001FC0  0E00               	movlw	0
  3386  001FC2  6E21               	movwf	_USBStatusStageEnabledFlag2^0,c	;volatile
  3387  001FC4                     
  3388                           ;usb_device.c: 1717:             USBStatusStageEnabledFlag1 = 0;
  3389  001FC4  0E00               	movlw	0
  3390  001FC6  6E22               	movwf	_USBStatusStageEnabledFlag1^0,c	;volatile
  3391  001FC8                     
  3392                           ;usb_device.c: 1718:             if(USBDeferStatusStagePacket == 0)
  3393  001FC8  5023               	movf	_USBDeferStatusStagePacket^0,w,c	;volatile
  3394  001FCA  A4D8               	btfss	status,2,c
  3395  001FCC  EFEA  F00F         	goto	u6141
  3396  001FD0  EFEC  F00F         	goto	u6140
  3397  001FD4                     u6141:
  3398  001FD4  EF1E  F010         	goto	l341
  3399  001FD8                     u6140:
  3400  001FD8                     l6773:
  3401                           
  3402                           ;usb_device.c: 1719:             {;usb_device.c: 1720:                 USBCtrlEPAllowSta
      +                          tusStage();
  3403  001FD8  ECE1  F017         	call	_USBCtrlEPAllowStatusStage	;wreg free
  3404  001FDC  EF1E  F010         	goto	l341
  3405  001FE0                     l6775:
  3406                           
  3407                           ; BSR set to: 4
  3408                           ;usb_device.c: 1724:   {;usb_device.c: 1735:    controlTransferState = 2;
  3409  001FE0  0E02               	movlw	2
  3410  001FE2  6E27               	movwf	_controlTransferState^0,c	;volatile
  3411  001FE4                     
  3412                           ; BSR set to: 4
  3413                           ;usb_device.c: 1738:    pBDTEntryEP0OutNext->CNT = 32;
  3414  001FE4  EE20 F001          	lfsr	2,1
  3415  001FE8  501B               	movf	_pBDTEntryEP0OutNext^0,w,c
  3416  001FEA  26D9               	addwf	fsr2l,f,c
  3417  001FEC  501C               	movf	(_pBDTEntryEP0OutNext+1)^0,w,c
  3418  001FEE  22DA               	addwfc	fsr2h,f,c
  3419  001FF0  0E20               	movlw	32
  3420  001FF2  6EDF               	movwf	indf2,c
  3421  001FF4                     
  3422                           ; BSR set to: 4
  3423                           ;usb_device.c: 1739:    pBDTEntryEP0OutNext->ADR = ((uint16_t)(&SetupPkt));
  3424  001FF4  EE20 F002          	lfsr	2,2
  3425  001FF8  501B               	movf	_pBDTEntryEP0OutNext^0,w,c
  3426  001FFA  26D9               	addwf	fsr2l,f,c
  3427  001FFC  501C               	movf	(_pBDTEntryEP0OutNext+1)^0,w,c
  3428  001FFE  22DA               	addwfc	fsr2h,f,c
  3429  002000  0E30               	movlw	48
  3430  002002  6EDE               	movwf	postinc2,c
  3431  002004  0E04               	movlw	4
  3432  002006  6EDD               	movwf	postdec2,c
  3433  002008                     
  3434                           ; BSR set to: 4
  3435                           ;usb_device.c: 1740:    pBDTEntryEP0OutNext->STAT.Val = 0x04;
  3436  002008  C01B  FFD9         	movff	_pBDTEntryEP0OutNext,fsr2l
  3437  00200C  C01C  FFDA         	movff	_pBDTEntryEP0OutNext+1,fsr2h
  3438  002010  0E04               	movlw	4
  3439  002012  6EDF               	movwf	indf2,c
  3440  002014                     
  3441                           ; BSR set to: 4
  3442                           ;usb_device.c: 1741:             pBDTEntryEP0OutNext->STAT.Val |= 0x80;
  3443  002014  C01B  FFD9         	movff	_pBDTEntryEP0OutNext,fsr2l
  3444  002018  C01C  FFDA         	movff	_pBDTEntryEP0OutNext+1,fsr2h
  3445  00201C  0E00               	movlw	0
  3446  00201E  8EDB               	bsf	plusw2,7,c
  3447  002020                     
  3448                           ; BSR set to: 4
  3449                           ;usb_device.c: 1744:             USBStatusStageEnabledFlag2 = 0;
  3450  002020  0E00               	movlw	0
  3451  002022  6E21               	movwf	_USBStatusStageEnabledFlag2^0,c	;volatile
  3452  002024                     
  3453                           ; BSR set to: 4
  3454                           ;usb_device.c: 1745:             USBStatusStageEnabledFlag1 = 0;
  3455  002024  0E00               	movlw	0
  3456  002026  6E22               	movwf	_USBStatusStageEnabledFlag1^0,c	;volatile
  3457  002028                     
  3458                           ; BSR set to: 4
  3459                           ;usb_device.c: 1746:    if(USBDeferStatusStagePacket == 0)
  3460  002028  5023               	movf	_USBDeferStatusStagePacket^0,w,c	;volatile
  3461  00202A  A4D8               	btfss	status,2,c
  3462  00202C  EF1A  F010         	goto	u6151
  3463  002030  EF1C  F010         	goto	u6150
  3464  002034                     u6151:
  3465  002034  EF1E  F010         	goto	l341
  3466  002038                     u6150:
  3467  002038  EFEC  F00F         	goto	l6773
  3468  00203C                     l341:
  3469  00203C  0012               	return		;funcret
  3470  00203E                     __end_of_USBCtrlEPServiceComplete:
  3471                           	opt callstack 0
  3472                           
  3473 ;; *************** function _USBCtrlEPAllowDataStage *****************
  3474 ;; Defined at:
  3475 ;;		line 1494 in file "usb_device.c"
  3476 ;; Parameters:    Size  Location     Type
  3477 ;;		None
  3478 ;; Auto vars:     Size  Location     Type
  3479 ;;		None
  3480 ;; Return value:  Size  Location     Type
  3481 ;;                  1    wreg      void 
  3482 ;; Registers used:
  3483 ;;		wreg, fsr1l, fsr1h, fsr2l, fsr2h, status,2, status,0, tblptrl, tblptrh, tblptru, cstack
  3484 ;; Tracked objects:
  3485 ;;		On entry : 0/0
  3486 ;;		On exit  : 0/0
  3487 ;;		Unchanged: 0/0
  3488 ;; Data sizes:     COMRAM   BANK0   BANK1   BANK2   BANK3  BANK4h  BANK4l   BANK5   BANK6   BANK7
  3489 ;;      Params:         0       0       0       0       0       0       0       0       0       0
  3490 ;;      Locals:         0       0       0       0       0       0       0       0       0       0
  3491 ;;      Temps:          0       0       0       0       0       0       0       0       0       0
  3492 ;;      Totals:         0       0       0       0       0       0       0       0       0       0
  3493 ;;Total ram usage:        0 bytes
  3494 ;; Hardware stack levels used:    1
  3495 ;; Hardware stack levels required when called:   12
  3496 ;; This function calls:
  3497 ;;		_USBCtrlTrfTxService
  3498 ;; This function is called by:
  3499 ;;		_USBCtrlEPServiceComplete
  3500 ;; This function uses a non-reentrant model
  3501 ;;
  3502                           
  3503                           	psect	text19
  3504  00359A                     __ptext19:
  3505                           	opt callstack 0
  3506  00359A                     _USBCtrlEPAllowDataStage:
  3507                           	opt callstack 14
  3508  00359A                     
  3509                           ;usb_device.c: 1496:     USBDeferINDataStagePackets = 0;
  3510  00359A  0E00               	movlw	0
  3511  00359C  6E20               	movwf	_USBDeferINDataStagePackets^0,c	;volatile
  3512                           
  3513                           ;usb_device.c: 1497:     USBDeferOUTDataStagePackets = 0;
  3514  00359E  0E00               	movlw	0
  3515  0035A0  0100               	movlb	0	; () banked
  3516  0035A2  6FC9               	movwf	_USBDeferOUTDataStagePackets& (0+255),b	;volatile
  3517  0035A4                     
  3518                           ; BSR set to: 0
  3519                           ;usb_device.c: 1499:     if(controlTransferState == 2)
  3520  0035A4  0E02               	movlw	2
  3521  0035A6  1827               	xorwf	_controlTransferState^0,w,c	;volatile
  3522  0035A8  A4D8               	btfss	status,2,c
  3523  0035AA  EFD9  F01A         	goto	u5761
  3524  0035AE  EFDB  F01A         	goto	u5760
  3525  0035B2                     u5761:
  3526  0035B2  EFFB  F01A         	goto	l6537
  3527  0035B6                     u5760:
  3528  0035B6                     
  3529                           ; BSR set to: 0
  3530                           ;usb_device.c: 1500:     {;usb_device.c: 1502:         pBDTEntryEP0OutNext->CNT = 32;
  3531  0035B6  EE20 F001          	lfsr	2,1
  3532  0035BA  501B               	movf	_pBDTEntryEP0OutNext^0,w,c
  3533  0035BC  26D9               	addwf	fsr2l,f,c
  3534  0035BE  501C               	movf	(_pBDTEntryEP0OutNext+1)^0,w,c
  3535  0035C0  22DA               	addwfc	fsr2h,f,c
  3536  0035C2  0E20               	movlw	32
  3537  0035C4  6EDF               	movwf	indf2,c
  3538                           
  3539                           ;usb_device.c: 1503:         pBDTEntryEP0OutNext->ADR = ((uint16_t)(&CtrlTrfData));
  3540  0035C6  EE20 F002          	lfsr	2,2
  3541  0035CA  501B               	movf	_pBDTEntryEP0OutNext^0,w,c
  3542  0035CC  26D9               	addwf	fsr2l,f,c
  3543  0035CE  501C               	movf	(_pBDTEntryEP0OutNext+1)^0,w,c
  3544  0035D0  22DA               	addwfc	fsr2h,f,c
  3545  0035D2  0E50               	movlw	80
  3546  0035D4  6EDE               	movwf	postinc2,c
  3547  0035D6  0E04               	movlw	4
  3548  0035D8  6EDD               	movwf	postdec2,c
  3549  0035DA                     
  3550                           ; BSR set to: 0
  3551                           ;usb_device.c: 1504:         pBDTEntryEP0OutNext->STAT.Val = 0x40|(0x08 & 0x08);
  3552  0035DA  C01B  FFD9         	movff	_pBDTEntryEP0OutNext,fsr2l
  3553  0035DE  C01C  FFDA         	movff	_pBDTEntryEP0OutNext+1,fsr2h
  3554  0035E2  0E48               	movlw	72
  3555  0035E4  6EDF               	movwf	indf2,c
  3556  0035E6                     
  3557                           ; BSR set to: 0
  3558                           ;usb_device.c: 1505:         pBDTEntryEP0OutNext->STAT.Val |= 0x80;
  3559  0035E6  C01B  FFD9         	movff	_pBDTEntryEP0OutNext,fsr2l
  3560  0035EA  C01C  FFDA         	movff	_pBDTEntryEP0OutNext+1,fsr2h
  3561  0035EE  0E00               	movlw	0
  3562  0035F0  8EDB               	bsf	plusw2,7,c
  3563                           
  3564                           ;usb_device.c: 1506:     }
  3565  0035F2  EF23  F01B         	goto	l323
  3566  0035F6                     l6537:
  3567                           
  3568                           ; BSR set to: 0
  3569                           ;usb_device.c: 1508:     {;usb_device.c: 1511:   if(SetupPkt.wLength < inPipes[0].wCount
      +                          .Val)
  3570  0035F6  500D               	movf	(_inPipes+4)^0,w,c	;volatile
  3571  0035F8  0104               	movlb	4	; () banked
  3572  0035FA  5D36               	subwf	54,w,b	;volatile
  3573  0035FC  500E               	movf	(_inPipes+5)^0,w,c	;volatile
  3574  0035FE  5937               	subwfb	55,w,b	;volatile
  3575  003600  B0D8               	btfsc	status,0,c
  3576  003602  EF05  F01B         	goto	u5771
  3577  003606  EF07  F01B         	goto	u5770
  3578  00360A                     u5771:
  3579  00360A  EF0B  F01B         	goto	l6541
  3580  00360E                     u5770:
  3581  00360E                     
  3582                           ; BSR set to: 4
  3583                           ;usb_device.c: 1512:   {;usb_device.c: 1513:    inPipes[0].wCount.Val = SetupPkt.wLength
      +                          ;
  3584  00360E  C436 F00D          	movff	1078,_inPipes+4	;volatile
  3585  003612  C437 F00E          	movff	1079,_inPipes+5	;volatile
  3586  003616                     l6541:
  3587                           
  3588                           ; BSR set to: 4
  3589                           ;usb_device.c: 1515:   USBCtrlTrfTxService();
  3590  003616  ECC0  F013         	call	_USBCtrlTrfTxService	;wreg free
  3591  00361A                     
  3592                           ;usb_device.c: 1520:   pBDTEntryIn[0]->ADR = ((uint16_t)(&CtrlTrfData));
  3593  00361A  EE20 F002          	lfsr	2,2
  3594  00361E  500F               	movf	_pBDTEntryIn^0,w,c
  3595  003620  26D9               	addwf	fsr2l,f,c
  3596  003622  5010               	movf	(_pBDTEntryIn+1)^0,w,c
  3597  003624  22DA               	addwfc	fsr2h,f,c
  3598  003626  0E50               	movlw	80
  3599  003628  6EDE               	movwf	postinc2,c
  3600  00362A  0E04               	movlw	4
  3601  00362C  6EDD               	movwf	postdec2,c
  3602  00362E                     
  3603                           ;usb_device.c: 1521:   pBDTEntryIn[0]->STAT.Val = 0x40|(0x08 & 0x08);
  3604  00362E  C00F  FFD9         	movff	_pBDTEntryIn,fsr2l
  3605  003632  C010  FFDA         	movff	_pBDTEntryIn+1,fsr2h
  3606  003636  0E48               	movlw	72
  3607  003638  6EDF               	movwf	indf2,c
  3608  00363A                     
  3609                           ;usb_device.c: 1522:         pBDTEntryIn[0]->STAT.Val |= 0x80;
  3610  00363A  C00F  FFD9         	movff	_pBDTEntryIn,fsr2l
  3611  00363E  C010  FFDA         	movff	_pBDTEntryIn+1,fsr2h
  3612  003642  0E00               	movlw	0
  3613  003644  8EDB               	bsf	plusw2,7,c
  3614  003646                     l323:
  3615  003646  0012               	return		;funcret
  3616  003648                     __end_of_USBCtrlEPAllowDataStage:
  3617                           	opt callstack 0
  3618                           
  3619 ;; *************** function _USBCheckStdRequest *****************
  3620 ;; Defined at:
  3621 ;;		line 2692 in file "usb_device.c"
  3622 ;; Parameters:    Size  Location     Type
  3623 ;;		None
  3624 ;; Auto vars:     Size  Location     Type
  3625 ;;		None
  3626 ;; Return value:  Size  Location     Type
  3627 ;;                  1    wreg      void 
  3628 ;; Registers used:
  3629 ;;		wreg, fsr1l, fsr1h, fsr2l, fsr2h, status,2, status,0, tblptrl, tblptrh, tblptru, prodl, prodh, cstack
  3630 ;; Tracked objects:
  3631 ;;		On entry : 0/0
  3632 ;;		On exit  : 0/0
  3633 ;;		Unchanged: 0/0
  3634 ;; Data sizes:     COMRAM   BANK0   BANK1   BANK2   BANK3  BANK4h  BANK4l   BANK5   BANK6   BANK7
  3635 ;;      Params:         0       0       0       0       0       0       0       0       0       0
  3636 ;;      Locals:         0       0       0       0       0       0       0       0       0       0
  3637 ;;      Temps:          0       2       0       0       0       0       0       0       0       0
  3638 ;;      Totals:         0       2       0       0       0       0       0       0       0       0
  3639 ;;Total ram usage:        2 bytes
  3640 ;; Hardware stack levels used:    1
  3641 ;; Hardware stack levels required when called:   16
  3642 ;; This function calls:
  3643 ;;		_USBStdFeatureReqHandler
  3644 ;;		_USBStdGetDscHandler
  3645 ;;		_USBStdGetStatusHandler
  3646 ;;		_USBStdSetCfgHandler
  3647 ;;		_USER_USB_CALLBACK_EVENT_HANDLER
  3648 ;; This function is called by:
  3649 ;;		_USBCtrlTrfSetupHandler
  3650 ;; This function uses a non-reentrant model
  3651 ;;
  3652                           
  3653                           	psect	text20
  3654  002542                     __ptext20:
  3655                           	opt callstack 0
  3656  002542                     _USBCheckStdRequest:
  3657                           	opt callstack 11
  3658  002542                     
  3659                           ;usb_device.c: 2694:     if(SetupPkt.RequestType != (0x00>>5)) return;
  3660  002542  0104               	movlb	4	; () banked
  3661  002544  3930               	swapf	48,w,b	;volatile
  3662  002546  32E8               	rrcf	wreg,f,c
  3663  002548  0B03               	andlw	3
  3664  00254A  0900               	iorlw	0
  3665  00254C  B4D8               	btfsc	status,2,c
  3666  00254E  EFAB  F012         	goto	u6211
  3667  002552  EFAD  F012         	goto	u6210
  3668  002556                     u6211:
  3669  002556  EFF7  F012         	goto	l6873
  3670  00255A                     u6210:
  3671  00255A  EF31  F013         	goto	l454
  3672  00255E                     l456:
  3673                           
  3674                           ; BSR set to: 0
  3675                           ;usb_device.c: 2699:             inPipes[0].info.bits.busy = 1;
  3676  00255E  8E0C               	bsf	(_inPipes+3)^0,7,c	;volatile
  3677  002560                     
  3678                           ; BSR set to: 0
  3679                           ;usb_device.c: 2700:             USBDeviceState = ADR_PENDING_STATE;
  3680  002560  0E08               	movlw	8
  3681  002562  6E29               	movwf	_USBDeviceState^0,c	;volatile
  3682                           
  3683                           ;usb_device.c: 2702:             break;
  3684  002564  EF31  F013         	goto	l454
  3685  002568                     l6843:
  3686                           
  3687                           ; BSR set to: 0
  3688                           ;usb_device.c: 2704:             USBStdGetDscHandler();
  3689  002568  EC2A  F00C         	call	_USBStdGetDscHandler	;wreg free
  3690                           
  3691                           ;usb_device.c: 2705:             break;
  3692  00256C  EF31  F013         	goto	l454
  3693  002570                     l6845:
  3694                           
  3695                           ; BSR set to: 0
  3696                           ;usb_device.c: 2707:             USBStdSetCfgHandler();
  3697  002570  ECD1  F018         	call	_USBStdSetCfgHandler	;wreg free
  3698                           
  3699                           ;usb_device.c: 2708:             break;
  3700  002574  EF31  F013         	goto	l454
  3701  002578                     l6847:
  3702                           
  3703                           ; BSR set to: 0
  3704                           ;usb_device.c: 2710:             inPipes[0].pSrc.bRam = (uint8_t*)&USBActiveConfiguratio
      +                          n;
  3705  002578  0E2A               	movlw	low _USBActiveConfiguration
  3706  00257A  6E09               	movwf	_inPipes^0,c	;volatile
  3707  00257C  0E00               	movlw	high _USBActiveConfiguration
  3708  00257E  6E0A               	movwf	(_inPipes+1)^0,c	;volatile
  3709  002580                     
  3710                           ; BSR set to: 0
  3711                           ;usb_device.c: 2711:             inPipes[0].info.bits.ctrl_trf_mem = 0x01;
  3712  002580  800C               	bsf	(_inPipes+3)^0,0,c	;volatile
  3713  002582                     
  3714                           ; BSR set to: 0
  3715                           ;usb_device.c: 2712:             inPipes[0].wCount.v[0] = 1;
  3716  002582  0E01               	movlw	1
  3717  002584  6E0D               	movwf	(_inPipes+4)^0,c	;volatile
  3718  002586                     
  3719                           ; BSR set to: 0
  3720                           ;usb_device.c: 2713:             inPipes[0].info.bits.busy = 1;
  3721  002586  8E0C               	bsf	(_inPipes+3)^0,7,c	;volatile
  3722                           
  3723                           ;usb_device.c: 2714:             break;
  3724  002588  EF31  F013         	goto	l454
  3725  00258C                     l6855:
  3726                           
  3727                           ; BSR set to: 0
  3728                           ;usb_device.c: 2716:             USBStdGetStatusHandler();
  3729  00258C  ECD0  F014         	call	_USBStdGetStatusHandler	;wreg free
  3730                           
  3731                           ;usb_device.c: 2717:             break;
  3732  002590  EF31  F013         	goto	l454
  3733  002594                     l6857:
  3734                           
  3735                           ; BSR set to: 0
  3736                           ;usb_device.c: 2720:             USBStdFeatureReqHandler();
  3737  002594  EC55  F004         	call	_USBStdFeatureReqHandler	;wreg free
  3738                           
  3739                           ;usb_device.c: 2721:             break;
  3740  002598  EF31  F013         	goto	l454
  3741  00259C                     l6859:
  3742                           
  3743                           ; BSR set to: 0
  3744                           ;usb_device.c: 2723:             inPipes[0].pSrc.bRam = (uint8_t*)&USBAlternateInterface
      +                          [SetupPkt.bIntfID];
  3745  00259C  0EDC               	movlw	low _USBAlternateInterface
  3746  00259E  0104               	movlb	4	; () banked
  3747  0025A0  2534               	addwf	52,w,b	;volatile
  3748  0025A2  6E09               	movwf	_inPipes^0,c	;volatile
  3749  0025A4  6A0A               	clrf	(_inPipes+1)^0,c	;volatile
  3750  0025A6  0E00               	movlw	high _USBAlternateInterface
  3751  0025A8  220A               	addwfc	(_inPipes+1)^0,f,c	;volatile
  3752  0025AA                     
  3753                           ; BSR set to: 4
  3754                           ;usb_device.c: 2724:             inPipes[0].info.bits.ctrl_trf_mem = 0x01;
  3755  0025AA  800C               	bsf	(_inPipes+3)^0,0,c	;volatile
  3756  0025AC                     
  3757                           ; BSR set to: 4
  3758                           ;usb_device.c: 2725:             inPipes[0].wCount.v[0] = 1;
  3759  0025AC  0E01               	movlw	1
  3760  0025AE  6E0D               	movwf	(_inPipes+4)^0,c	;volatile
  3761  0025B0                     
  3762                           ; BSR set to: 4
  3763                           ;usb_device.c: 2726:             inPipes[0].info.bits.busy = 1;
  3764  0025B0  8E0C               	bsf	(_inPipes+3)^0,7,c	;volatile
  3765                           
  3766                           ;usb_device.c: 2727:             break;
  3767  0025B2  EF31  F013         	goto	l454
  3768  0025B6                     l465:
  3769                           
  3770                           ; BSR set to: 0
  3771                           ;usb_device.c: 2729:             inPipes[0].info.bits.busy = 1;
  3772  0025B6  8E0C               	bsf	(_inPipes+3)^0,7,c	;volatile
  3773  0025B8                     
  3774                           ; BSR set to: 0
  3775                           ;usb_device.c: 2730:             USBAlternateInterface[SetupPkt.bIntfID] = SetupPkt.bAlt
      +                          ID;
  3776  0025B8  0EDC               	movlw	low _USBAlternateInterface
  3777  0025BA  0104               	movlb	4	; () banked
  3778  0025BC  2534               	addwf	52,w,b	;volatile
  3779  0025BE  6ED9               	movwf	fsr2l,c
  3780  0025C0  6ADA               	clrf	fsr2h,c
  3781  0025C2  0E00               	movlw	high _USBAlternateInterface
  3782  0025C4  22DA               	addwfc	fsr2h,f,c
  3783  0025C6  C432 FFDF          	movff	1074,indf2	;volatile
  3784                           
  3785                           ;usb_device.c: 2731:             break;
  3786  0025CA  EF31  F013         	goto	l454
  3787  0025CE                     l6869:
  3788                           
  3789                           ; BSR set to: 0
  3790                           ;usb_device.c: 2733:             USER_USB_CALLBACK_EVENT_HANDLER((USB_EVENT)EVENT_SET_DE
      +                          SCRIPTOR,0,0);
  3791  0025CE  0E00               	movlw	0
  3792  0025D0  6FEC               	movwf	(USER_USB_CALLBACK_EVENT_HANDLER@event+1)& (0+255),b
  3793  0025D2  0E02               	movlw	2
  3794  0025D4  6FEB               	movwf	USER_USB_CALLBACK_EVENT_HANDLER@event& (0+255),b
  3795  0025D6  0E00               	movlw	0
  3796  0025D8  6FED               	movwf	USER_USB_CALLBACK_EVENT_HANDLER@pdata& (0+255),b
  3797  0025DA  0E00               	movlw	0
  3798  0025DC  6FEE               	movwf	(USER_USB_CALLBACK_EVENT_HANDLER@pdata+1)& (0+255),b
  3799  0025DE  0E00               	movlw	0
  3800  0025E0  6FF0               	movwf	(USER_USB_CALLBACK_EVENT_HANDLER@size+1)& (0+255),b
  3801  0025E2  0E00               	movlw	0
  3802  0025E4  6FEF               	movwf	USER_USB_CALLBACK_EVENT_HANDLER@size& (0+255),b
  3803  0025E6  EC62  F01C         	call	_USER_USB_CALLBACK_EVENT_HANDLER	;wreg free
  3804                           
  3805                           ;usb_device.c: 2734:             break;
  3806  0025EA  EF31  F013         	goto	l454
  3807  0025EE                     l6873:
  3808                           
  3809                           ; BSR set to: 4
  3810  0025EE  5131               	movf	49,w,b	;volatile
  3811  0025F0  0100               	movlb	0	; () banked
  3812  0025F2  6FF5               	movwf	??_USBCheckStdRequest& (0+255),b
  3813  0025F4  6BF6               	clrf	(??_USBCheckStdRequest+1)& (0+255),b
  3814                           
  3815                           ; Switch on 2 bytes has been partitioned into a top level switch of size 1, and 1 sub-sw
      +                          itches
  3816                           ; Switch size 1, requested type "simple"
  3817                           ; Number of cases is 1, Range of values is 0 to 0
  3818                           ; switch strategies available:
  3819                           ; Name         Instructions Cycles
  3820                           ; simple_byte            4     3 (average)
  3821                           ;	Chosen strategy is simple_byte
  3822  0025F6  51F6               	movf	(??_USBCheckStdRequest+1)& (0+255),w,b
  3823  0025F8  0A00               	xorlw	0	; case 0
  3824  0025FA  B4D8               	btfsc	status,2,c
  3825  0025FC  EF02  F013         	goto	l7737
  3826  002600  EF31  F013         	goto	l454
  3827  002604                     l7737:
  3828                           
  3829                           ; BSR set to: 0
  3830                           ; Switch size 1, requested type "simple"
  3831                           ; Number of cases is 11, Range of values is 0 to 12
  3832                           ; switch strategies available:
  3833                           ; Name         Instructions Cycles
  3834                           ; simple_byte           34    18 (average)
  3835                           ;	Chosen strategy is simple_byte
  3836  002604  51F5               	movf	??_USBCheckStdRequest& (0+255),w,b
  3837  002606  0A00               	xorlw	0	; case 0
  3838  002608  B4D8               	btfsc	status,2,c
  3839  00260A  EFC6  F012         	goto	l6855
  3840  00260E  0A01               	xorlw	1	; case 1
  3841  002610  B4D8               	btfsc	status,2,c
  3842  002612  EFCA  F012         	goto	l6857
  3843  002616  0A02               	xorlw	2	; case 3
  3844  002618  B4D8               	btfsc	status,2,c
  3845  00261A  EFCA  F012         	goto	l6857
  3846  00261E  0A06               	xorlw	6	; case 5
  3847  002620  B4D8               	btfsc	status,2,c
  3848  002622  EFAF  F012         	goto	l456
  3849  002626  0A03               	xorlw	3	; case 6
  3850  002628  B4D8               	btfsc	status,2,c
  3851  00262A  EFB4  F012         	goto	l6843
  3852  00262E  0A01               	xorlw	1	; case 7
  3853  002630  B4D8               	btfsc	status,2,c
  3854  002632  EFE7  F012         	goto	l6869
  3855  002636  0A0F               	xorlw	15	; case 8
  3856  002638  B4D8               	btfsc	status,2,c
  3857  00263A  EFBC  F012         	goto	l6847
  3858  00263E  0A01               	xorlw	1	; case 9
  3859  002640  B4D8               	btfsc	status,2,c
  3860  002642  EFB8  F012         	goto	l6845
  3861  002646  0A03               	xorlw	3	; case 10
  3862  002648  B4D8               	btfsc	status,2,c
  3863  00264A  EFCE  F012         	goto	l6859
  3864  00264E  0A01               	xorlw	1	; case 11
  3865  002650  B4D8               	btfsc	status,2,c
  3866  002652  EFDB  F012         	goto	l465
  3867  002656  0A07               	xorlw	7	; case 12
  3868  002658  B4D8               	btfsc	status,2,c
  3869  00265A  EF31  F013         	goto	l454
  3870  00265E  EF31  F013         	goto	l454
  3871  002662                     l454:
  3872  002662  0012               	return		;funcret
  3873  002664                     __end_of_USBCheckStdRequest:
  3874                           	opt callstack 0
  3875                           
  3876 ;; *************** function _USBStdSetCfgHandler *****************
  3877 ;; Defined at:
  3878 ;;		line 1974 in file "usb_device.c"
  3879 ;; Parameters:    Size  Location     Type
  3880 ;;		None
  3881 ;; Auto vars:     Size  Location     Type
  3882 ;;  i               1   20[BANK0 ] unsigned char 
  3883 ;; Return value:  Size  Location     Type
  3884 ;;                  1    wreg      void 
  3885 ;; Registers used:
  3886 ;;		wreg, fsr2l, fsr2h, status,2, status,0, prodl, prodh, cstack
  3887 ;; Tracked objects:
  3888 ;;		On entry : 0/0
  3889 ;;		On exit  : 0/0
  3890 ;;		Unchanged: 0/0
  3891 ;; Data sizes:     COMRAM   BANK0   BANK1   BANK2   BANK3  BANK4h  BANK4l   BANK5   BANK6   BANK7
  3892 ;;      Params:         0       0       0       0       0       0       0       0       0       0
  3893 ;;      Locals:         0       1       0       0       0       0       0       0       0       0
  3894 ;;      Temps:          0       0       0       0       0       0       0       0       0       0
  3895 ;;      Totals:         0       1       0       0       0       0       0       0       0       0
  3896 ;;Total ram usage:        1 bytes
  3897 ;; Hardware stack levels used:    1
  3898 ;; Hardware stack levels required when called:   15
  3899 ;; This function calls:
  3900 ;;		_USER_USB_CALLBACK_EVENT_HANDLER
  3901 ;;		_memset
  3902 ;; This function is called by:
  3903 ;;		_USBCheckStdRequest
  3904 ;; This function uses a non-reentrant model
  3905 ;;
  3906                           
  3907                           	psect	text21
  3908  0031A2                     __ptext21:
  3909                           	opt callstack 0
  3910  0031A2                     _USBStdSetCfgHandler:
  3911                           	opt callstack 11
  3912  0031A2                     
  3913                           ;usb_device.c: 1976:     uint8_t i;;usb_device.c: 1979:     inPipes[0].info.bits.busy = 
      +                          1;
  3914  0031A2  8E0C               	bsf	(_inPipes+3)^0,7,c	;volatile
  3915  0031A4                     
  3916                           ;usb_device.c: 1982:     memset((void*)&UEP1,0x00,(2));;
  3917  0031A4  0E71               	movlw	113
  3918  0031A6  0100               	movlb	0	; () banked
  3919  0031A8  6FDF               	movwf	memset@dest& (0+255),b
  3920  0031AA  0E0F               	movlw	15
  3921  0031AC  6FE0               	movwf	(memset@dest+1)& (0+255),b
  3922  0031AE  0E00               	movlw	0
  3923  0031B0  6FE2               	movwf	(memset@c+1)& (0+255),b
  3924  0031B2  0E00               	movlw	0
  3925  0031B4  6FE1               	movwf	memset@c& (0+255),b
  3926  0031B6  0E00               	movlw	0
  3927  0031B8  6FE4               	movwf	(memset@n+1)& (0+255),b
  3928  0031BA  0E02               	movlw	2
  3929  0031BC  6FE3               	movwf	memset@n& (0+255),b
  3930  0031BE  ECB3  F00A         	call	_memset	;wreg free
  3931                           
  3932                           ;usb_device.c: 1985:     memset((void*)&BDT[0], 0x00, sizeof(BDT));
  3933  0031C2  0E00               	movlw	0
  3934  0031C4  0100               	movlb	0	; () banked
  3935  0031C6  6FDF               	movwf	memset@dest& (0+255),b
  3936  0031C8  0E04               	movlw	4
  3937  0031CA  6FE0               	movwf	(memset@dest+1)& (0+255),b
  3938  0031CC  0E00               	movlw	0
  3939  0031CE  6FE2               	movwf	(memset@c+1)& (0+255),b
  3940  0031D0  0E00               	movlw	0
  3941  0031D2  6FE1               	movwf	memset@c& (0+255),b
  3942  0031D4  0E00               	movlw	0
  3943  0031D6  6FE4               	movwf	(memset@n+1)& (0+255),b
  3944  0031D8  0E30               	movlw	48
  3945  0031DA  6FE3               	movwf	memset@n& (0+255),b
  3946  0031DC  ECB3  F00A         	call	_memset	;wreg free
  3947  0031E0                     
  3948                           ;usb_device.c: 1988:     UCONbits.PPBRST = 1;
  3949  0031E0  8C6D               	bsf	109,6,c	;volatile
  3950  0031E2                     
  3951                           ;usb_device.c: 1993:  for(i = 0; i < (uint8_t)(2 +1u); i++)
  3952  0031E2  0E00               	movlw	0
  3953  0031E4  0100               	movlb	0	; () banked
  3954  0031E6  6FF3               	movwf	USBStdSetCfgHandler@i& (0+255),b
  3955  0031E8                     l6561:
  3956                           
  3957                           ; BSR set to: 0
  3958                           ;usb_device.c: 1994:  {;usb_device.c: 1995:   ep_data_in[i].Val = 0u;
  3959  0031E8  0E18               	movlw	low _ep_data_in
  3960  0031EA  25F3               	addwf	USBStdSetCfgHandler@i& (0+255),w,b
  3961  0031EC  6ED9               	movwf	fsr2l,c
  3962  0031EE  6ADA               	clrf	fsr2h,c
  3963  0031F0  0E00               	movlw	high _ep_data_in
  3964  0031F2  22DA               	addwfc	fsr2h,f,c
  3965  0031F4  0E00               	movlw	0
  3966  0031F6  6EDF               	movwf	indf2,c
  3967                           
  3968                           ;usb_device.c: 1996:         ep_data_out[i].Val = 0u;
  3969  0031F8  0E15               	movlw	low _ep_data_out
  3970  0031FA  25F3               	addwf	USBStdSetCfgHandler@i& (0+255),w,b
  3971  0031FC  6ED9               	movwf	fsr2l,c
  3972  0031FE  6ADA               	clrf	fsr2h,c
  3973  003200  0E00               	movlw	high _ep_data_out
  3974  003202  22DA               	addwfc	fsr2h,f,c
  3975  003204  0E00               	movlw	0
  3976  003206  6EDF               	movwf	indf2,c
  3977  003208                     
  3978                           ; BSR set to: 0
  3979                           ;usb_device.c: 1997:  }
  3980  003208  2BF3               	incf	USBStdSetCfgHandler@i& (0+255),f,b
  3981  00320A                     
  3982                           ; BSR set to: 0
  3983  00320A  0E02               	movlw	2
  3984  00320C  65F3               	cpfsgt	USBStdSetCfgHandler@i& (0+255),b
  3985  00320E  EF0B  F019         	goto	u5781
  3986  003212  EF0D  F019         	goto	u5780
  3987  003216                     u5781:
  3988  003216  EFF4  F018         	goto	l6561
  3989  00321A                     u5780:
  3990  00321A                     
  3991                           ; BSR set to: 0
  3992                           ;usb_device.c: 2000:     memset((void*)&USBAlternateInterface,0x00,2);
  3993  00321A  0EDC               	movlw	low _USBAlternateInterface
  3994  00321C  6FDF               	movwf	memset@dest& (0+255),b
  3995  00321E  0E00               	movlw	high _USBAlternateInterface
  3996  003220  6FE0               	movwf	(memset@dest+1)& (0+255),b
  3997  003222  0E00               	movlw	0
  3998  003224  6FE2               	movwf	(memset@c+1)& (0+255),b
  3999  003226  0E00               	movlw	0
  4000  003228  6FE1               	movwf	memset@c& (0+255),b
  4001  00322A  0E00               	movlw	0
  4002  00322C  6FE4               	movwf	(memset@n+1)& (0+255),b
  4003  00322E  0E02               	movlw	2
  4004  003230  6FE3               	movwf	memset@n& (0+255),b
  4005  003232  ECB3  F00A         	call	_memset	;wreg free
  4006  003236                     
  4007                           ;usb_device.c: 2003:     UCONbits.PPBRST = 0;
  4008  003236  9C6D               	bcf	109,6,c	;volatile
  4009  003238                     
  4010                           ;usb_device.c: 2005:     pBDTEntryIn[0] = (volatile BDT_ENTRY*)&BDT[2];
  4011  003238  0E08               	movlw	8
  4012  00323A  6E0F               	movwf	_pBDTEntryIn^0,c
  4013  00323C  0E04               	movlw	4
  4014  00323E  6E10               	movwf	(_pBDTEntryIn+1)^0,c
  4015  003240                     
  4016                           ;usb_device.c: 2008:     pBDTEntryEP0OutCurrent = (volatile BDT_ENTRY*)&BDT[0];
  4017  003240  0E00               	movlw	0
  4018  003242  6E1D               	movwf	_pBDTEntryEP0OutCurrent^0,c
  4019  003244  0E04               	movlw	4
  4020  003246  6E1E               	movwf	(_pBDTEntryEP0OutCurrent+1)^0,c
  4021  003248                     
  4022                           ;usb_device.c: 2009:     pBDTEntryEP0OutNext = pBDTEntryEP0OutCurrent;
  4023  003248  C01D  F01B         	movff	_pBDTEntryEP0OutCurrent,_pBDTEntryEP0OutNext
  4024  00324C  C01E  F01C         	movff	_pBDTEntryEP0OutCurrent+1,_pBDTEntryEP0OutNext+1
  4025  003250                     
  4026                           ;usb_device.c: 2012:     USBActiveConfiguration = SetupPkt.bConfigurationValue;
  4027  003250  C432 F02A          	movff	1074,_USBActiveConfiguration	;volatile
  4028  003254                     
  4029                           ;usb_device.c: 2015:     if(USBActiveConfiguration == 0)
  4030  003254  502A               	movf	_USBActiveConfiguration^0,w,c	;volatile
  4031  003256  A4D8               	btfss	status,2,c
  4032  003258  EF30  F019         	goto	u5791
  4033  00325C  EF32  F019         	goto	u5790
  4034  003260                     u5791:
  4035  003260  EF36  F019         	goto	l6583
  4036  003264                     u5790:
  4037  003264                     
  4038                           ;usb_device.c: 2016:     {;usb_device.c: 2018:         USBDeviceState = ADDRESS_STATE;
  4039  003264  0E10               	movlw	16
  4040  003266  6E29               	movwf	_USBDeviceState^0,c	;volatile
  4041                           
  4042                           ;usb_device.c: 2019:     }
  4043  003268  EF47  F019         	goto	l376
  4044  00326C                     l6583:
  4045                           
  4046                           ;usb_device.c: 2021:     {;usb_device.c: 2023:         USER_USB_CALLBACK_EVENT_HANDLER((
      +                          USB_EVENT)EVENT_CONFIGURED,(void*)&USBActiveConfiguration,1);
  4047  00326C  0E00               	movlw	0
  4048  00326E  0100               	movlb	0	; () banked
  4049  003270  6FEC               	movwf	(USER_USB_CALLBACK_EVENT_HANDLER@event+1)& (0+255),b
  4050  003272  0E01               	movlw	1
  4051  003274  6FEB               	movwf	USER_USB_CALLBACK_EVENT_HANDLER@event& (0+255),b
  4052  003276  0E2A               	movlw	low _USBActiveConfiguration
  4053  003278  6FED               	movwf	USER_USB_CALLBACK_EVENT_HANDLER@pdata& (0+255),b
  4054  00327A  0E00               	movlw	high _USBActiveConfiguration
  4055  00327C  6FEE               	movwf	(USER_USB_CALLBACK_EVENT_HANDLER@pdata+1)& (0+255),b
  4056  00327E  0E00               	movlw	0
  4057  003280  6FF0               	movwf	(USER_USB_CALLBACK_EVENT_HANDLER@size+1)& (0+255),b
  4058  003282  0E01               	movlw	1
  4059  003284  6FEF               	movwf	USER_USB_CALLBACK_EVENT_HANDLER@size& (0+255),b
  4060  003286  EC62  F01C         	call	_USER_USB_CALLBACK_EVENT_HANDLER	;wreg free
  4061  00328A                     
  4062                           ;usb_device.c: 2028:         USBDeviceState = CONFIGURED_STATE;
  4063  00328A  0E20               	movlw	32
  4064  00328C  6E29               	movwf	_USBDeviceState^0,c	;volatile
  4065  00328E                     l376:
  4066  00328E  0012               	return		;funcret
  4067  003290                     __end_of_USBStdSetCfgHandler:
  4068                           	opt callstack 0
  4069                           
  4070 ;; *************** function _memset *****************
  4071 ;; Defined at:
  4072 ;;		line 4 in file "C:\Program Files (x86)\Microchip\xc8\v2.10\pic\sources\c99\common\memset.c"
  4073 ;; Parameters:    Size  Location     Type
  4074 ;;  dest            2    0[BANK0 ] PTR void 
  4075 ;;		 -> USBAlternateInterface(2), BDT(48), UEP1(1), 
  4076 ;;  c               2    2[BANK0 ] int 
  4077 ;;  n               2    4[BANK0 ] unsigned int 
  4078 ;; Auto vars:     Size  Location     Type
  4079 ;;  s               2   10[BANK0 ] PTR unsigned char 
  4080 ;;		 -> USBAlternateInterface(2), BDT(48), UEP1(1), 
  4081 ;;  k               2    8[BANK0 ] unsigned int 
  4082 ;; Return value:  Size  Location     Type
  4083 ;;                  2    0[BANK0 ] PTR void 
  4084 ;; Registers used:
  4085 ;;		wreg, fsr2l, fsr2h, status,2, status,0
  4086 ;; Tracked objects:
  4087 ;;		On entry : 0/0
  4088 ;;		On exit  : 0/0
  4089 ;;		Unchanged: 0/0
  4090 ;; Data sizes:     COMRAM   BANK0   BANK1   BANK2   BANK3  BANK4h  BANK4l   BANK5   BANK6   BANK7
  4091 ;;      Params:         0       6       0       0       0       0       0       0       0       0
  4092 ;;      Locals:         0       4       0       0       0       0       0       0       0       0
  4093 ;;      Temps:          0       2       0       0       0       0       0       0       0       0
  4094 ;;      Totals:         0      12       0       0       0       0       0       0       0       0
  4095 ;;Total ram usage:       12 bytes
  4096 ;; Hardware stack levels used:    1
  4097 ;; Hardware stack levels required when called:   11
  4098 ;; This function calls:
  4099 ;;		Nothing
  4100 ;; This function is called by:
  4101 ;;		_USBDeviceInit
  4102 ;;		_USBStdSetCfgHandler
  4103 ;; This function uses a non-reentrant model
  4104 ;;
  4105                           
  4106                           	psect	text22
  4107  001566                     __ptext22:
  4108                           	opt callstack 0
  4109  001566                     _memset:
  4110                           	opt callstack 17
  4111  001566  C0DF  F0E9         	movff	memset@dest,memset@s
  4112  00156A  C0E0  F0EA         	movff	memset@dest+1,memset@s+1
  4113  00156E  0100               	movlb	0	; () banked
  4114  001570  51E3               	movf	memset@n& (0+255),w,b
  4115  001572  11E4               	iorwf	(memset@n+1)& (0+255),w,b
  4116  001574  A4D8               	btfss	status,2,c
  4117  001576  EFBF  F00A         	goto	u5591
  4118  00157A  EFC1  F00A         	goto	u5590
  4119  00157E                     u5591:
  4120  00157E  EFC3  F00A         	goto	l6403
  4121  001582                     u5590:
  4122  001582  EF6E  F00B         	goto	l1325
  4123  001586                     l6403:
  4124                           
  4125                           ; BSR set to: 0
  4126  001586  C0E9  FFD9         	movff	memset@s,fsr2l
  4127  00158A  C0EA  FFDA         	movff	memset@s+1,fsr2h
  4128  00158E  C0E1  FFDF         	movff	memset@c,indf2
  4129  001592                     
  4130                           ; BSR set to: 0
  4131  001592  51E3               	movf	memset@n& (0+255),w,b
  4132  001594  25E9               	addwf	memset@s& (0+255),w,b
  4133  001596  6FE5               	movwf	??_memset& (0+255),b
  4134  001598  51E4               	movf	(memset@n+1)& (0+255),w,b
  4135  00159A  21EA               	addwfc	(memset@s+1)& (0+255),w,b
  4136  00159C  6FE6               	movwf	(??_memset+1)& (0+255),b
  4137  00159E  0EFF               	movlw	255
  4138  0015A0  25E5               	addwf	??_memset& (0+255),w,b
  4139  0015A2  6ED9               	movwf	fsr2l,c
  4140  0015A4  0EFF               	movlw	255
  4141  0015A6  21E6               	addwfc	(??_memset+1)& (0+255),w,b
  4142  0015A8  6EDA               	movwf	fsr2h,c
  4143  0015AA  C0E1  FFDF         	movff	memset@c,indf2
  4144  0015AE  51E4               	movf	(memset@n+1)& (0+255),w,b
  4145  0015B0  E107               	bnz	u5601
  4146  0015B2  0E03               	movlw	3
  4147  0015B4  5DE3               	subwf	memset@n& (0+255),w,b
  4148  0015B6  B0D8               	btfsc	status,0,c
  4149  0015B8  EFE0  F00A         	goto	u5601
  4150  0015BC  EFE2  F00A         	goto	u5600
  4151  0015C0                     u5601:
  4152  0015C0  EFE4  F00A         	goto	l6409
  4153  0015C4                     u5600:
  4154  0015C4  EF6E  F00B         	goto	l1325
  4155  0015C8                     l6409:
  4156                           
  4157                           ; BSR set to: 0
  4158  0015C8  EE20 F001          	lfsr	2,1
  4159  0015CC  51E9               	movf	memset@s& (0+255),w,b
  4160  0015CE  26D9               	addwf	fsr2l,f,c
  4161  0015D0  51EA               	movf	(memset@s+1)& (0+255),w,b
  4162  0015D2  22DA               	addwfc	fsr2h,f,c
  4163  0015D4  C0E1  FFDF         	movff	memset@c,indf2
  4164  0015D8  EE20 F002          	lfsr	2,2
  4165  0015DC  51E9               	movf	memset@s& (0+255),w,b
  4166  0015DE  26D9               	addwf	fsr2l,f,c
  4167  0015E0  51EA               	movf	(memset@s+1)& (0+255),w,b
  4168  0015E2  22DA               	addwfc	fsr2h,f,c
  4169  0015E4  C0E1  FFDF         	movff	memset@c,indf2
  4170  0015E8  51E3               	movf	memset@n& (0+255),w,b
  4171  0015EA  25E9               	addwf	memset@s& (0+255),w,b
  4172  0015EC  6FE5               	movwf	??_memset& (0+255),b
  4173  0015EE  51E4               	movf	(memset@n+1)& (0+255),w,b
  4174  0015F0  21EA               	addwfc	(memset@s+1)& (0+255),w,b
  4175  0015F2  6FE6               	movwf	(??_memset+1)& (0+255),b
  4176  0015F4  0EFE               	movlw	254
  4177  0015F6  25E5               	addwf	??_memset& (0+255),w,b
  4178  0015F8  6ED9               	movwf	fsr2l,c
  4179  0015FA  0EFF               	movlw	255
  4180  0015FC  21E6               	addwfc	(??_memset+1)& (0+255),w,b
  4181  0015FE  6EDA               	movwf	fsr2h,c
  4182  001600  C0E1  FFDF         	movff	memset@c,indf2
  4183  001604  51E3               	movf	memset@n& (0+255),w,b
  4184  001606  25E9               	addwf	memset@s& (0+255),w,b
  4185  001608  6FE5               	movwf	??_memset& (0+255),b
  4186  00160A  51E4               	movf	(memset@n+1)& (0+255),w,b
  4187  00160C  21EA               	addwfc	(memset@s+1)& (0+255),w,b
  4188  00160E  6FE6               	movwf	(??_memset+1)& (0+255),b
  4189  001610  0EFD               	movlw	253
  4190  001612  25E5               	addwf	??_memset& (0+255),w,b
  4191  001614  6ED9               	movwf	fsr2l,c
  4192  001616  0EFF               	movlw	255
  4193  001618  21E6               	addwfc	(??_memset+1)& (0+255),w,b
  4194  00161A  6EDA               	movwf	fsr2h,c
  4195  00161C  C0E1  FFDF         	movff	memset@c,indf2
  4196  001620                     
  4197                           ; BSR set to: 0
  4198  001620  51E4               	movf	(memset@n+1)& (0+255),w,b
  4199  001622  E107               	bnz	u5611
  4200  001624  0E07               	movlw	7
  4201  001626  5DE3               	subwf	memset@n& (0+255),w,b
  4202  001628  B0D8               	btfsc	status,0,c
  4203  00162A  EF19  F00B         	goto	u5611
  4204  00162E  EF1B  F00B         	goto	u5610
  4205  001632                     u5611:
  4206  001632  EF1D  F00B         	goto	l6415
  4207  001636                     u5610:
  4208  001636  EF6E  F00B         	goto	l1325
  4209  00163A                     l6415:
  4210                           
  4211                           ; BSR set to: 0
  4212  00163A  EE20 F003          	lfsr	2,3
  4213  00163E  51E9               	movf	memset@s& (0+255),w,b
  4214  001640  26D9               	addwf	fsr2l,f,c
  4215  001642  51EA               	movf	(memset@s+1)& (0+255),w,b
  4216  001644  22DA               	addwfc	fsr2h,f,c
  4217  001646  C0E1  FFDF         	movff	memset@c,indf2
  4218  00164A  51E3               	movf	memset@n& (0+255),w,b
  4219  00164C  25E9               	addwf	memset@s& (0+255),w,b
  4220  00164E  6FE5               	movwf	??_memset& (0+255),b
  4221  001650  51E4               	movf	(memset@n+1)& (0+255),w,b
  4222  001652  21EA               	addwfc	(memset@s+1)& (0+255),w,b
  4223  001654  6FE6               	movwf	(??_memset+1)& (0+255),b
  4224  001656  0EFC               	movlw	252
  4225  001658  25E5               	addwf	??_memset& (0+255),w,b
  4226  00165A  6ED9               	movwf	fsr2l,c
  4227  00165C  0EFF               	movlw	255
  4228  00165E  21E6               	addwfc	(??_memset+1)& (0+255),w,b
  4229  001660  6EDA               	movwf	fsr2h,c
  4230  001662  C0E1  FFDF         	movff	memset@c,indf2
  4231  001666                     
  4232                           ; BSR set to: 0
  4233  001666  51E4               	movf	(memset@n+1)& (0+255),w,b
  4234  001668  E107               	bnz	u5621
  4235  00166A  0E09               	movlw	9
  4236  00166C  5DE3               	subwf	memset@n& (0+255),w,b
  4237  00166E  B0D8               	btfsc	status,0,c
  4238  001670  EF3C  F00B         	goto	u5621
  4239  001674  EF3E  F00B         	goto	u5620
  4240  001678                     u5621:
  4241  001678  EF40  F00B         	goto	l6421
  4242  00167C                     u5620:
  4243  00167C  EF6E  F00B         	goto	l1325
  4244  001680                     l6421:
  4245                           
  4246                           ; BSR set to: 0
  4247  001680  C0E9  F0E5         	movff	memset@s,??_memset
  4248  001684  C0EA  F0E6         	movff	memset@s+1,??_memset+1
  4249  001688  1FE5               	comf	??_memset& (0+255),f,b
  4250  00168A  1FE6               	comf	(??_memset+1)& (0+255),f,b
  4251  00168C  4BE5               	infsnz	??_memset& (0+255),f,b
  4252  00168E  2BE6               	incf	(??_memset+1)& (0+255),f,b
  4253  001690  0E03               	movlw	3
  4254  001692  15E5               	andwf	??_memset& (0+255),w,b
  4255  001694  6FE7               	movwf	memset@k& (0+255),b
  4256  001696  6BE8               	clrf	(memset@k+1)& (0+255),b
  4257  001698  51E7               	movf	memset@k& (0+255),w,b
  4258  00169A  27E9               	addwf	memset@s& (0+255),f,b
  4259  00169C  51E8               	movf	(memset@k+1)& (0+255),w,b
  4260  00169E  23EA               	addwfc	(memset@s+1)& (0+255),f,b
  4261  0016A0  51E7               	movf	memset@k& (0+255),w,b
  4262  0016A2  5FE3               	subwf	memset@n& (0+255),f,b
  4263  0016A4  51E8               	movf	(memset@k+1)& (0+255),w,b
  4264  0016A6  5BE4               	subwfb	(memset@n+1)& (0+255),f,b
  4265  0016A8  0EFC               	movlw	252
  4266  0016AA  17E3               	andwf	memset@n& (0+255),f,b
  4267  0016AC  0EFF               	movlw	255
  4268  0016AE  17E4               	andwf	(memset@n+1)& (0+255),f,b
  4269  0016B0  EF65  F00B         	goto	l6429
  4270  0016B4                     l6423:
  4271                           
  4272                           ; BSR set to: 0
  4273  0016B4  C0E9  FFD9         	movff	memset@s,fsr2l
  4274  0016B8  C0EA  FFDA         	movff	memset@s+1,fsr2h
  4275  0016BC  C0E1  FFDF         	movff	memset@c,indf2
  4276  0016C0                     
  4277                           ; BSR set to: 0
  4278  0016C0  07E3               	decf	memset@n& (0+255),f,b
  4279  0016C2  A0D8               	btfss	status,0,c
  4280  0016C4  07E4               	decf	(memset@n+1)& (0+255),f,b
  4281  0016C6                     
  4282                           ; BSR set to: 0
  4283  0016C6  4BE9               	infsnz	memset@s& (0+255),f,b
  4284  0016C8  2BEA               	incf	(memset@s+1)& (0+255),f,b
  4285  0016CA                     l6429:
  4286                           
  4287                           ; BSR set to: 0
  4288  0016CA  51E3               	movf	memset@n& (0+255),w,b
  4289  0016CC  11E4               	iorwf	(memset@n+1)& (0+255),w,b
  4290  0016CE  A4D8               	btfss	status,2,c
  4291  0016D0  EF6C  F00B         	goto	u5631
  4292  0016D4  EF6E  F00B         	goto	u5630
  4293  0016D8                     u5631:
  4294  0016D8  EF5A  F00B         	goto	l6423
  4295  0016DC                     u5630:
  4296  0016DC                     l1325:
  4297                           
  4298                           ; BSR set to: 0
  4299  0016DC  0012               	return		;funcret
  4300  0016DE                     __end_of_memset:
  4301                           	opt callstack 0
  4302                           
  4303 ;; *************** function _USBStdGetStatusHandler *****************
  4304 ;; Defined at:
  4305 ;;		line 2135 in file "usb_device.c"
  4306 ;; Parameters:    Size  Location     Type
  4307 ;;		None
  4308 ;; Auto vars:     Size  Location     Type
  4309 ;;  p               2    2[BANK0 ] PTR struct __BDT
  4310 ;;		 -> RAM(2047), NULL(0), BDT(48), 
  4311 ;; Return value:  Size  Location     Type
  4312 ;;                  1    wreg      void 
  4313 ;; Registers used:
  4314 ;;		wreg, fsr2l, fsr2h, status,2, status,0, prodl, prodh
  4315 ;; Tracked objects:
  4316 ;;		On entry : 0/0
  4317 ;;		On exit  : 0/0
  4318 ;;		Unchanged: 0/0
  4319 ;; Data sizes:     COMRAM   BANK0   BANK1   BANK2   BANK3  BANK4h  BANK4l   BANK5   BANK6   BANK7
  4320 ;;      Params:         0       0       0       0       0       0       0       0       0       0
  4321 ;;      Locals:         0       2       0       0       0       0       0       0       0       0
  4322 ;;      Temps:          0       2       0       0       0       0       0       0       0       0
  4323 ;;      Totals:         0       4       0       0       0       0       0       0       0       0
  4324 ;;Total ram usage:        4 bytes
  4325 ;; Hardware stack levels used:    1
  4326 ;; Hardware stack levels required when called:   11
  4327 ;; This function calls:
  4328 ;;		Nothing
  4329 ;; This function is called by:
  4330 ;;		_USBCheckStdRequest
  4331 ;; This function uses a non-reentrant model
  4332 ;;
  4333                           
  4334                           	psect	text23
  4335  0029A0                     __ptext23:
  4336                           	opt callstack 0
  4337  0029A0                     _USBStdGetStatusHandler:
  4338                           	opt callstack 15
  4339  0029A0                     
  4340                           ;usb_device.c: 2137:     CtrlTrfData[0] = 0;
  4341  0029A0  0E00               	movlw	0
  4342  0029A2  0104               	movlb	4	; () banked
  4343  0029A4  6F50               	movwf	80,b	;volatile
  4344                           
  4345                           ;usb_device.c: 2138:     CtrlTrfData[1] = 0;
  4346  0029A6  0E00               	movlw	0
  4347  0029A8  6F51               	movwf	81,b	;volatile
  4348                           
  4349                           ;usb_device.c: 2140:     switch(SetupPkt.Recipient)
  4350  0029AA  EF2D  F015         	goto	l6645
  4351  0029AE                     l394:
  4352                           
  4353                           ; BSR set to: 0
  4354                           ;usb_device.c: 2143:             inPipes[0].info.bits.busy = 1;
  4355  0029AE  8E0C               	bsf	(_inPipes+3)^0,7,c	;volatile
  4356  0029B0                     
  4357                           ; BSR set to: 0
  4358                           ;usb_device.c: 2153:             if(RemoteWakeup == 1)
  4359  0029B0  0426               	decf	_RemoteWakeup^0,w,c	;volatile
  4360  0029B2  A4D8               	btfss	status,2,c
  4361  0029B4  EFDE  F014         	goto	u5861
  4362  0029B8  EFE0  F014         	goto	u5860
  4363  0029BC                     u5861:
  4364  0029BC  EF48  F015         	goto	l397
  4365  0029C0                     u5860:
  4366  0029C0                     
  4367                           ; BSR set to: 0
  4368                           ;usb_device.c: 2154:             {;usb_device.c: 2155:                 CtrlTrfData[0]|=0
      +                          x02;
  4369  0029C0  0104               	movlb	4	; () banked
  4370  0029C2  8350               	bsf	80,1,b	;volatile
  4371  0029C4  EF48  F015         	goto	l397
  4372  0029C8                     l398:
  4373                           
  4374                           ; BSR set to: 0
  4375                           ;usb_device.c: 2159:             inPipes[0].info.bits.busy = 1;
  4376  0029C8  8E0C               	bsf	(_inPipes+3)^0,7,c	;volatile
  4377                           
  4378                           ;usb_device.c: 2160:             break;
  4379  0029CA  EF48  F015         	goto	l397
  4380  0029CE                     l399:
  4381                           
  4382                           ; BSR set to: 0
  4383                           ;usb_device.c: 2162:             inPipes[0].info.bits.busy = 1;
  4384  0029CE  8E0C               	bsf	(_inPipes+3)^0,7,c	;volatile
  4385                           
  4386                           ;usb_device.c: 2166:             {;usb_device.c: 2167:                 BDT_ENTRY *p;;usb
      +                          _device.c: 2169:                 if(SetupPkt.EPDir == 0)
  4387  0029D0  0104               	movlb	4	; () banked
  4388  0029D2  BF34               	btfsc	52,7,b	;volatile
  4389  0029D4  EFEE  F014         	goto	u5871
  4390  0029D8  EFF0  F014         	goto	u5870
  4391  0029DC                     u5871:
  4392  0029DC  EF02  F015         	goto	l6635
  4393  0029E0                     u5870:
  4394  0029E0                     
  4395                           ; BSR set to: 4
  4396                           ;usb_device.c: 2170:                 {;usb_device.c: 2171:                     p = (BDT_
      +                          ENTRY*)pBDTEntryOut[SetupPkt.EPNum];
  4397  0029E0  5134               	movf	52,w,b	;volatile
  4398  0029E2  0B0F               	andlw	15
  4399  0029E4  0100               	movlb	0	; () banked
  4400  0029E6  6FDF               	movwf	??_USBStdGetStatusHandler& (0+255),b
  4401  0029E8  51DF               	movf	??_USBStdGetStatusHandler& (0+255),w,b
  4402  0029EA  0D02               	mullw	2
  4403  0029EC  0EAA               	movlw	low _pBDTEntryOut
  4404  0029EE  24F3               	addwf	243,w,c
  4405  0029F0  6ED9               	movwf	fsr2l,c
  4406  0029F2  0E00               	movlw	high _pBDTEntryOut
  4407  0029F4  20F4               	addwfc	prodh,w,c
  4408  0029F6  6EDA               	movwf	fsr2h,c
  4409  0029F8  CFDE F0E1          	movff	postinc2,USBStdGetStatusHandler@p
  4410  0029FC  CFDD F0E2          	movff	postdec2,USBStdGetStatusHandler@p+1
  4411                           
  4412                           ;usb_device.c: 2172:                 }
  4413  002A00  EF12  F015         	goto	l6637
  4414  002A04                     l6635:
  4415                           
  4416                           ; BSR set to: 4
  4417                           ;usb_device.c: 2174:                 {;usb_device.c: 2175:                     p = (BDT_
      +                          ENTRY*)pBDTEntryIn[SetupPkt.EPNum];
  4418  002A04  5134               	movf	52,w,b	;volatile
  4419  002A06  0B0F               	andlw	15
  4420  002A08  0100               	movlb	0	; () banked
  4421  002A0A  6FDF               	movwf	??_USBStdGetStatusHandler& (0+255),b
  4422  002A0C  51DF               	movf	??_USBStdGetStatusHandler& (0+255),w,b
  4423  002A0E  0D02               	mullw	2
  4424  002A10  0E0F               	movlw	low _pBDTEntryIn
  4425  002A12  24F3               	addwf	243,w,c
  4426  002A14  6ED9               	movwf	fsr2l,c
  4427  002A16  0E00               	movlw	high _pBDTEntryIn
  4428  002A18  20F4               	addwfc	prodh,w,c
  4429  002A1A  6EDA               	movwf	fsr2h,c
  4430  002A1C  CFDE F0E1          	movff	postinc2,USBStdGetStatusHandler@p
  4431  002A20  CFDD F0E2          	movff	postdec2,USBStdGetStatusHandler@p+1
  4432  002A24                     l6637:
  4433                           
  4434                           ; BSR set to: 0
  4435                           ;usb_device.c: 2178:                 if((p->STAT.UOWN == 1) && (p->STAT.BSTALL == 1))
  4436  002A24  C0E1  FFD9         	movff	USBStdGetStatusHandler@p,fsr2l
  4437  002A28  C0E2  FFDA         	movff	USBStdGetStatusHandler@p+1,fsr2h
  4438  002A2C  AEDF               	btfss	indf2,7,c
  4439  002A2E  EF1B  F015         	goto	u5881
  4440  002A32  EF1D  F015         	goto	u5880
  4441  002A36                     u5881:
  4442  002A36  EF48  F015         	goto	l397
  4443  002A3A                     u5880:
  4444  002A3A                     
  4445                           ; BSR set to: 0
  4446  002A3A  C0E1  FFD9         	movff	USBStdGetStatusHandler@p,fsr2l
  4447  002A3E  C0E2  FFDA         	movff	USBStdGetStatusHandler@p+1,fsr2h
  4448  002A42  A4DF               	btfss	indf2,2,c
  4449  002A44  EF26  F015         	goto	u5891
  4450  002A48  EF28  F015         	goto	u5890
  4451  002A4C                     u5891:
  4452  002A4C  EF48  F015         	goto	l397
  4453  002A50                     u5890:
  4454  002A50                     
  4455                           ; BSR set to: 0
  4456                           ;usb_device.c: 2179:                     CtrlTrfData[0]=0x01;
  4457  002A50  0E01               	movlw	1
  4458  002A52  0104               	movlb	4	; () banked
  4459  002A54  6F50               	movwf	80,b	;volatile
  4460  002A56  EF48  F015         	goto	l397
  4461  002A5A                     l6645:
  4462                           
  4463                           ; BSR set to: 4
  4464  002A5A  5130               	movf	48,w,b	;volatile
  4465  002A5C  0B1F               	andlw	31
  4466  002A5E  0100               	movlb	0	; () banked
  4467  002A60  6FDF               	movwf	??_USBStdGetStatusHandler& (0+255),b
  4468  002A62  6BE0               	clrf	(??_USBStdGetStatusHandler+1)& (0+255),b
  4469                           
  4470                           ; Switch on 2 bytes has been partitioned into a top level switch of size 1, and 1 sub-sw
      +                          itches
  4471                           ; Switch size 1, requested type "simple"
  4472                           ; Number of cases is 1, Range of values is 0 to 0
  4473                           ; switch strategies available:
  4474                           ; Name         Instructions Cycles
  4475                           ; simple_byte            4     3 (average)
  4476                           ;	Chosen strategy is simple_byte
  4477  002A64  51E0               	movf	(??_USBStdGetStatusHandler+1)& (0+255),w,b
  4478  002A66  0A00               	xorlw	0	; case 0
  4479  002A68  B4D8               	btfsc	status,2,c
  4480  002A6A  EF39  F015         	goto	l7739
  4481  002A6E  EF48  F015         	goto	l397
  4482  002A72                     l7739:
  4483                           
  4484                           ; BSR set to: 0
  4485                           ; Switch size 1, requested type "simple"
  4486                           ; Number of cases is 3, Range of values is 0 to 2
  4487                           ; switch strategies available:
  4488                           ; Name         Instructions Cycles
  4489                           ; simple_byte           10     6 (average)
  4490                           ;	Chosen strategy is simple_byte
  4491  002A72  51DF               	movf	??_USBStdGetStatusHandler& (0+255),w,b
  4492  002A74  0A00               	xorlw	0	; case 0
  4493  002A76  B4D8               	btfsc	status,2,c
  4494  002A78  EFD7  F014         	goto	l394
  4495  002A7C  0A01               	xorlw	1	; case 1
  4496  002A7E  B4D8               	btfsc	status,2,c
  4497  002A80  EFE4  F014         	goto	l398
  4498  002A84  0A03               	xorlw	3	; case 2
  4499  002A86  B4D8               	btfsc	status,2,c
  4500  002A88  EFE7  F014         	goto	l399
  4501  002A8C  EF48  F015         	goto	l397
  4502  002A90                     l397:
  4503                           
  4504                           ;usb_device.c: 2184:     if(inPipes[0].info.bits.busy == 1)
  4505  002A90  AE0C               	btfss	(_inPipes+3)^0,7,c	;volatile
  4506  002A92  EF4D  F015         	goto	u5901
  4507  002A96  EF4F  F015         	goto	u5900
  4508  002A9A                     u5901:
  4509  002A9A  EF56  F015         	goto	l404
  4510  002A9E                     u5900:
  4511  002A9E                     
  4512                           ;usb_device.c: 2185:     {;usb_device.c: 2186:         inPipes[0].pSrc.bRam = (uint8_t*)
      +                          &CtrlTrfData;
  4513  002A9E  0E50               	movlw	80
  4514  002AA0  6E09               	movwf	_inPipes^0,c	;volatile
  4515  002AA2  0E04               	movlw	4
  4516  002AA4  6E0A               	movwf	(_inPipes+1)^0,c	;volatile
  4517  002AA6                     
  4518                           ;usb_device.c: 2187:         inPipes[0].info.bits.ctrl_trf_mem = 0x01;
  4519  002AA6  800C               	bsf	(_inPipes+3)^0,0,c	;volatile
  4520  002AA8                     
  4521                           ;usb_device.c: 2188:         inPipes[0].wCount.v[0] = 2;
  4522  002AA8  0E02               	movlw	2
  4523  002AAA  6E0D               	movwf	(_inPipes+4)^0,c	;volatile
  4524  002AAC                     l404:
  4525  002AAC  0012               	return		;funcret
  4526  002AAE                     __end_of_USBStdGetStatusHandler:
  4527                           	opt callstack 0
  4528                           
  4529 ;; *************** function _USBStdGetDscHandler *****************
  4530 ;; Defined at:
  4531 ;;		line 2049 in file "usb_device.c"
  4532 ;; Parameters:    Size  Location     Type
  4533 ;;		None
  4534 ;; Auto vars:     Size  Location     Type
  4535 ;;		None
  4536 ;; Return value:  Size  Location     Type
  4537 ;;                  1    wreg      void 
  4538 ;; Registers used:
  4539 ;;		wreg, fsr1l, fsr1h, status,2, status,0, tblptrl, tblptrh, tblptru, prodl, prodh
  4540 ;; Tracked objects:
  4541 ;;		On entry : 0/0
  4542 ;;		On exit  : 0/0
  4543 ;;		Unchanged: 0/0
  4544 ;; Data sizes:     COMRAM   BANK0   BANK1   BANK2   BANK3  BANK4h  BANK4l   BANK5   BANK6   BANK7
  4545 ;;      Params:         0       0       0       0       0       0       0       0       0       0
  4546 ;;      Locals:         0       0       0       0       0       0       0       0       0       0
  4547 ;;      Temps:          0       2       0       0       0       0       0       0       0       0
  4548 ;;      Totals:         0       2       0       0       0       0       0       0       0       0
  4549 ;;Total ram usage:        2 bytes
  4550 ;; Hardware stack levels used:    1
  4551 ;; Hardware stack levels required when called:   11
  4552 ;; This function calls:
  4553 ;;		Nothing
  4554 ;; This function is called by:
  4555 ;;		_USBCheckStdRequest
  4556 ;; This function uses a non-reentrant model
  4557 ;;
  4558                           
  4559                           	psect	text24
  4560  001854                     __ptext24:
  4561                           	opt callstack 0
  4562  001854                     _USBStdGetDscHandler:
  4563                           	opt callstack 15
  4564  001854                     
  4565                           ;usb_device.c: 2051:     if(SetupPkt.bmRequestType == 0x80)
  4566  001854  0E80               	movlw	128
  4567  001856  0104               	movlb	4	; () banked
  4568  001858  1930               	xorwf	48,w,b	;volatile
  4569  00185A  A4D8               	btfss	status,2,c
  4570  00185C  EF32  F00C         	goto	u5801
  4571  001860  EF34  F00C         	goto	u5800
  4572  001864                     u5801:
  4573  001864  EFDF  F00C         	goto	l390
  4574  001868                     u5800:
  4575  001868                     
  4576                           ; BSR set to: 4
  4577                           ;usb_device.c: 2052:     {;usb_device.c: 2053:         inPipes[0].info.Val = 0x00 | 0x80
      +                           | 0x40;
  4578  001868  0EC0               	movlw	192
  4579  00186A  6E0C               	movwf	(_inPipes+3)^0,c	;volatile
  4580                           
  4581                           ;usb_device.c: 2055:         switch(SetupPkt.bDescriptorType)
  4582  00186C  EFC5  F00C         	goto	l6617
  4583  001870                     l6591:
  4584                           
  4585                           ; BSR set to: 0
  4586                           ;usb_device.c: 2061:                     inPipes[0].pSrc.bRom = (const uint8_t*)&device_
      +                          dsc;
  4587  001870  0E92               	movlw	low _device_dsc
  4588  001872  6E09               	movwf	_inPipes^0,c	;volatile
  4589  001874  0E08               	movlw	high _device_dsc
  4590  001876  6E0A               	movwf	(_inPipes+1)^0,c	;volatile
  4591  001878                     
  4592                           ; BSR set to: 0
  4593                           ;usb_device.c: 2063:                 inPipes[0].wCount.Val = sizeof(device_dsc);
  4594  001878  0E00               	movlw	0
  4595  00187A  6E0E               	movwf	(_inPipes+5)^0,c	;volatile
  4596  00187C  0E12               	movlw	18
  4597  00187E  6E0D               	movwf	(_inPipes+4)^0,c	;volatile
  4598                           
  4599                           ;usb_device.c: 2064:                 break;
  4600  001880  EFDF  F00C         	goto	l390
  4601  001884                     l6595:
  4602                           
  4603                           ; BSR set to: 0
  4604                           ;usb_device.c: 2069:                 if(SetupPkt.bDscIndex < 1)
  4605  001884  0104               	movlb	4	; () banked
  4606  001886  5132               	movf	50,w,b	;volatile
  4607  001888  A4D8               	btfss	status,2,c
  4608  00188A  EF49  F00C         	goto	u5811
  4609  00188E  EF4B  F00C         	goto	u5810
  4610  001892                     u5811:
  4611  001892  EF8B  F00C         	goto	l6603
  4612  001896                     u5810:
  4613  001896                     
  4614                           ; BSR set to: 4
  4615                           ;usb_device.c: 2070:                 {;usb_device.c: 2074:                         inPip
      +                          es[0].pSrc.bRom = *(USB_CD_Ptr+SetupPkt.bDscIndex);
  4616  001896  5132               	movf	50,w,b	;volatile
  4617  001898  0D02               	mullw	2
  4618  00189A  0E07               	movlw	low _USB_CD_Ptr
  4619  00189C  24F3               	addwf	243,w,c
  4620  00189E  6EF6               	movwf	tblptrl,c
  4621  0018A0  0E08               	movlw	high _USB_CD_Ptr
  4622  0018A2  20F4               	addwfc	244,w,c
  4623  0018A4  6EF7               	movwf	tblptrh,c
  4624  0018A6                     	if	0	;There are less than 3 active tblptr bytes
  4625  0018A6                     	endif
  4626  0018A6  0009               	tblrd		*+
  4627  0018A8  CFF5 F009          	movff	tablat,_inPipes	;volatile
  4628  0018AC  000A               	tblrd		*-
  4629  0018AE  CFF5 F00A          	movff	tablat,_inPipes+1	;volatile
  4630  0018B2                     
  4631                           ; BSR set to: 4
  4632                           ;usb_device.c: 2080:                     inPipes[0].wCount.byte.LB = *(inPipes[0].pSrc.b
      +                          Rom+2);
  4633  0018B2  0E02               	movlw	2
  4634  0018B4  2409               	addwf	_inPipes^0,w,c	;volatile
  4635  0018B6  0100               	movlb	0	; () banked
  4636  0018B8  6FDF               	movwf	??_USBStdGetDscHandler& (0+255),b
  4637  0018BA  0E00               	movlw	0
  4638  0018BC  200A               	addwfc	(_inPipes+1)^0,w,c	;volatile
  4639  0018BE  6FE0               	movwf	(??_USBStdGetDscHandler+1)& (0+255),b
  4640  0018C0  C0DF  FFF6         	movff	??_USBStdGetDscHandler,tblptrl
  4641  0018C4  C0E0  FFF7         	movff	??_USBStdGetDscHandler+1,tblptrh
  4642  0018C8  6AF8               	clrf	tblptru,c
  4643  0018CA  0E07               	movlw	(high __ramtop+-1)
  4644  0018CC  64F7               	cpfsgt	tblptrh,c
  4645  0018CE  D003               	bra	u5827
  4646  0018D0  0008               	tblrd		*
  4647  0018D2  50F5               	movf	tablat,w,c
  4648  0018D4  D005               	bra	u5820
  4649  0018D6                     u5827:
  4650  0018D6  CFF6 FFE1          	movff	tblptrl,fsr1l
  4651  0018DA  CFF7 FFE2          	movff	tblptrh,fsr1h
  4652  0018DE  50E7               	movf	indf1,w,c
  4653  0018E0                     u5820:
  4654  0018E0  6E0D               	movwf	(_inPipes+4)^0,c	;volatile
  4655  0018E2                     
  4656                           ;usb_device.c: 2081:                     inPipes[0].wCount.byte.HB = *(inPipes[0].pSrc.b
      +                          Rom+3);
  4657  0018E2  0E03               	movlw	3
  4658  0018E4  2409               	addwf	_inPipes^0,w,c	;volatile
  4659  0018E6  0100               	movlb	0	; () banked
  4660  0018E8  6FDF               	movwf	??_USBStdGetDscHandler& (0+255),b
  4661  0018EA  0E00               	movlw	0
  4662  0018EC  200A               	addwfc	(_inPipes+1)^0,w,c	;volatile
  4663  0018EE  6FE0               	movwf	(??_USBStdGetDscHandler+1)& (0+255),b
  4664  0018F0  C0DF  FFF6         	movff	??_USBStdGetDscHandler,tblptrl
  4665  0018F4  C0E0  FFF7         	movff	??_USBStdGetDscHandler+1,tblptrh
  4666  0018F8  6AF8               	clrf	tblptru,c
  4667  0018FA  0E07               	movlw	(high __ramtop+-1)
  4668  0018FC  64F7               	cpfsgt	tblptrh,c
  4669  0018FE  D003               	bra	u5837
  4670  001900  0008               	tblrd		*
  4671  001902  50F5               	movf	tablat,w,c
  4672  001904  D005               	bra	u5830
  4673  001906                     u5837:
  4674  001906  CFF6 FFE1          	movff	tblptrl,fsr1l
  4675  00190A  CFF7 FFE2          	movff	tblptrh,fsr1h
  4676  00190E  50E7               	movf	indf1,w,c
  4677  001910                     u5830:
  4678  001910  6E0E               	movwf	(_inPipes+5)^0,c	;volatile
  4679                           
  4680                           ;usb_device.c: 2082:                 }
  4681  001912  EFDF  F00C         	goto	l390
  4682  001916                     l6603:
  4683                           
  4684                           ; BSR set to: 4
  4685                           ;usb_device.c: 2084:     {;usb_device.c: 2085:      inPipes[0].info.Val = 0;
  4686  001916  0E00               	movlw	0
  4687  001918  6E0C               	movwf	(_inPipes+3)^0,c	;volatile
  4688  00191A  EFDF  F00C         	goto	l390
  4689  00191E                     l6605:
  4690                           
  4691                           ; BSR set to: 0
  4692                           ;usb_device.c: 2092:                 if(SetupPkt.bDscIndex<3)
  4693  00191E  0E03               	movlw	3
  4694  001920  0104               	movlb	4	; () banked
  4695  001922  6132               	cpfslt	50,b	;volatile
  4696  001924  EF96  F00C         	goto	u5841
  4697  001928  EF98  F00C         	goto	u5840
  4698  00192C                     u5841:
  4699  00192C  EFBD  F00C         	goto	l6611
  4700  001930                     u5840:
  4701  001930                     
  4702                           ; BSR set to: 4
  4703                           ;usb_device.c: 2093:                 {;usb_device.c: 2095:                     inPipes[0
      +                          ].pSrc.bRom = *(USB_SD_Ptr+SetupPkt.bDscIndex);
  4704  001930  5132               	movf	50,w,b	;volatile
  4705  001932  0D02               	mullw	2
  4706  001934  0E01               	movlw	low _USB_SD_Ptr
  4707  001936  24F3               	addwf	243,w,c
  4708  001938  6EF6               	movwf	tblptrl,c
  4709  00193A  0E08               	movlw	high _USB_SD_Ptr
  4710  00193C  20F4               	addwfc	244,w,c
  4711  00193E  6EF7               	movwf	tblptrh,c
  4712  001940                     	if	0	;There are less than 3 active tblptr bytes
  4713  001940                     	endif
  4714  001940  0009               	tblrd		*+
  4715  001942  CFF5 F009          	movff	tablat,_inPipes	;volatile
  4716  001946  000A               	tblrd		*-
  4717  001948  CFF5 F00A          	movff	tablat,_inPipes+1	;volatile
  4718  00194C                     
  4719                           ; BSR set to: 4
  4720                           ;usb_device.c: 2097:                     inPipes[0].wCount.Val = *inPipes[0].pSrc.bRom;
  4721  00194C  C009  FFF6         	movff	_inPipes,tblptrl	;volatile
  4722  001950  C00A  FFF7         	movff	_inPipes+1,tblptrh	;volatile
  4723  001954  6AF8               	clrf	tblptru,c
  4724  001956  0E07               	movlw	(high __ramtop+-1)
  4725  001958  64F7               	cpfsgt	tblptrh,c
  4726  00195A  D003               	bra	u5857
  4727  00195C  0008               	tblrd		*
  4728  00195E  50F5               	movf	tablat,w,c
  4729  001960  D005               	bra	u5850
  4730  001962                     u5857:
  4731  001962  CFF6 FFE1          	movff	tblptrl,fsr1l
  4732  001966  CFF7 FFE2          	movff	tblptrh,fsr1h
  4733  00196A  50E7               	movf	indf1,w,c
  4734  00196C                     u5850:
  4735  00196C  0100               	movlb	0	; () banked
  4736  00196E  6FDF               	movwf	??_USBStdGetDscHandler& (0+255),b
  4737  001970  51DF               	movf	??_USBStdGetDscHandler& (0+255),w,b
  4738  001972  6E0D               	movwf	(_inPipes+4)^0,c	;volatile
  4739  001974  6A0E               	clrf	(_inPipes+5)^0,c	;volatile
  4740                           
  4741                           ;usb_device.c: 2098:                 }
  4742  001976  EFDF  F00C         	goto	l390
  4743  00197A                     l6611:
  4744                           
  4745                           ; BSR set to: 4
  4746                           ;usb_device.c: 2109:                 {;usb_device.c: 2110:                     inPipes[0
      +                          ].info.Val = 0;
  4747  00197A  0E00               	movlw	0
  4748  00197C  6E0C               	movwf	(_inPipes+3)^0,c	;volatile
  4749  00197E  EFDF  F00C         	goto	l390
  4750  001982                     l6613:
  4751                           
  4752                           ; BSR set to: 0
  4753                           ;usb_device.c: 2114:                 inPipes[0].info.Val = 0;
  4754  001982  0E00               	movlw	0
  4755  001984  6E0C               	movwf	(_inPipes+3)^0,c	;volatile
  4756                           
  4757                           ;usb_device.c: 2115:                 break;
  4758  001986  EFDF  F00C         	goto	l390
  4759  00198A                     l6617:
  4760                           
  4761                           ; BSR set to: 4
  4762  00198A  5133               	movf	51,w,b	;volatile
  4763  00198C  0100               	movlb	0	; () banked
  4764  00198E  6FDF               	movwf	??_USBStdGetDscHandler& (0+255),b
  4765  001990  6BE0               	clrf	(??_USBStdGetDscHandler+1)& (0+255),b
  4766                           
  4767                           ; Switch on 2 bytes has been partitioned into a top level switch of size 1, and 1 sub-sw
      +                          itches
  4768                           ; Switch size 1, requested type "simple"
  4769                           ; Number of cases is 1, Range of values is 0 to 0
  4770                           ; switch strategies available:
  4771                           ; Name         Instructions Cycles
  4772                           ; simple_byte            4     3 (average)
  4773                           ;	Chosen strategy is simple_byte
  4774  001992  51E0               	movf	(??_USBStdGetDscHandler+1)& (0+255),w,b
  4775  001994  0A00               	xorlw	0	; case 0
  4776  001996  B4D8               	btfsc	status,2,c
  4777  001998  EFD0  F00C         	goto	l7741
  4778  00199C  EFC1  F00C         	goto	l6613
  4779  0019A0                     l7741:
  4780                           
  4781                           ; BSR set to: 0
  4782                           ; Switch size 1, requested type "simple"
  4783                           ; Number of cases is 3, Range of values is 1 to 3
  4784                           ; switch strategies available:
  4785                           ; Name         Instructions Cycles
  4786                           ; simple_byte           10     6 (average)
  4787                           ;	Chosen strategy is simple_byte
  4788  0019A0  51DF               	movf	??_USBStdGetDscHandler& (0+255),w,b
  4789  0019A2  0A01               	xorlw	1	; case 1
  4790  0019A4  B4D8               	btfsc	status,2,c
  4791  0019A6  EF38  F00C         	goto	l6591
  4792  0019AA  0A03               	xorlw	3	; case 2
  4793  0019AC  B4D8               	btfsc	status,2,c
  4794  0019AE  EF42  F00C         	goto	l6595
  4795  0019B2  0A01               	xorlw	1	; case 3
  4796  0019B4  B4D8               	btfsc	status,2,c
  4797  0019B6  EF8F  F00C         	goto	l6605
  4798  0019BA  EFC1  F00C         	goto	l6613
  4799  0019BE                     l390:
  4800  0019BE  0012               	return		;funcret
  4801  0019C0                     __end_of_USBStdGetDscHandler:
  4802                           	opt callstack 0
  4803                           
  4804 ;; *************** function _USBStdFeatureReqHandler *****************
  4805 ;; Defined at:
  4806 ;;		line 2760 in file "usb_device.c"
  4807 ;; Parameters:    Size  Location     Type
  4808 ;;		None
  4809 ;; Auto vars:     Size  Location     Type
  4810 ;;  p               2    3[BANK1 ] PTR struct __BDT
  4811 ;;		 -> RAM(2047), NULL(0), BDT(48), 
  4812 ;;  pUEP            2    0[BANK1 ] PTR unsigned char 
  4813 ;;		 -> UEP0(1), 
  4814 ;;  current_ep_d    1    2[BANK1 ] struct .
  4815 ;; Return value:  Size  Location     Type
  4816 ;;                  1    wreg      void 
  4817 ;; Registers used:
  4818 ;;		wreg, fsr2l, fsr2h, status,2, status,0, prodl, prodh, cstack
  4819 ;; Tracked objects:
  4820 ;;		On entry : 0/0
  4821 ;;		On exit  : 0/0
  4822 ;;		Unchanged: 0/0
  4823 ;; Data sizes:     COMRAM   BANK0   BANK1   BANK2   BANK3  BANK4h  BANK4l   BANK5   BANK6   BANK7
  4824 ;;      Params:         0       0       0       0       0       0       0       0       0       0
  4825 ;;      Locals:         0       0       5       0       0       0       0       0       0       0
  4826 ;;      Temps:          0       2       0       0       0       0       0       0       0       0
  4827 ;;      Totals:         0       2       5       0       0       0       0       0       0       0
  4828 ;;Total ram usage:        7 bytes
  4829 ;; Hardware stack levels used:    1
  4830 ;; Hardware stack levels required when called:   15
  4831 ;; This function calls:
  4832 ;;		_USER_USB_CALLBACK_EVENT_HANDLER
  4833 ;; This function is called by:
  4834 ;;		_USBCheckStdRequest
  4835 ;; This function uses a non-reentrant model
  4836 ;;
  4837                           
  4838                           	psect	text25
  4839  0008AA                     __ptext25:
  4840                           	opt callstack 0
  4841  0008AA                     _USBStdFeatureReqHandler:
  4842                           	opt callstack 11
  4843  0008AA                     
  4844                           ;usb_device.c: 2762:     BDT_ENTRY *p;;usb_device.c: 2763:     EP_STATUS current_ep_data
      +                          ;;usb_device.c: 2767:         unsigned char* pUEP;;usb_device.c: 2805:     if((SetupPkt.
      +                          bFeature == 1)&&
  4845  0008AA  0104               	movlb	4	; () banked
  4846  0008AC  0532               	decf	50,w,b	;volatile
  4847  0008AE  A4D8               	btfss	status,2,c
  4848  0008B0  EF5C  F004         	goto	u5911
  4849  0008B4  EF5E  F004         	goto	u5910
  4850  0008B8                     u5911:
  4851  0008B8  EF78  F004         	goto	l471
  4852  0008BC                     u5910:
  4853  0008BC                     
  4854                           ; BSR set to: 4
  4855  0008BC  5130               	movf	48,w,b	;volatile
  4856  0008BE  0B1F               	andlw	31
  4857  0008C0  0900               	iorlw	0
  4858  0008C2  A4D8               	btfss	status,2,c
  4859  0008C4  EF66  F004         	goto	u5921
  4860  0008C8  EF68  F004         	goto	u5920
  4861  0008CC                     u5921:
  4862  0008CC  EF78  F004         	goto	l471
  4863  0008D0                     u5920:
  4864  0008D0                     
  4865                           ; BSR set to: 4
  4866                           ;usb_device.c: 2807:     {;usb_device.c: 2808:         inPipes[0].info.bits.busy = 1;
  4867  0008D0  8E0C               	bsf	(_inPipes+3)^0,7,c	;volatile
  4868  0008D2                     
  4869                           ; BSR set to: 4
  4870                           ;usb_device.c: 2809:         if(SetupPkt.bRequest == 3)
  4871  0008D2  0E03               	movlw	3
  4872  0008D4  1931               	xorwf	49,w,b	;volatile
  4873  0008D6  A4D8               	btfss	status,2,c
  4874  0008D8  EF70  F004         	goto	u5931
  4875  0008DC  EF72  F004         	goto	u5930
  4876  0008E0                     u5931:
  4877  0008E0  EF76  F004         	goto	l6669
  4878  0008E4                     u5930:
  4879  0008E4                     
  4880                           ; BSR set to: 4
  4881                           ;usb_device.c: 2810:             RemoteWakeup = 1;
  4882  0008E4  0E01               	movlw	1
  4883  0008E6  6E26               	movwf	_RemoteWakeup^0,c	;volatile
  4884  0008E8  EF78  F004         	goto	l471
  4885  0008EC                     l6669:
  4886                           
  4887                           ; BSR set to: 4
  4888                           ;usb_device.c: 2812:             RemoteWakeup = 0;
  4889  0008EC  0E00               	movlw	0
  4890  0008EE  6E26               	movwf	_RemoteWakeup^0,c	;volatile
  4891  0008F0                     l471:
  4892                           
  4893                           ; BSR set to: 4
  4894                           ;usb_device.c: 2816:     if((SetupPkt.bFeature == 0)&&
  4895  0008F0  5132               	movf	50,w,b	;volatile
  4896  0008F2  A4D8               	btfss	status,2,c
  4897  0008F4  EF7E  F004         	goto	u5941
  4898  0008F8  EF80  F004         	goto	u5940
  4899  0008FC                     u5941:
  4900  0008FC  EF15  F006         	goto	l494
  4901  000900                     u5940:
  4902  000900                     
  4903                           ; BSR set to: 4
  4904  000900  5130               	movf	48,w,b	;volatile
  4905  000902  0B1F               	andlw	31
  4906  000904  0A02               	xorlw	2
  4907  000906  A4D8               	btfss	status,2,c
  4908  000908  EF88  F004         	goto	u5951
  4909  00090C  EF8A  F004         	goto	u5950
  4910  000910                     u5951:
  4911  000910  EF15  F006         	goto	l494
  4912  000914                     u5950:
  4913  000914                     
  4914                           ; BSR set to: 4
  4915  000914  5134               	movf	52,w,b	;volatile
  4916  000916  0B0F               	andlw	15
  4917  000918  0900               	iorlw	0
  4918  00091A  B4D8               	btfsc	status,2,c
  4919  00091C  EF92  F004         	goto	u5961
  4920  000920  EF94  F004         	goto	u5960
  4921  000924                     u5961:
  4922  000924  EF15  F006         	goto	l494
  4923  000928                     u5960:
  4924  000928                     
  4925                           ; BSR set to: 4
  4926  000928  5134               	movf	52,w,b	;volatile
  4927  00092A  0B0F               	andlw	15
  4928  00092C  0100               	movlb	0	; () banked
  4929  00092E  6FF3               	movwf	??_USBStdFeatureReqHandler& (0+255),b
  4930  000930  0E03               	movlw	3
  4931  000932  61F3               	cpfslt	??_USBStdFeatureReqHandler& (0+255),b
  4932  000934  EF9E  F004         	goto	u5971
  4933  000938  EFA0  F004         	goto	u5970
  4934  00093C                     u5971:
  4935  00093C  EF15  F006         	goto	l494
  4936  000940                     u5970:
  4937  000940                     
  4938                           ; BSR set to: 0
  4939  000940  0E20               	movlw	32
  4940  000942  1829               	xorwf	_USBDeviceState^0,w,c	;volatile
  4941  000944  A4D8               	btfss	status,2,c
  4942  000946  EFA7  F004         	goto	u5981
  4943  00094A  EFA9  F004         	goto	u5980
  4944  00094E                     u5981:
  4945  00094E  EF15  F006         	goto	l494
  4946  000952                     u5980:
  4947  000952                     
  4948                           ; BSR set to: 0
  4949                           ;usb_device.c: 2820:     {;usb_device.c: 2823:   inPipes[0].info.bits.busy = 1;
  4950  000952  8E0C               	bsf	(_inPipes+3)^0,7,c	;volatile
  4951                           
  4952                           ;usb_device.c: 2826:         if(SetupPkt.EPDir == 0)
  4953  000954  0104               	movlb	4	; () banked
  4954  000956  BF34               	btfsc	52,7,b	;volatile
  4955  000958  EFB0  F004         	goto	u5991
  4956  00095C  EFB2  F004         	goto	u5990
  4957  000960                     u5991:
  4958  000960  EFD3  F004         	goto	l6685
  4959  000964                     u5990:
  4960  000964                     
  4961                           ; BSR set to: 4
  4962                           ;usb_device.c: 2827:         {;usb_device.c: 2828:             p = (BDT_ENTRY*)pBDTEntry
      +                          Out[SetupPkt.EPNum];
  4963  000964  5134               	movf	52,w,b	;volatile
  4964  000966  0B0F               	andlw	15
  4965  000968  0100               	movlb	0	; () banked
  4966  00096A  6FF3               	movwf	??_USBStdFeatureReqHandler& (0+255),b
  4967  00096C  51F3               	movf	??_USBStdFeatureReqHandler& (0+255),w,b
  4968  00096E  0D02               	mullw	2
  4969  000970  0EAA               	movlw	low _pBDTEntryOut
  4970  000972  24F3               	addwf	243,w,c
  4971  000974  6ED9               	movwf	fsr2l,c
  4972  000976  0E00               	movlw	high _pBDTEntryOut
  4973  000978  20F4               	addwfc	prodh,w,c
  4974  00097A  6EDA               	movwf	fsr2h,c
  4975  00097C  CFDE F103          	movff	postinc2,USBStdFeatureReqHandler@p
  4976  000980  CFDD F104          	movff	postdec2,USBStdFeatureReqHandler@p+1
  4977  000984                     
  4978                           ; BSR set to: 0
  4979                           ;usb_device.c: 2829:             current_ep_data.Val = ep_data_out[SetupPkt.EPNum].Val;
  4980  000984  0104               	movlb	4	; () banked
  4981  000986  5134               	movf	52,w,b	;volatile
  4982  000988  0B0F               	andlw	15
  4983  00098A  0100               	movlb	0	; () banked
  4984  00098C  6FF3               	movwf	??_USBStdFeatureReqHandler& (0+255),b
  4985  00098E  6BF4               	clrf	(??_USBStdFeatureReqHandler+1)& (0+255),b
  4986  000990  0E15               	movlw	low _ep_data_out
  4987  000992  25F3               	addwf	??_USBStdFeatureReqHandler& (0+255),w,b
  4988  000994  6ED9               	movwf	fsr2l,c
  4989  000996  0E00               	movlw	high _ep_data_out
  4990  000998  21F4               	addwfc	(??_USBStdFeatureReqHandler+1)& (0+255),w,b
  4991  00099A  6EDA               	movwf	fsr2h,c
  4992  00099C  50DF               	movf	indf2,w,c
  4993  00099E  0101               	movlb	1	; () banked
  4994  0009A0  6F02               	movwf	USBStdFeatureReqHandler@current_ep_data& (0+255),b
  4995                           
  4996                           ;usb_device.c: 2830:         }
  4997  0009A2  EFF2  F004         	goto	l6689
  4998  0009A6                     l6685:
  4999                           
  5000                           ; BSR set to: 4
  5001                           ;usb_device.c: 2832:         {;usb_device.c: 2833:             p = (BDT_ENTRY*)pBDTEntry
      +                          In[SetupPkt.EPNum];
  5002  0009A6  5134               	movf	52,w,b	;volatile
  5003  0009A8  0B0F               	andlw	15
  5004  0009AA  0100               	movlb	0	; () banked
  5005  0009AC  6FF3               	movwf	??_USBStdFeatureReqHandler& (0+255),b
  5006  0009AE  51F3               	movf	??_USBStdFeatureReqHandler& (0+255),w,b
  5007  0009B0  0D02               	mullw	2
  5008  0009B2  0E0F               	movlw	low _pBDTEntryIn
  5009  0009B4  24F3               	addwf	243,w,c
  5010  0009B6  6ED9               	movwf	fsr2l,c
  5011  0009B8  0E00               	movlw	high _pBDTEntryIn
  5012  0009BA  20F4               	addwfc	prodh,w,c
  5013  0009BC  6EDA               	movwf	fsr2h,c
  5014  0009BE  CFDE F103          	movff	postinc2,USBStdFeatureReqHandler@p
  5015  0009C2  CFDD F104          	movff	postdec2,USBStdFeatureReqHandler@p+1
  5016  0009C6                     
  5017                           ; BSR set to: 0
  5018                           ;usb_device.c: 2834:             current_ep_data.Val = ep_data_in[SetupPkt.EPNum].Val;
  5019  0009C6  0104               	movlb	4	; () banked
  5020  0009C8  5134               	movf	52,w,b	;volatile
  5021  0009CA  0B0F               	andlw	15
  5022  0009CC  0100               	movlb	0	; () banked
  5023  0009CE  6FF3               	movwf	??_USBStdFeatureReqHandler& (0+255),b
  5024  0009D0  6BF4               	clrf	(??_USBStdFeatureReqHandler+1)& (0+255),b
  5025  0009D2  0E18               	movlw	low _ep_data_in
  5026  0009D4  25F3               	addwf	??_USBStdFeatureReqHandler& (0+255),w,b
  5027  0009D6  6ED9               	movwf	fsr2l,c
  5028  0009D8  0E00               	movlw	high _ep_data_in
  5029  0009DA  21F4               	addwfc	(??_USBStdFeatureReqHandler+1)& (0+255),w,b
  5030  0009DC  6EDA               	movwf	fsr2h,c
  5031  0009DE  50DF               	movf	indf2,w,c
  5032  0009E0  0101               	movlb	1	; () banked
  5033  0009E2  6F02               	movwf	USBStdFeatureReqHandler@current_ep_data& (0+255),b
  5034  0009E4                     l6689:
  5035                           
  5036                           ; BSR set to: 1
  5037                           ;usb_device.c: 2841:             if(current_ep_data.bits.ping_pong_state == 0)
  5038  0009E4  B102               	btfsc	USBStdFeatureReqHandler@current_ep_data& (0+255),0,b
  5039  0009E6  EFF7  F004         	goto	u6001
  5040  0009EA  EFF9  F004         	goto	u6000
  5041  0009EE                     u6001:
  5042  0009EE  EF01  F005         	goto	l6693
  5043  0009F2                     u6000:
  5044  0009F2                     
  5045                           ; BSR set to: 1
  5046                           ;usb_device.c: 2842:             {;usb_device.c: 2843:                 p = (BDT_ENTRY*)(
      +                          ((uint16_t)p) & (~0x0004));
  5047  0009F2  0EFB               	movlw	251
  5048  0009F4  1503               	andwf	USBStdFeatureReqHandler@p& (0+255),w,b
  5049  0009F6  6F03               	movwf	USBStdFeatureReqHandler@p& (0+255),b
  5050  0009F8  0EFF               	movlw	255
  5051  0009FA  1504               	andwf	(USBStdFeatureReqHandler@p+1)& (0+255),w,b
  5052  0009FC  6F04               	movwf	(USBStdFeatureReqHandler@p+1)& (0+255),b
  5053                           
  5054                           ;usb_device.c: 2844:             }
  5055  0009FE  EF06  F005         	goto	l6695
  5056  000A02                     l6693:
  5057                           
  5058                           ; BSR set to: 1
  5059                           ;usb_device.c: 2846:             {;usb_device.c: 2847:                 p = (BDT_ENTRY*)(
      +                          ((uint16_t)p) | 0x0004);
  5060  000A02  0E04               	movlw	4
  5061  000A04  1103               	iorwf	USBStdFeatureReqHandler@p& (0+255),w,b
  5062  000A06  6F03               	movwf	USBStdFeatureReqHandler@p& (0+255),b
  5063  000A08  5104               	movf	(USBStdFeatureReqHandler@p+1)& (0+255),w,b
  5064  000A0A  6F04               	movwf	(USBStdFeatureReqHandler@p+1)& (0+255),b
  5065  000A0C                     l6695:
  5066                           
  5067                           ; BSR set to: 1
  5068                           ;usb_device.c: 2853:         if(SetupPkt.EPDir == 0)
  5069  000A0C  0104               	movlb	4	; () banked
  5070  000A0E  BF34               	btfsc	52,7,b	;volatile
  5071  000A10  EF0C  F005         	goto	u6011
  5072  000A14  EF0E  F005         	goto	u6010
  5073  000A18                     u6011:
  5074  000A18  EF20  F005         	goto	l6699
  5075  000A1C                     u6010:
  5076  000A1C                     
  5077                           ; BSR set to: 4
  5078                           ;usb_device.c: 2854:         {;usb_device.c: 2855:             pBDTEntryOut[SetupPkt.EPN
      +                          um] = (volatile BDT_ENTRY *)p;
  5079  000A1C  5134               	movf	52,w,b	;volatile
  5080  000A1E  0B0F               	andlw	15
  5081  000A20  0100               	movlb	0	; () banked
  5082  000A22  6FF3               	movwf	??_USBStdFeatureReqHandler& (0+255),b
  5083  000A24  51F3               	movf	??_USBStdFeatureReqHandler& (0+255),w,b
  5084  000A26  0D02               	mullw	2
  5085  000A28  0EAA               	movlw	low _pBDTEntryOut
  5086  000A2A  24F3               	addwf	243,w,c
  5087  000A2C  6ED9               	movwf	fsr2l,c
  5088  000A2E  0E00               	movlw	high _pBDTEntryOut
  5089  000A30  20F4               	addwfc	prodh,w,c
  5090  000A32  6EDA               	movwf	fsr2h,c
  5091  000A34  C103  FFDE         	movff	USBStdFeatureReqHandler@p,postinc2
  5092  000A38  C104  FFDD         	movff	USBStdFeatureReqHandler@p+1,postdec2
  5093                           
  5094                           ;usb_device.c: 2856:         }
  5095  000A3C  EF30  F005         	goto	l6701
  5096  000A40                     l6699:
  5097                           
  5098                           ; BSR set to: 4
  5099                           ;usb_device.c: 2858:         {;usb_device.c: 2859:             pBDTEntryIn[SetupPkt.EPNu
      +                          m] = (volatile BDT_ENTRY *)p;
  5100  000A40  5134               	movf	52,w,b	;volatile
  5101  000A42  0B0F               	andlw	15
  5102  000A44  0100               	movlb	0	; () banked
  5103  000A46  6FF3               	movwf	??_USBStdFeatureReqHandler& (0+255),b
  5104  000A48  51F3               	movf	??_USBStdFeatureReqHandler& (0+255),w,b
  5105  000A4A  0D02               	mullw	2
  5106  000A4C  0E0F               	movlw	low _pBDTEntryIn
  5107  000A4E  24F3               	addwf	243,w,c
  5108  000A50  6ED9               	movwf	fsr2l,c
  5109  000A52  0E00               	movlw	high _pBDTEntryIn
  5110  000A54  20F4               	addwfc	prodh,w,c
  5111  000A56  6EDA               	movwf	fsr2h,c
  5112  000A58  C103  FFDE         	movff	USBStdFeatureReqHandler@p,postinc2
  5113  000A5C  C104  FFDD         	movff	USBStdFeatureReqHandler@p+1,postdec2
  5114  000A60                     l6701:
  5115                           
  5116                           ; BSR set to: 0
  5117                           ;usb_device.c: 2863:         if(SetupPkt.bRequest == 3)
  5118  000A60  0E03               	movlw	3
  5119  000A62  0104               	movlb	4	; () banked
  5120  000A64  1931               	xorwf	49,w,b	;volatile
  5121  000A66  A4D8               	btfss	status,2,c
  5122  000A68  EF38  F005         	goto	u6021
  5123  000A6C  EF3A  F005         	goto	u6020
  5124  000A70                     u6021:
  5125  000A70  EF76  F005         	goto	l6711
  5126  000A74                     u6020:
  5127  000A74                     
  5128                           ; BSR set to: 4
  5129                           ;usb_device.c: 2864:         {;usb_device.c: 2865:             if(p->STAT.UOWN == 1)
  5130  000A74  C103  FFD9         	movff	USBStdFeatureReqHandler@p,fsr2l
  5131  000A78  C104  FFDA         	movff	USBStdFeatureReqHandler@p+1,fsr2h
  5132  000A7C  0101               	movlb	1	; () banked
  5133  000A7E  AEDF               	btfss	indf2,7,c
  5134  000A80  EF44  F005         	goto	u6031
  5135  000A84  EF46  F005         	goto	u6030
  5136  000A88                     u6031:
  5137  000A88  EF68  F005         	goto	l482
  5138  000A8C                     u6030:
  5139  000A8C                     
  5140                           ; BSR set to: 1
  5141                           ;usb_device.c: 2866:             {;usb_device.c: 2869:                 if(SetupPkt.EPDir
      +                           == 0)
  5142  000A8C  0104               	movlb	4	; () banked
  5143  000A8E  BF34               	btfsc	52,7,b	;volatile
  5144  000A90  EF4C  F005         	goto	u6041
  5145  000A94  EF4E  F005         	goto	u6040
  5146  000A98                     u6041:
  5147  000A98  EF5C  F005         	goto	l6709
  5148  000A9C                     u6040:
  5149  000A9C                     
  5150                           ; BSR set to: 4
  5151                           ;usb_device.c: 2870:                 {;usb_device.c: 2871:                     ep_data_o
      +                          ut[SetupPkt.EPNum].bits.transfer_terminated = 1;
  5152  000A9C  5134               	movf	52,w,b	;volatile
  5153  000A9E  0B0F               	andlw	15
  5154  000AA0  0100               	movlb	0	; () banked
  5155  000AA2  6FF3               	movwf	??_USBStdFeatureReqHandler& (0+255),b
  5156  000AA4  6BF4               	clrf	(??_USBStdFeatureReqHandler+1)& (0+255),b
  5157  000AA6  0E15               	movlw	low _ep_data_out
  5158  000AA8  25F3               	addwf	??_USBStdFeatureReqHandler& (0+255),w,b
  5159  000AAA  6ED9               	movwf	fsr2l,c
  5160  000AAC  0E00               	movlw	high _ep_data_out
  5161  000AAE  21F4               	addwfc	(??_USBStdFeatureReqHandler+1)& (0+255),w,b
  5162  000AB0  6EDA               	movwf	fsr2h,c
  5163  000AB2  82DF               	bsf	indf2,1,c
  5164                           
  5165                           ;usb_device.c: 2872:                 }
  5166  000AB4  EF68  F005         	goto	l482
  5167  000AB8                     l6709:
  5168                           
  5169                           ; BSR set to: 4
  5170                           ;usb_device.c: 2874:                 {;usb_device.c: 2875:                     ep_data_i
      +                          n[SetupPkt.EPNum].bits.transfer_terminated = 1;
  5171  000AB8  5134               	movf	52,w,b	;volatile
  5172  000ABA  0B0F               	andlw	15
  5173  000ABC  0100               	movlb	0	; () banked
  5174  000ABE  6FF3               	movwf	??_USBStdFeatureReqHandler& (0+255),b
  5175  000AC0  6BF4               	clrf	(??_USBStdFeatureReqHandler+1)& (0+255),b
  5176  000AC2  0E18               	movlw	low _ep_data_in
  5177  000AC4  25F3               	addwf	??_USBStdFeatureReqHandler& (0+255),w,b
  5178  000AC6  6ED9               	movwf	fsr2l,c
  5179  000AC8  0E00               	movlw	high _ep_data_in
  5180  000ACA  21F4               	addwfc	(??_USBStdFeatureReqHandler+1)& (0+255),w,b
  5181  000ACC  6EDA               	movwf	fsr2h,c
  5182  000ACE  82DF               	bsf	indf2,1,c
  5183  000AD0                     l482:
  5184                           
  5185                           ;usb_device.c: 2880:             p->STAT.Val |= 0x04;
  5186  000AD0  C103  FFD9         	movff	USBStdFeatureReqHandler@p,fsr2l
  5187  000AD4  C104  FFDA         	movff	USBStdFeatureReqHandler@p+1,fsr2h
  5188  000AD8  0E00               	movlw	0
  5189  000ADA  84DB               	bsf	plusw2,2,c
  5190                           
  5191                           ;usb_device.c: 2881:             p->STAT.Val |= 0x80;
  5192  000ADC  C103  FFD9         	movff	USBStdFeatureReqHandler@p,fsr2l
  5193  000AE0  C104  FFDA         	movff	USBStdFeatureReqHandler@p+1,fsr2h
  5194  000AE4  0E00               	movlw	0
  5195  000AE6  8EDB               	bsf	plusw2,7,c
  5196                           
  5197                           ;usb_device.c: 2882:         }
  5198  000AE8  EF15  F006         	goto	l494
  5199  000AEC                     l6711:
  5200                           
  5201                           ; BSR set to: 4
  5202                           ;usb_device.c: 2884:         {;usb_device.c: 2888:                 p = (BDT_ENTRY*)(((ui
      +                          nt16_t)p) ^ 0x0004);
  5203  000AEC  0E04               	movlw	4
  5204  000AEE  0101               	movlb	1	; () banked
  5205  000AF0  1903               	xorwf	USBStdFeatureReqHandler@p& (0+255),w,b
  5206  000AF2  6F03               	movwf	USBStdFeatureReqHandler@p& (0+255),b
  5207  000AF4  5104               	movf	(USBStdFeatureReqHandler@p+1)& (0+255),w,b
  5208  000AF6  6F04               	movwf	(USBStdFeatureReqHandler@p+1)& (0+255),b
  5209  000AF8                     
  5210                           ; BSR set to: 1
  5211                           ;usb_device.c: 2890:                 if(p->STAT.UOWN == 1)
  5212  000AF8  C103  FFD9         	movff	USBStdFeatureReqHandler@p,fsr2l
  5213  000AFC  C104  FFDA         	movff	USBStdFeatureReqHandler@p+1,fsr2h
  5214  000B00  AEDF               	btfss	indf2,7,c
  5215  000B02  EF85  F005         	goto	u6051
  5216  000B06  EF87  F005         	goto	u6050
  5217  000B0A                     u6051:
  5218  000B0A  EFA4  F005         	goto	l6721
  5219  000B0E                     u6050:
  5220  000B0E                     
  5221                           ; BSR set to: 1
  5222                           ;usb_device.c: 2891:                 {;usb_device.c: 2894:                     p->STAT.V
      +                          al &= (~0x80);
  5223  000B0E  C103  FFD9         	movff	USBStdFeatureReqHandler@p,fsr2l
  5224  000B12  C104  FFDA         	movff	USBStdFeatureReqHandler@p+1,fsr2h
  5225  000B16  0E7F               	movlw	127
  5226  000B18  16DF               	andwf	indf2,f,c
  5227  000B1A                     
  5228                           ; BSR set to: 1
  5229                           ;usb_device.c: 2895:                     p->STAT.Val |= 0x40;
  5230  000B1A  C103  FFD9         	movff	USBStdFeatureReqHandler@p,fsr2l
  5231  000B1E  C104  FFDA         	movff	USBStdFeatureReqHandler@p+1,fsr2h
  5232  000B22  0E00               	movlw	0
  5233  000B24  8CDB               	bsf	plusw2,6,c
  5234  000B26                     
  5235                           ; BSR set to: 1
  5236                           ;usb_device.c: 2896:                     USER_USB_CALLBACK_EVENT_HANDLER((USB_EVENT)EVEN
      +                          T_TRANSFER_TERMINATED,p,sizeof(p));
  5237  000B26  0E00               	movlw	0
  5238  000B28  0100               	movlb	0	; () banked
  5239  000B2A  6FEC               	movwf	(USER_USB_CALLBACK_EVENT_HANDLER@event+1)& (0+255),b
  5240  000B2C  0E05               	movlw	5
  5241  000B2E  6FEB               	movwf	USER_USB_CALLBACK_EVENT_HANDLER@event& (0+255),b
  5242  000B30  C103  F0ED         	movff	USBStdFeatureReqHandler@p,USER_USB_CALLBACK_EVENT_HANDLER@pdata
  5243  000B34  C104  F0EE         	movff	USBStdFeatureReqHandler@p+1,USER_USB_CALLBACK_EVENT_HANDLER@pdata+1
  5244  000B38  0E00               	movlw	0
  5245  000B3A  6FF0               	movwf	(USER_USB_CALLBACK_EVENT_HANDLER@size+1)& (0+255),b
  5246  000B3C  0E02               	movlw	2
  5247  000B3E  6FEF               	movwf	USER_USB_CALLBACK_EVENT_HANDLER@size& (0+255),b
  5248  000B40  EC62  F01C         	call	_USER_USB_CALLBACK_EVENT_HANDLER	;wreg free
  5249                           
  5250                           ;usb_device.c: 2897:                 }
  5251  000B44  EFAA  F005         	goto	l6723
  5252  000B48                     l6721:
  5253                           
  5254                           ; BSR set to: 1
  5255                           ;usb_device.c: 2899:                 {;usb_device.c: 2901:      p->STAT.Val |= 0x40;
  5256  000B48  C103  FFD9         	movff	USBStdFeatureReqHandler@p,fsr2l
  5257  000B4C  C104  FFDA         	movff	USBStdFeatureReqHandler@p+1,fsr2h
  5258  000B50  0E00               	movlw	0
  5259  000B52  8CDB               	bsf	plusw2,6,c
  5260  000B54                     l6723:
  5261                           
  5262                           ;usb_device.c: 2906:                 p = (BDT_ENTRY*)(((uint16_t)p) ^ 0x0004);
  5263  000B54  0E04               	movlw	4
  5264  000B56  0101               	movlb	1	; () banked
  5265  000B58  1903               	xorwf	USBStdFeatureReqHandler@p& (0+255),w,b
  5266  000B5A  6F03               	movwf	USBStdFeatureReqHandler@p& (0+255),b
  5267  000B5C  5104               	movf	(USBStdFeatureReqHandler@p+1)& (0+255),w,b
  5268  000B5E  6F04               	movwf	(USBStdFeatureReqHandler@p+1)& (0+255),b
  5269  000B60                     
  5270                           ; BSR set to: 1
  5271                           ;usb_device.c: 2912:                 if((current_ep_data.bits.transfer_terminated != 0) 
      +                          || (p->STAT.UOWN == 1))
  5272  000B60  B302               	btfsc	USBStdFeatureReqHandler@current_ep_data& (0+255),1,b
  5273  000B62  EFB5  F005         	goto	u6061
  5274  000B66  EFB7  F005         	goto	u6060
  5275  000B6A                     u6061:
  5276  000B6A  EFC2  F005         	goto	l490
  5277  000B6E                     u6060:
  5278  000B6E                     
  5279                           ; BSR set to: 1
  5280  000B6E  C103  FFD9         	movff	USBStdFeatureReqHandler@p,fsr2l
  5281  000B72  C104  FFDA         	movff	USBStdFeatureReqHandler@p+1,fsr2h
  5282  000B76  AEDF               	btfss	indf2,7,c
  5283  000B78  EFC0  F005         	goto	u6071
  5284  000B7C  EFC2  F005         	goto	u6070
  5285  000B80                     u6071:
  5286  000B80  EFFA  F005         	goto	l6737
  5287  000B84                     u6070:
  5288  000B84                     l490:
  5289                           
  5290                           ; BSR set to: 1
  5291                           ;usb_device.c: 2913:                 {;usb_device.c: 2914:                     if(SetupP
      +                          kt.EPDir == 0)
  5292  000B84  0104               	movlb	4	; () banked
  5293  000B86  BF34               	btfsc	52,7,b	;volatile
  5294  000B88  EFC8  F005         	goto	u6081
  5295  000B8C  EFCA  F005         	goto	u6080
  5296  000B90                     u6081:
  5297  000B90  EFD8  F005         	goto	l6731
  5298  000B94                     u6080:
  5299  000B94                     
  5300                           ; BSR set to: 4
  5301                           ;usb_device.c: 2915:                     {;usb_device.c: 2916:                         e
      +                          p_data_out[SetupPkt.EPNum].bits.transfer_terminated = 0;
  5302  000B94  5134               	movf	52,w,b	;volatile
  5303  000B96  0B0F               	andlw	15
  5304  000B98  0100               	movlb	0	; () banked
  5305  000B9A  6FF3               	movwf	??_USBStdFeatureReqHandler& (0+255),b
  5306  000B9C  6BF4               	clrf	(??_USBStdFeatureReqHandler+1)& (0+255),b
  5307  000B9E  0E15               	movlw	low _ep_data_out
  5308  000BA0  25F3               	addwf	??_USBStdFeatureReqHandler& (0+255),w,b
  5309  000BA2  6ED9               	movwf	fsr2l,c
  5310  000BA4  0E00               	movlw	high _ep_data_out
  5311  000BA6  21F4               	addwfc	(??_USBStdFeatureReqHandler+1)& (0+255),w,b
  5312  000BA8  6EDA               	movwf	fsr2h,c
  5313  000BAA  92DF               	bcf	indf2,1,c
  5314                           
  5315                           ;usb_device.c: 2917:                     }
  5316  000BAC  EFE4  F005         	goto	l6733
  5317  000BB0                     l6731:
  5318                           
  5319                           ; BSR set to: 4
  5320                           ;usb_device.c: 2919:                     {;usb_device.c: 2920:                         e
      +                          p_data_in[SetupPkt.EPNum].bits.transfer_terminated = 0;
  5321  000BB0  5134               	movf	52,w,b	;volatile
  5322  000BB2  0B0F               	andlw	15
  5323  000BB4  0100               	movlb	0	; () banked
  5324  000BB6  6FF3               	movwf	??_USBStdFeatureReqHandler& (0+255),b
  5325  000BB8  6BF4               	clrf	(??_USBStdFeatureReqHandler+1)& (0+255),b
  5326  000BBA  0E18               	movlw	low _ep_data_in
  5327  000BBC  25F3               	addwf	??_USBStdFeatureReqHandler& (0+255),w,b
  5328  000BBE  6ED9               	movwf	fsr2l,c
  5329  000BC0  0E00               	movlw	high _ep_data_in
  5330  000BC2  21F4               	addwfc	(??_USBStdFeatureReqHandler+1)& (0+255),w,b
  5331  000BC4  6EDA               	movwf	fsr2h,c
  5332  000BC6  92DF               	bcf	indf2,1,c
  5333  000BC8                     l6733:
  5334                           
  5335                           ; BSR set to: 0
  5336                           ;usb_device.c: 2923:                     p->STAT.Val &= ~(0x80 | 0x40 | 0x04);
  5337  000BC8  C103  FFD9         	movff	USBStdFeatureReqHandler@p,fsr2l
  5338  000BCC  C104  FFDA         	movff	USBStdFeatureReqHandler@p+1,fsr2h
  5339  000BD0  0E3B               	movlw	59
  5340  000BD2  16DF               	andwf	indf2,f,c
  5341  000BD4                     
  5342                           ; BSR set to: 0
  5343                           ;usb_device.c: 2926:                     USER_USB_CALLBACK_EVENT_HANDLER((USB_EVENT)EVEN
      +                          T_TRANSFER_TERMINATED,p,sizeof(p));
  5344  000BD4  0E00               	movlw	0
  5345  000BD6  6FEC               	movwf	(USER_USB_CALLBACK_EVENT_HANDLER@event+1)& (0+255),b
  5346  000BD8  0E05               	movlw	5
  5347  000BDA  6FEB               	movwf	USER_USB_CALLBACK_EVENT_HANDLER@event& (0+255),b
  5348  000BDC  C103  F0ED         	movff	USBStdFeatureReqHandler@p,USER_USB_CALLBACK_EVENT_HANDLER@pdata
  5349  000BE0  C104  F0EE         	movff	USBStdFeatureReqHandler@p+1,USER_USB_CALLBACK_EVENT_HANDLER@pdata+1
  5350  000BE4  0E00               	movlw	0
  5351  000BE6  6FF0               	movwf	(USER_USB_CALLBACK_EVENT_HANDLER@size+1)& (0+255),b
  5352  000BE8  0E02               	movlw	2
  5353  000BEA  6FEF               	movwf	USER_USB_CALLBACK_EVENT_HANDLER@size& (0+255),b
  5354  000BEC  EC62  F01C         	call	_USER_USB_CALLBACK_EVENT_HANDLER	;wreg free
  5355                           
  5356                           ;usb_device.c: 2927:                 }
  5357  000BF0  EF00  F006         	goto	l6739
  5358  000BF4                     l6737:
  5359                           
  5360                           ; BSR set to: 1
  5361                           ;usb_device.c: 2929:                 {;usb_device.c: 2931:                     p->STAT.V
      +                          al &= ~(0x80 | 0x40 | 0x04);
  5362  000BF4  C103  FFD9         	movff	USBStdFeatureReqHandler@p,fsr2l
  5363  000BF8  C104  FFDA         	movff	USBStdFeatureReqHandler@p+1,fsr2h
  5364  000BFC  0E3B               	movlw	59
  5365  000BFE  16DF               	andwf	indf2,f,c
  5366  000C00                     l6739:
  5367                           
  5368                           ;usb_device.c: 2979:                 pUEP = (unsigned char*)(&UEP0+SetupPkt.EPNum);
  5369  000C00  0104               	movlb	4	; () banked
  5370  000C02  5134               	movf	52,w,b	;volatile
  5371  000C04  0B0F               	andlw	15
  5372  000C06  0100               	movlb	0	; () banked
  5373  000C08  6FF3               	movwf	??_USBStdFeatureReqHandler& (0+255),b
  5374  000C0A  6BF4               	clrf	(??_USBStdFeatureReqHandler+1)& (0+255),b
  5375  000C0C  0E70               	movlw	112
  5376  000C0E  25F3               	addwf	??_USBStdFeatureReqHandler& (0+255),w,b
  5377  000C10  0101               	movlb	1	; () banked
  5378  000C12  6F00               	movwf	USBStdFeatureReqHandler@pUEP& (0+255),b
  5379  000C14  0E0F               	movlw	15
  5380  000C16  0100               	movlb	0	; () banked
  5381  000C18  21F4               	addwfc	(??_USBStdFeatureReqHandler+1)& (0+255),w,b
  5382  000C1A  0101               	movlb	1	; () banked
  5383  000C1C  6F01               	movwf	(USBStdFeatureReqHandler@pUEP+1)& (0+255),b
  5384  000C1E                     
  5385                           ; BSR set to: 1
  5386                           ;usb_device.c: 2983:             *pUEP &= ~0x0001;
  5387  000C1E  C100  FFD9         	movff	USBStdFeatureReqHandler@pUEP,fsr2l
  5388  000C22  C101  FFDA         	movff	USBStdFeatureReqHandler@pUEP+1,fsr2h
  5389  000C26  0EFE               	movlw	254
  5390  000C28  16DF               	andwf	indf2,f,c
  5391  000C2A                     l494:
  5392  000C2A  0012               	return		;funcret
  5393  000C2C                     __end_of_USBStdFeatureReqHandler:
  5394                           	opt callstack 0
  5395                           
  5396 ;; *************** function _USER_USB_CALLBACK_EVENT_HANDLER *****************
  5397 ;; Defined at:
  5398 ;;		line 49 in file "usb_device_events.c"
  5399 ;; Parameters:    Size  Location     Type
  5400 ;;  event           2   12[BANK0 ] enum E44
  5401 ;;  pdata           2   14[BANK0 ] PTR void 
  5402 ;;		 -> RAM(2047), USTATcopy(1), USBActiveConfiguration(1), NULL(0), 
  5403 ;;		 -> BDT(48), 
  5404 ;;  size            2   16[BANK0 ] unsigned short 
  5405 ;; Auto vars:     Size  Location     Type
  5406 ;;		None
  5407 ;; Return value:  Size  Location     Type
  5408 ;;                  1    wreg      _Bool 
  5409 ;; Registers used:
  5410 ;;		wreg, fsr2l, fsr2h, status,2, status,0, prodl, prodh, cstack
  5411 ;; Tracked objects:
  5412 ;;		On entry : 0/0
  5413 ;;		On exit  : 0/0
  5414 ;;		Unchanged: 0/0
  5415 ;; Data sizes:     COMRAM   BANK0   BANK1   BANK2   BANK3  BANK4h  BANK4l   BANK5   BANK6   BANK7
  5416 ;;      Params:         0       6       0       0       0       0       0       0       0       0
  5417 ;;      Locals:         0       0       0       0       0       0       0       0       0       0
  5418 ;;      Temps:          0       2       0       0       0       0       0       0       0       0
  5419 ;;      Totals:         0       8       0       0       0       0       0       0       0       0
  5420 ;;Total ram usage:        8 bytes
  5421 ;; Hardware stack levels used:    1
  5422 ;; Hardware stack levels required when called:   14
  5423 ;; This function calls:
  5424 ;;		_CDCInitEP
  5425 ;;		_USBCheckCDCRequest
  5426 ;; This function is called by:
  5427 ;;		_USBDeviceTasks
  5428 ;;		_USBStdSetCfgHandler
  5429 ;;		_USBSuspend
  5430 ;;		_USBWakeFromSuspend
  5431 ;;		_USBCtrlTrfSetupHandler
  5432 ;;		_USBCheckStdRequest
  5433 ;;		_USBStdFeatureReqHandler
  5434 ;; This function uses a non-reentrant model
  5435 ;;
  5436                           
  5437                           	psect	text26
  5438  0038C4                     __ptext26:
  5439                           	opt callstack 0
  5440  0038C4                     _USER_USB_CALLBACK_EVENT_HANDLER:
  5441                           	opt callstack 15
  5442  0038C4                     
  5443                           ;usb_device_events.c: 49: _Bool USER_USB_CALLBACK_EVENT_HANDLER(USB_EVENT event, void *p
      +                          data, uint16_t size);usb_device_events.c: 50: {;usb_device_events.c: 51:     switch( (in
      +                          t) event )
  5444  0038C4  EF6C  F01C         	goto	l6439
  5445  0038C8                     l6433:
  5446                           
  5447                           ; BSR set to: 0
  5448                           ;usb_device_events.c: 76:             CDCInitEP();
  5449  0038C8  EC5F  F01D         	call	_CDCInitEP	;wreg free
  5450                           
  5451                           ;usb_device_events.c: 77:             break;
  5452  0038CC  EFA6  F01C         	goto	l641
  5453  0038D0                     l6435:
  5454                           
  5455                           ; BSR set to: 0
  5456                           ;usb_device_events.c: 85:             USBCheckCDCRequest();
  5457  0038D0  ECDB  F015         	call	_USBCheckCDCRequest	;wreg free
  5458                           
  5459                           ;usb_device_events.c: 86:             break;
  5460  0038D4  EFA6  F01C         	goto	l641
  5461  0038D8                     l6439:
  5462  0038D8  C0EB  F0F1         	movff	USER_USB_CALLBACK_EVENT_HANDLER@event,??_USER_USB_CALLBACK_EVENT_HANDLER
  5463  0038DC  C0EC  F0F2         	movff	USER_USB_CALLBACK_EVENT_HANDLER@event+1,??_USER_USB_CALLBACK_EVENT_HANDLER+1
  5464                           
  5465                           ; Switch on 2 bytes has been partitioned into a top level switch of size 1, and 2 sub-sw
      +                          itches
  5466                           ; Switch size 1, requested type "simple"
  5467                           ; Number of cases is 2, Range of values is 0 to 127
  5468                           ; switch strategies available:
  5469                           ; Name         Instructions Cycles
  5470                           ; simple_byte            7     4 (average)
  5471                           ;	Chosen strategy is simple_byte
  5472  0038E0  0100               	movlb	0	; () banked
  5473  0038E2  51F2               	movf	(??_USER_USB_CALLBACK_EVENT_HANDLER+1)& (0+255),w,b
  5474  0038E4  0A00               	xorlw	0	; case 0
  5475  0038E6  B4D8               	btfsc	status,2,c
  5476  0038E8  EF7C  F01C         	goto	l7743
  5477  0038EC  0A7F               	xorlw	127	; case 127
  5478  0038EE  B4D8               	btfsc	status,2,c
  5479  0038F0  EF9F  F01C         	goto	l7745
  5480  0038F4  EFA6  F01C         	goto	l641
  5481  0038F8                     l7743:
  5482                           
  5483                           ; BSR set to: 0
  5484                           ; Switch size 1, requested type "simple"
  5485                           ; Number of cases is 8, Range of values is 1 to 117
  5486                           ; switch strategies available:
  5487                           ; Name         Instructions Cycles
  5488                           ; simple_byte           25    13 (average)
  5489                           ;	Chosen strategy is simple_byte
  5490  0038F8  51F1               	movf	??_USER_USB_CALLBACK_EVENT_HANDLER& (0+255),w,b
  5491  0038FA  0A01               	xorlw	1	; case 1
  5492  0038FC  B4D8               	btfsc	status,2,c
  5493  0038FE  EF64  F01C         	goto	l6433
  5494  003902  0A03               	xorlw	3	; case 2
  5495  003904  B4D8               	btfsc	status,2,c
  5496  003906  EFA6  F01C         	goto	l641
  5497  00390A  0A01               	xorlw	1	; case 3
  5498  00390C  B4D8               	btfsc	status,2,c
  5499  00390E  EF68  F01C         	goto	l6435
  5500  003912  0A06               	xorlw	6	; case 5
  5501  003914  B4D8               	btfsc	status,2,c
  5502  003916  EFA6  F01C         	goto	l641
  5503  00391A  0A77               	xorlw	119	; case 114
  5504  00391C  B4D8               	btfsc	status,2,c
  5505  00391E  EFA6  F01C         	goto	l641
  5506  003922  0A01               	xorlw	1	; case 115
  5507  003924  B4D8               	btfsc	status,2,c
  5508  003926  EFA6  F01C         	goto	l641
  5509  00392A  0A07               	xorlw	7	; case 116
  5510  00392C  B4D8               	btfsc	status,2,c
  5511  00392E  EFA6  F01C         	goto	l641
  5512  003932  0A01               	xorlw	1	; case 117
  5513  003934  B4D8               	btfsc	status,2,c
  5514  003936  EFA6  F01C         	goto	l641
  5515  00393A  EFA6  F01C         	goto	l641
  5516  00393E                     l7745:
  5517                           
  5518                           ; BSR set to: 0
  5519                           ; Switch size 1, requested type "simple"
  5520                           ; Number of cases is 1, Range of values is 255 to 255
  5521                           ; switch strategies available:
  5522                           ; Name         Instructions Cycles
  5523                           ; simple_byte            4     3 (average)
  5524                           ;	Chosen strategy is simple_byte
  5525  00393E  51F1               	movf	??_USER_USB_CALLBACK_EVENT_HANDLER& (0+255),w,b
  5526  003940  0AFF               	xorlw	255	; case 255
  5527  003942  B4D8               	btfsc	status,2,c
  5528  003944  EFA6  F01C         	goto	l641
  5529  003948  EFA6  F01C         	goto	l641
  5530  00394C                     l641:
  5531  00394C  0012               	return		;funcret
  5532  00394E                     __end_of_USER_USB_CALLBACK_EVENT_HANDLER:
  5533                           	opt callstack 0
  5534                           
  5535 ;; *************** function _USBCheckCDCRequest *****************
  5536 ;; Defined at:
  5537 ;;		line 147 in file "usb_device_cdc.c"
  5538 ;; Parameters:    Size  Location     Type
  5539 ;;		None
  5540 ;; Auto vars:     Size  Location     Type
  5541 ;;		None
  5542 ;; Return value:  Size  Location     Type
  5543 ;;                  1    wreg      void 
  5544 ;; Registers used:
  5545 ;;		wreg, status,2, status,0
  5546 ;; Tracked objects:
  5547 ;;		On entry : 0/0
  5548 ;;		On exit  : 0/0
  5549 ;;		Unchanged: 0/0
  5550 ;; Data sizes:     COMRAM   BANK0   BANK1   BANK2   BANK3  BANK4h  BANK4l   BANK5   BANK6   BANK7
  5551 ;;      Params:         0       0       0       0       0       0       0       0       0       0
  5552 ;;      Locals:         0       0       0       0       0       0       0       0       0       0
  5553 ;;      Temps:          0       2       0       0       0       0       0       0       0       0
  5554 ;;      Totals:         0       2       0       0       0       0       0       0       0       0
  5555 ;;Total ram usage:        2 bytes
  5556 ;; Hardware stack levels used:    1
  5557 ;; Hardware stack levels required when called:   11
  5558 ;; This function calls:
  5559 ;;		Nothing
  5560 ;; This function is called by:
  5561 ;;		_USER_USB_CALLBACK_EVENT_HANDLER
  5562 ;; This function uses a non-reentrant model
  5563 ;;
  5564                           
  5565                           	psect	text27
  5566  002BB6                     __ptext27:
  5567                           	opt callstack 0
  5568  002BB6                     _USBCheckCDCRequest:
  5569                           	opt callstack 17
  5570  002BB6                     
  5571                           ;usb_device_cdc.c: 152:     if(SetupPkt.Recipient != (0x01)) return;
  5572  002BB6  0104               	movlb	4	; () banked
  5573  002BB8  5130               	movf	48,w,b	;volatile
  5574  002BBA  0B1F               	andlw	31
  5575  002BBC  06E8               	decf	wreg,f,c
  5576  002BBE  B4D8               	btfsc	status,2,c
  5577  002BC0  EFE4  F015         	goto	u5551
  5578  002BC4  EFE6  F015         	goto	u5550
  5579  002BC8                     u5551:
  5580  002BC8  EFE8  F015         	goto	l6345
  5581  002BCC                     u5550:
  5582  002BCC  EF5C  F016         	goto	l550
  5583  002BD0                     l6345:
  5584                           
  5585                           ; BSR set to: 4
  5586                           ;usb_device_cdc.c: 157:     if(SetupPkt.RequestType != (0x20>>5)) return;
  5587  002BD0  3930               	swapf	48,w,b	;volatile
  5588  002BD2  32E8               	rrcf	wreg,f,c
  5589  002BD4  0B03               	andlw	3
  5590  002BD6  06E8               	decf	wreg,f,c
  5591  002BD8  B4D8               	btfsc	status,2,c
  5592  002BDA  EFF1  F015         	goto	u5561
  5593  002BDE  EFF3  F015         	goto	u5560
  5594  002BE2                     u5561:
  5595  002BE2  EFF5  F015         	goto	l6349
  5596  002BE6                     u5560:
  5597  002BE6  EF5C  F016         	goto	l550
  5598  002BEA                     l6349:
  5599                           
  5600                           ; BSR set to: 4
  5601                           ;usb_device_cdc.c: 163:     if((SetupPkt.bIntfID != 0x0)&&
  5602  002BEA  5134               	movf	52,w,b	;volatile
  5603  002BEC  B4D8               	btfsc	status,2,c
  5604  002BEE  EFFB  F015         	goto	u5571
  5605  002BF2  EFFD  F015         	goto	u5570
  5606  002BF6                     u5571:
  5607  002BF6  EF3A  F016         	goto	l6379
  5608  002BFA                     u5570:
  5609  002BFA                     
  5610                           ; BSR set to: 4
  5611  002BFA  0534               	decf	52,w,b	;volatile
  5612  002BFC  B4D8               	btfsc	status,2,c
  5613  002BFE  EF03  F016         	goto	u5581
  5614  002C02  EF05  F016         	goto	u5580
  5615  002C06                     u5581:
  5616  002C06  EF3A  F016         	goto	l6379
  5617  002C0A                     u5580:
  5618  002C0A  EF5C  F016         	goto	l550
  5619  002C0E                     l6355:
  5620                           
  5621                           ; BSR set to: 0
  5622                           ;usb_device_cdc.c: 171:             inPipes[0].pSrc.bRam = (uint8_t*)&dummy_encapsulated
      +                          _cmd_response;
  5623  002C0E  0ECD               	movlw	low _dummy_encapsulated_cmd_response
  5624  002C10  6E09               	movwf	_inPipes^0,c	;volatile
  5625  002C12  0E00               	movlw	high _dummy_encapsulated_cmd_response
  5626  002C14  6E0A               	movwf	(_inPipes+1)^0,c	;volatile
  5627  002C16                     
  5628                           ; BSR set to: 0
  5629                           ;usb_device_cdc.c: 172:             inPipes[0].wCount.Val = 0x08;
  5630  002C16  0E00               	movlw	0
  5631  002C18  6E0E               	movwf	(_inPipes+5)^0,c	;volatile
  5632  002C1A  0E08               	movlw	8
  5633  002C1C  6E0D               	movwf	(_inPipes+4)^0,c	;volatile
  5634  002C1E                     
  5635                           ; BSR set to: 0
  5636                           ;usb_device_cdc.c: 173:             inPipes[0].info.bits.ctrl_trf_mem = 0x01;
  5637  002C1E  800C               	bsf	(_inPipes+3)^0,0,c	;volatile
  5638  002C20                     
  5639                           ; BSR set to: 0
  5640                           ;usb_device_cdc.c: 174:             inPipes[0].info.bits.busy = 1;
  5641  002C20  8E0C               	bsf	(_inPipes+3)^0,7,c	;volatile
  5642                           
  5643                           ;usb_device_cdc.c: 175:             break;
  5644  002C22  EF5C  F016         	goto	l550
  5645  002C26                     l6363:
  5646                           
  5647                           ; BSR set to: 0
  5648                           ;usb_device_cdc.c: 178:             inPipes[0].pSrc.bRam = (uint8_t*)&dummy_encapsulated
      +                          _cmd_response;
  5649  002C26  0ECD               	movlw	low _dummy_encapsulated_cmd_response
  5650  002C28  6E09               	movwf	_inPipes^0,c	;volatile
  5651  002C2A  0E00               	movlw	high _dummy_encapsulated_cmd_response
  5652  002C2C  6E0A               	movwf	(_inPipes+1)^0,c	;volatile
  5653  002C2E                     
  5654                           ; BSR set to: 0
  5655                           ;usb_device_cdc.c: 179:             inPipes[0].info.bits.busy = 1;
  5656  002C2E  8E0C               	bsf	(_inPipes+3)^0,7,c	;volatile
  5657                           
  5658                           ;usb_device_cdc.c: 180:             break;
  5659  002C30  EF5C  F016         	goto	l550
  5660  002C34                     l557:
  5661                           
  5662                           ; BSR set to: 0
  5663                           ;usb_device_cdc.c: 185:             outPipes[0].wCount.Val = SetupPkt.wLength;
  5664  002C34  C436 F005          	movff	1078,_outPipes+4	;volatile
  5665  002C38  C437 F006          	movff	1079,_outPipes+5	;volatile
  5666  002C3C                     
  5667                           ; BSR set to: 0
  5668                           ;usb_device_cdc.c: 186:             outPipes[0].pDst.bRam = (uint8_t*)&line_coding._byte
      +                          [0];
  5669  002C3C  0ED5               	movlw	low _line_coding
  5670  002C3E  6E01               	movwf	_outPipes^0,c	;volatile
  5671  002C40  0E00               	movlw	high _line_coding
  5672  002C42  6E02               	movwf	(_outPipes+1)^0,c	;volatile
  5673                           
  5674                           ;usb_device_cdc.c: 187:             outPipes[0].pFunc = ((void*)0);
  5675  002C44  0E00               	movlw	0
  5676  002C46  6E07               	movwf	(_outPipes+6)^0,c	;volatile
  5677  002C48  0E00               	movlw	0
  5678  002C4A  6E08               	movwf	(_outPipes+7)^0,c	;volatile
  5679  002C4C                     
  5680                           ; BSR set to: 0
  5681                           ;usb_device_cdc.c: 188:             outPipes[0].info.bits.busy = 1;
  5682  002C4C  8E04               	bsf	(_outPipes+3)^0,7,c	;volatile
  5683                           
  5684                           ;usb_device_cdc.c: 189:             break;
  5685  002C4E  EF5C  F016         	goto	l550
  5686  002C52                     l6371:
  5687                           
  5688                           ; BSR set to: 0
  5689                           ;usb_device_cdc.c: 192:             { inPipes[0].pSrc.bRam = (uint8_t*)&line_coding; inP
      +                          ipes[0].wCount.Val = 0x07; inPipes[0].info.Val = 0x40 | 0x80 | 0x01; };
  5690  002C52  0ED5               	movlw	low _line_coding
  5691  002C54  6E09               	movwf	_inPipes^0,c	;volatile
  5692  002C56  0E00               	movlw	high _line_coding
  5693  002C58  6E0A               	movwf	(_inPipes+1)^0,c	;volatile
  5694  002C5A                     
  5695                           ; BSR set to: 0
  5696  002C5A  0E00               	movlw	0
  5697  002C5C  6E0E               	movwf	(_inPipes+5)^0,c	;volatile
  5698  002C5E  0E07               	movlw	7
  5699  002C60  6E0D               	movwf	(_inPipes+4)^0,c	;volatile
  5700  002C62                     
  5701                           ; BSR set to: 0
  5702  002C62  0EC1               	movlw	193
  5703  002C64  6E0C               	movwf	(_inPipes+3)^0,c	;volatile
  5704                           
  5705                           ;usb_device_cdc.c: 196:             break;
  5706  002C66  EF5C  F016         	goto	l550
  5707  002C6A                     l559:
  5708                           
  5709                           ; BSR set to: 0
  5710                           ;usb_device_cdc.c: 199:             control_signal_bitmap._byte = (uint8_t)SetupPkt.wVal
      +                          ue;
  5711  002C6A  C432 F0C4          	movff	1074,_control_signal_bitmap	;volatile
  5712                           
  5713                           ;usb_device_cdc.c: 231:             inPipes[0].info.bits.busy = 1;
  5714  002C6E  8E0C               	bsf	(_inPipes+3)^0,7,c	;volatile
  5715                           
  5716                           ;usb_device_cdc.c: 232:             break;
  5717  002C70  EF5C  F016         	goto	l550
  5718  002C74                     l6379:
  5719                           
  5720                           ; BSR set to: 4
  5721  002C74  5131               	movf	49,w,b	;volatile
  5722  002C76  0100               	movlb	0	; () banked
  5723  002C78  6FDF               	movwf	??_USBCheckCDCRequest& (0+255),b
  5724  002C7A  6BE0               	clrf	(??_USBCheckCDCRequest+1)& (0+255),b
  5725                           
  5726                           ; Switch on 2 bytes has been partitioned into a top level switch of size 1, and 1 sub-sw
      +                          itches
  5727                           ; Switch size 1, requested type "simple"
  5728                           ; Number of cases is 1, Range of values is 0 to 0
  5729                           ; switch strategies available:
  5730                           ; Name         Instructions Cycles
  5731                           ; simple_byte            4     3 (average)
  5732                           ;	Chosen strategy is simple_byte
  5733  002C7C  51E0               	movf	(??_USBCheckCDCRequest+1)& (0+255),w,b
  5734  002C7E  0A00               	xorlw	0	; case 0
  5735  002C80  B4D8               	btfsc	status,2,c
  5736  002C82  EF45  F016         	goto	l7747
  5737  002C86  EF5C  F016         	goto	l550
  5738  002C8A                     l7747:
  5739                           
  5740                           ; BSR set to: 0
  5741                           ; Switch size 1, requested type "simple"
  5742                           ; Number of cases is 5, Range of values is 0 to 34
  5743                           ; switch strategies available:
  5744                           ; Name         Instructions Cycles
  5745                           ; simple_byte           16     9 (average)
  5746                           ;	Chosen strategy is simple_byte
  5747  002C8A  51DF               	movf	??_USBCheckCDCRequest& (0+255),w,b
  5748  002C8C  0A00               	xorlw	0	; case 0
  5749  002C8E  B4D8               	btfsc	status,2,c
  5750  002C90  EF07  F016         	goto	l6355
  5751  002C94  0A01               	xorlw	1	; case 1
  5752  002C96  B4D8               	btfsc	status,2,c
  5753  002C98  EF13  F016         	goto	l6363
  5754  002C9C  0A21               	xorlw	33	; case 32
  5755  002C9E  B4D8               	btfsc	status,2,c
  5756  002CA0  EF1A  F016         	goto	l557
  5757  002CA4  0A01               	xorlw	1	; case 33
  5758  002CA6  B4D8               	btfsc	status,2,c
  5759  002CA8  EF29  F016         	goto	l6371
  5760  002CAC  0A03               	xorlw	3	; case 34
  5761  002CAE  B4D8               	btfsc	status,2,c
  5762  002CB0  EF35  F016         	goto	l559
  5763  002CB4  EF5C  F016         	goto	l550
  5764  002CB8                     l550:
  5765  002CB8  0012               	return		;funcret
  5766  002CBA                     __end_of_USBCheckCDCRequest:
  5767                           	opt callstack 0
  5768                           
  5769 ;; *************** function _CDCInitEP *****************
  5770 ;; Defined at:
  5771 ;;		line 294 in file "usb_device_cdc.c"
  5772 ;; Parameters:    Size  Location     Type
  5773 ;;		None
  5774 ;; Auto vars:     Size  Location     Type
  5775 ;;		None
  5776 ;; Return value:  Size  Location     Type
  5777 ;;                  1    wreg      void 
  5778 ;; Registers used:
  5779 ;;		wreg, fsr2l, fsr2h, status,2, status,0, prodl, prodh, cstack
  5780 ;; Tracked objects:
  5781 ;;		On entry : 0/0
  5782 ;;		On exit  : 0/0
  5783 ;;		Unchanged: 0/0
  5784 ;; Data sizes:     COMRAM   BANK0   BANK1   BANK2   BANK3  BANK4h  BANK4l   BANK5   BANK6   BANK7
  5785 ;;      Params:         0       0       0       0       0       0       0       0       0       0
  5786 ;;      Locals:         0       0       0       0       0       0       0       0       0       0
  5787 ;;      Temps:          0       0       0       0       0       0       0       0       0       0
  5788 ;;      Totals:         0       0       0       0       0       0       0       0       0       0
  5789 ;;Total ram usage:        0 bytes
  5790 ;; Hardware stack levels used:    1
  5791 ;; Hardware stack levels required when called:   13
  5792 ;; This function calls:
  5793 ;;		_USBEnableEndpoint
  5794 ;;		_USBTransferOnePacket
  5795 ;; This function is called by:
  5796 ;;		_USER_USB_CALLBACK_EVENT_HANDLER
  5797 ;; This function uses a non-reentrant model
  5798 ;;
  5799                           
  5800                           	psect	text28
  5801  003ABE                     __ptext28:
  5802                           	opt callstack 0
  5803  003ABE                     _CDCInitEP:
  5804                           	opt callstack 15
  5805  003ABE                     
  5806                           ;usb_device_cdc.c: 297:     line_coding.dwDTERate = 19200;
  5807  003ABE  0E00               	movlw	0
  5808  003AC0  0100               	movlb	0	; () banked
  5809  003AC2  6FD5               	movwf	_line_coding& (0+255),b
  5810  003AC4  0E4B               	movlw	75
  5811  003AC6  6FD6               	movwf	(_line_coding+1)& (0+255),b
  5812  003AC8  0E00               	movlw	0
  5813  003ACA  6FD7               	movwf	(_line_coding+2)& (0+255),b
  5814  003ACC  0E00               	movlw	0
  5815  003ACE  6FD8               	movwf	(_line_coding+3)& (0+255),b
  5816                           
  5817                           ;usb_device_cdc.c: 298:     line_coding.bCharFormat = 0x00;
  5818  003AD0  0E00               	movlw	0
  5819  003AD2  6FD9               	movwf	(_line_coding+4)& (0+255),b
  5820                           
  5821                           ;usb_device_cdc.c: 299:     line_coding.bParityType = 0x00;
  5822  003AD4  0E00               	movlw	0
  5823  003AD6  6FDA               	movwf	(_line_coding+5)& (0+255),b
  5824                           
  5825                           ;usb_device_cdc.c: 300:     line_coding.bDataBits = 0x08;
  5826  003AD8  0E08               	movlw	8
  5827  003ADA  6FDB               	movwf	(_line_coding+6)& (0+255),b
  5828                           
  5829                           ;usb_device_cdc.c: 302:     cdc_rx_len = 0;
  5830  003ADC  0E00               	movlw	0
  5831  003ADE  6FC7               	movwf	_cdc_rx_len& (0+255),b
  5832  003AE0                     
  5833                           ; BSR set to: 0
  5834                           ;usb_device_cdc.c: 315:     USBEnableEndpoint(1,0x02|0x10|0x08);
  5835  003AE0  0E1A               	movlw	26
  5836  003AE2  6FE7               	movwf	USBEnableEndpoint@options& (0+255),b
  5837  003AE4  0E01               	movlw	1
  5838  003AE6  ECB5  F01E         	call	_USBEnableEndpoint
  5839  003AEA                     
  5840                           ;usb_device_cdc.c: 316:     USBEnableEndpoint(2,0x02|0x04|0x10|0x08);
  5841  003AEA  0E1E               	movlw	30
  5842  003AEC  0100               	movlb	0	; () banked
  5843  003AEE  6FE7               	movwf	USBEnableEndpoint@options& (0+255),b
  5844  003AF0  0E02               	movlw	2
  5845  003AF2  ECB5  F01E         	call	_USBEnableEndpoint
  5846  003AF6                     
  5847                           ;usb_device_cdc.c: 318:     CDCDataOutHandle = USBTransferOnePacket(2,0,(uint8_t*)&cdc_d
      +                          ata_rx,sizeof(cdc_data_rx));
  5848  003AF6  0E00               	movlw	0
  5849  003AF8  0100               	movlb	0	; () banked
  5850  003AFA  6FDF               	movwf	USBTransferOnePacket@dir& (0+255),b
  5851  003AFC  0E40               	movlw	64
  5852  003AFE  6FE0               	movwf	USBTransferOnePacket@data& (0+255),b
  5853  003B00  0E05               	movlw	5
  5854  003B02  6FE1               	movwf	(USBTransferOnePacket@data+1)& (0+255),b
  5855  003B04  0E40               	movlw	64
  5856  003B06  6FE2               	movwf	USBTransferOnePacket@len& (0+255),b
  5857  003B08  0E02               	movlw	2
  5858  003B0A  EC1F  F010         	call	_USBTransferOnePacket
  5859  003B0E  C0DF  F0C0         	movff	?_USBTransferOnePacket,_CDCDataOutHandle
  5860  003B12  C0E0  F0C1         	movff	?_USBTransferOnePacket+1,_CDCDataOutHandle+1
  5861  003B16                     
  5862                           ;usb_device_cdc.c: 319:     CDCDataInHandle = ((void*)0);
  5863  003B16  0E00               	movlw	0
  5864  003B18  0100               	movlb	0	; () banked
  5865  003B1A  6FBE               	movwf	_CDCDataInHandle& (0+255),b
  5866  003B1C  0E00               	movlw	0
  5867  003B1E  6FBF               	movwf	(_CDCDataInHandle+1)& (0+255),b
  5868  003B20                     
  5869                           ; BSR set to: 0
  5870                           ;usb_device_cdc.c: 346:     cdc_trf_state = 0;
  5871  003B20  0E00               	movlw	0
  5872  003B22  6E1F               	movwf	_cdc_trf_state^0,c
  5873  003B24                     
  5874                           ; BSR set to: 0
  5875  003B24  0012               	return		;funcret
  5876  003B26                     __end_of_CDCInitEP:
  5877                           	opt callstack 0
  5878                           
  5879 ;; *************** function _USBTransferOnePacket *****************
  5880 ;; Defined at:
  5881 ;;		line 1001 in file "usb_device.c"
  5882 ;; Parameters:    Size  Location     Type
  5883 ;;  ep              1    wreg     unsigned char 
  5884 ;;  dir             1    0[BANK0 ] unsigned char 
  5885 ;;  data            2    1[BANK0 ] PTR unsigned char 
  5886 ;;		 -> cdc_data_tx(64), cdc_data_rx(64), NULL(0), 
  5887 ;;  len             1    3[BANK0 ] unsigned char 
  5888 ;; Auto vars:     Size  Location     Type
  5889 ;;  ep              1    8[BANK0 ] unsigned char 
  5890 ;;  handle          2    9[BANK0 ] PTR volatile struct __BD
  5891 ;;		 -> RAM(2047), NULL(0), BDT(48), 
  5892 ;; Return value:  Size  Location     Type
  5893 ;;                  2    0[BANK0 ] PTR void 
  5894 ;; Registers used:
  5895 ;;		wreg, fsr2l, fsr2h, status,2, status,0, prodl, prodh
  5896 ;; Tracked objects:
  5897 ;;		On entry : 0/0
  5898 ;;		On exit  : 0/0
  5899 ;;		Unchanged: 0/0
  5900 ;; Data sizes:     COMRAM   BANK0   BANK1   BANK2   BANK3  BANK4h  BANK4l   BANK5   BANK6   BANK7
  5901 ;;      Params:         0       4       0       0       0       0       0       0       0       0
  5902 ;;      Locals:         0       3       0       0       0       0       0       0       0       0
  5903 ;;      Temps:          0       4       0       0       0       0       0       0       0       0
  5904 ;;      Totals:         0      11       0       0       0       0       0       0       0       0
  5905 ;;Total ram usage:       11 bytes
  5906 ;; Hardware stack levels used:    1
  5907 ;; Hardware stack levels required when called:   11
  5908 ;; This function calls:
  5909 ;;		Nothing
  5910 ;; This function is called by:
  5911 ;;		_CDCInitEP
  5912 ;;		_CDCTxService
  5913 ;;		_USBCDCEventHandler
  5914 ;;		_getsUSBUSART
  5915 ;; This function uses a non-reentrant model
  5916 ;;
  5917                           
  5918                           	psect	text29
  5919  00203E                     __ptext29:
  5920                           	opt callstack 0
  5921  00203E                     _USBTransferOnePacket:
  5922                           	opt callstack 17
  5923                           
  5924                           ; BSR set to: 0
  5925                           ;incstack = 0
  5926                           ;USBTransferOnePacket@ep stored from wreg
  5927  00203E  0100               	movlb	0	; () banked
  5928  002040  6FE7               	movwf	USBTransferOnePacket@ep& (0+255),b
  5929  002042                     
  5930                           ;usb_device.c: 1001: void* USBTransferOnePacket(uint8_t ep,uint8_t dir,uint8_t* data,uin
      +                          t8_t len);usb_device.c: 1002: {;usb_device.c: 1003:     volatile BDT_ENTRY* handle;;usb_
      +                          device.c: 1006:     if(dir != 0)
  5931  002042  0100               	movlb	0	; () banked
  5932  002044  51DF               	movf	USBTransferOnePacket@dir& (0+255),w,b
  5933  002046  B4D8               	btfsc	status,2,c
  5934  002048  EF28  F010         	goto	u5521
  5935  00204C  EF2A  F010         	goto	u5520
  5936  002050                     u5521:
  5937  002050  EF38  F010         	goto	l6315
  5938  002054                     u5520:
  5939  002054                     
  5940                           ; BSR set to: 0
  5941                           ;usb_device.c: 1007:     {;usb_device.c: 1009:         handle = pBDTEntryIn[ep];
  5942  002054  51E7               	movf	USBTransferOnePacket@ep& (0+255),w,b
  5943  002056  0D02               	mullw	2
  5944  002058  0E0F               	movlw	low _pBDTEntryIn
  5945  00205A  24F3               	addwf	243,w,c
  5946  00205C  6ED9               	movwf	fsr2l,c
  5947  00205E  0E00               	movlw	high _pBDTEntryIn
  5948  002060  20F4               	addwfc	prodh,w,c
  5949  002062  6EDA               	movwf	fsr2h,c
  5950  002064  CFDE F0E8          	movff	postinc2,USBTransferOnePacket@handle
  5951  002068  CFDD F0E9          	movff	postdec2,USBTransferOnePacket@handle+1
  5952                           
  5953                           ;usb_device.c: 1010:     }
  5954  00206C  EF44  F010         	goto	l6317
  5955  002070                     l6315:
  5956                           
  5957                           ; BSR set to: 0
  5958                           ;usb_device.c: 1012:     {;usb_device.c: 1014:         handle = pBDTEntryOut[ep];
  5959  002070  51E7               	movf	USBTransferOnePacket@ep& (0+255),w,b
  5960  002072  0D02               	mullw	2
  5961  002074  0EAA               	movlw	low _pBDTEntryOut
  5962  002076  24F3               	addwf	243,w,c
  5963  002078  6ED9               	movwf	fsr2l,c
  5964  00207A  0E00               	movlw	high _pBDTEntryOut
  5965  00207C  20F4               	addwfc	prodh,w,c
  5966  00207E  6EDA               	movwf	fsr2h,c
  5967  002080  CFDE F0E8          	movff	postinc2,USBTransferOnePacket@handle
  5968  002084  CFDD F0E9          	movff	postdec2,USBTransferOnePacket@handle+1
  5969  002088                     l6317:
  5970                           
  5971                           ; BSR set to: 0
  5972                           ;usb_device.c: 1019:     if(handle == 0)
  5973  002088  51E8               	movf	USBTransferOnePacket@handle& (0+255),w,b
  5974  00208A  11E9               	iorwf	(USBTransferOnePacket@handle+1)& (0+255),w,b
  5975  00208C  A4D8               	btfss	status,2,c
  5976  00208E  EF4B  F010         	goto	u5531
  5977  002092  EF4D  F010         	goto	u5530
  5978  002096                     u5531:
  5979  002096  EF53  F010         	goto	l6323
  5980  00209A                     u5530:
  5981  00209A                     
  5982                           ; BSR set to: 0
  5983                           ;usb_device.c: 1020:     {;usb_device.c: 1021:         return 0;
  5984  00209A  0E00               	movlw	0
  5985  00209C  6FDF               	movwf	?_USBTransferOnePacket& (0+255),b
  5986  00209E  0E00               	movlw	0
  5987  0020A0  6FE0               	movwf	(?_USBTransferOnePacket+1)& (0+255),b
  5988  0020A2  EFBF  F010         	goto	l287
  5989  0020A6                     l6323:
  5990                           
  5991                           ; BSR set to: 0
  5992                           ;usb_device.c: 1035:     handle->ADR = ((uint16_t)(data));
  5993  0020A6  EE20 F002          	lfsr	2,2
  5994  0020AA  51E8               	movf	USBTransferOnePacket@handle& (0+255),w,b
  5995  0020AC  26D9               	addwf	fsr2l,f,c
  5996  0020AE  51E9               	movf	(USBTransferOnePacket@handle+1)& (0+255),w,b
  5997  0020B0  22DA               	addwfc	fsr2h,f,c
  5998  0020B2  C0E0  FFDE         	movff	USBTransferOnePacket@data,postinc2
  5999  0020B6  C0E1  FFDD         	movff	USBTransferOnePacket@data+1,postdec2
  6000                           
  6001                           ;usb_device.c: 1036:     handle->CNT = len;
  6002  0020BA  EE20 F001          	lfsr	2,1
  6003  0020BE  51E8               	movf	USBTransferOnePacket@handle& (0+255),w,b
  6004  0020C0  26D9               	addwf	fsr2l,f,c
  6005  0020C2  51E9               	movf	(USBTransferOnePacket@handle+1)& (0+255),w,b
  6006  0020C4  22DA               	addwfc	fsr2h,f,c
  6007  0020C6  C0E2  FFDF         	movff	USBTransferOnePacket@len,indf2
  6008  0020CA                     
  6009                           ; BSR set to: 0
  6010                           ;usb_device.c: 1037:     handle->STAT.Val &= 0x40;
  6011  0020CA  C0E8  FFD9         	movff	USBTransferOnePacket@handle,fsr2l
  6012  0020CE  C0E9  FFDA         	movff	USBTransferOnePacket@handle+1,fsr2h
  6013  0020D2  0E40               	movlw	64
  6014  0020D4  16DF               	andwf	indf2,f,c
  6015  0020D6                     
  6016                           ; BSR set to: 0
  6017                           ;usb_device.c: 1038:     handle->STAT.Val |= (0x08 & 0x08);
  6018  0020D6  C0E8  FFD9         	movff	USBTransferOnePacket@handle,fsr2l
  6019  0020DA  C0E9  FFDA         	movff	USBTransferOnePacket@handle+1,fsr2h
  6020  0020DE  0E00               	movlw	0
  6021  0020E0  86DB               	bsf	plusw2,3,c
  6022  0020E2                     
  6023                           ; BSR set to: 0
  6024                           ;usb_device.c: 1039:     handle->STAT.Val |= 0x80;
  6025  0020E2  C0E8  FFD9         	movff	USBTransferOnePacket@handle,fsr2l
  6026  0020E6  C0E9  FFDA         	movff	USBTransferOnePacket@handle+1,fsr2h
  6027  0020EA  0E00               	movlw	0
  6028  0020EC  8EDB               	bsf	plusw2,7,c
  6029  0020EE                     
  6030                           ; BSR set to: 0
  6031                           ;usb_device.c: 1042:     if(dir != 0)
  6032  0020EE  51DF               	movf	USBTransferOnePacket@dir& (0+255),w,b
  6033  0020F0  B4D8               	btfsc	status,2,c
  6034  0020F2  EF7D  F010         	goto	u5541
  6035  0020F6  EF7F  F010         	goto	u5540
  6036  0020FA                     u5541:
  6037  0020FA  EF9E  F010         	goto	l6335
  6038  0020FE                     u5540:
  6039  0020FE                     
  6040                           ; BSR set to: 0
  6041                           ;usb_device.c: 1043:     {;usb_device.c: 1045:         pBDTEntryIn[ep] = (BDT_ENTRY*)(((
      +                          uint16_t)pBDTEntryIn[ep]) ^ 0x0004);
  6042  0020FE  51E7               	movf	USBTransferOnePacket@ep& (0+255),w,b
  6043  002100  0D02               	mullw	2
  6044  002102  0E0F               	movlw	low _pBDTEntryIn
  6045  002104  24F3               	addwf	243,w,c
  6046  002106  6ED9               	movwf	fsr2l,c
  6047  002108  0E00               	movlw	high _pBDTEntryIn
  6048  00210A  20F4               	addwfc	prodh,w,c
  6049  00210C  6EDA               	movwf	fsr2h,c
  6050  00210E  CFDE F0E3          	movff	postinc2,??_USBTransferOnePacket
  6051  002112  CFDD F0E4          	movff	postdec2,??_USBTransferOnePacket+1
  6052  002116  0E04               	movlw	4
  6053  002118  19E3               	xorwf	??_USBTransferOnePacket& (0+255),w,b
  6054  00211A  6FE5               	movwf	(??_USBTransferOnePacket+2)& (0+255),b
  6055  00211C  51E4               	movf	(??_USBTransferOnePacket+1)& (0+255),w,b
  6056  00211E  6FE6               	movwf	(??_USBTransferOnePacket+3)& (0+255),b
  6057  002120  51E7               	movf	USBTransferOnePacket@ep& (0+255),w,b
  6058  002122  0D02               	mullw	2
  6059  002124  0E0F               	movlw	low _pBDTEntryIn
  6060  002126  24F3               	addwf	243,w,c
  6061  002128  6ED9               	movwf	fsr2l,c
  6062  00212A  0E00               	movlw	high _pBDTEntryIn
  6063  00212C  20F4               	addwfc	prodh,w,c
  6064  00212E  6EDA               	movwf	fsr2h,c
  6065  002130  C0E5  FFDE         	movff	??_USBTransferOnePacket+2,postinc2
  6066  002134  C0E6  FFDD         	movff	??_USBTransferOnePacket+3,postdec2
  6067                           
  6068                           ;usb_device.c: 1046:     }
  6069  002138  EFBB  F010         	goto	l6337
  6070  00213C                     l6335:
  6071                           
  6072                           ; BSR set to: 0
  6073                           ;usb_device.c: 1048:     {;usb_device.c: 1050:         pBDTEntryOut[ep] = (BDT_ENTRY*)((
      +                          (uint16_t)pBDTEntryOut[ep]) ^ 0x0004);
  6074  00213C  51E7               	movf	USBTransferOnePacket@ep& (0+255),w,b
  6075  00213E  0D02               	mullw	2
  6076  002140  0EAA               	movlw	low _pBDTEntryOut
  6077  002142  24F3               	addwf	243,w,c
  6078  002144  6ED9               	movwf	fsr2l,c
  6079  002146  0E00               	movlw	high _pBDTEntryOut
  6080  002148  20F4               	addwfc	prodh,w,c
  6081  00214A  6EDA               	movwf	fsr2h,c
  6082  00214C  CFDE F0E3          	movff	postinc2,??_USBTransferOnePacket
  6083  002150  CFDD F0E4          	movff	postdec2,??_USBTransferOnePacket+1
  6084  002154  0E04               	movlw	4
  6085  002156  19E3               	xorwf	??_USBTransferOnePacket& (0+255),w,b
  6086  002158  6FE5               	movwf	(??_USBTransferOnePacket+2)& (0+255),b
  6087  00215A  51E4               	movf	(??_USBTransferOnePacket+1)& (0+255),w,b
  6088  00215C  6FE6               	movwf	(??_USBTransferOnePacket+3)& (0+255),b
  6089  00215E  51E7               	movf	USBTransferOnePacket@ep& (0+255),w,b
  6090  002160  0D02               	mullw	2
  6091  002162  0EAA               	movlw	low _pBDTEntryOut
  6092  002164  24F3               	addwf	243,w,c
  6093  002166  6ED9               	movwf	fsr2l,c
  6094  002168  0E00               	movlw	high _pBDTEntryOut
  6095  00216A  20F4               	addwfc	prodh,w,c
  6096  00216C  6EDA               	movwf	fsr2h,c
  6097  00216E  C0E5  FFDE         	movff	??_USBTransferOnePacket+2,postinc2
  6098  002172  C0E6  FFDD         	movff	??_USBTransferOnePacket+3,postdec2
  6099  002176                     l6337:
  6100                           
  6101                           ; BSR set to: 0
  6102                           ;usb_device.c: 1052:     return (void*)handle;
  6103  002176  C0E8  F0DF         	movff	USBTransferOnePacket@handle,?_USBTransferOnePacket
  6104  00217A  C0E9  F0E0         	movff	USBTransferOnePacket@handle+1,?_USBTransferOnePacket+1
  6105  00217E                     l287:
  6106                           
  6107                           ; BSR set to: 0
  6108  00217E  0012               	return		;funcret
  6109  002180                     __end_of_USBTransferOnePacket:
  6110                           	opt callstack 0
  6111                           
  6112 ;; *************** function _USBEnableEndpoint *****************
  6113 ;; Defined at:
  6114 ;;		line 884 in file "usb_device.c"
  6115 ;; Parameters:    Size  Location     Type
  6116 ;;  ep              1    wreg     unsigned char 
  6117 ;;  options         1    8[BANK0 ] unsigned char 
  6118 ;; Auto vars:     Size  Location     Type
  6119 ;;  ep              1   11[BANK0 ] unsigned char 
  6120 ;;  p               2    9[BANK0 ] PTR unsigned char 
  6121 ;;		 -> UEP0(1), 
  6122 ;; Return value:  Size  Location     Type
  6123 ;;                  1    wreg      void 
  6124 ;; Registers used:
  6125 ;;		wreg, fsr2l, fsr2h, status,2, status,0, prodl, prodh, cstack
  6126 ;; Tracked objects:
  6127 ;;		On entry : 0/0
  6128 ;;		On exit  : 0/0
  6129 ;;		Unchanged: 0/0
  6130 ;; Data sizes:     COMRAM   BANK0   BANK1   BANK2   BANK3  BANK4h  BANK4l   BANK5   BANK6   BANK7
  6131 ;;      Params:         0       1       0       0       0       0       0       0       0       0
  6132 ;;      Locals:         0       3       0       0       0       0       0       0       0       0
  6133 ;;      Temps:          0       0       0       0       0       0       0       0       0       0
  6134 ;;      Totals:         0       4       0       0       0       0       0       0       0       0
  6135 ;;Total ram usage:        4 bytes
  6136 ;; Hardware stack levels used:    1
  6137 ;; Hardware stack levels required when called:   12
  6138 ;; This function calls:
  6139 ;;		_USBConfigureEndpoint
  6140 ;; This function is called by:
  6141 ;;		_CDCInitEP
  6142 ;; This function uses a non-reentrant model
  6143 ;;
  6144                           
  6145                           	psect	text30
  6146  003D6A                     __ptext30:
  6147                           	opt callstack 0
  6148  003D6A                     _USBEnableEndpoint:
  6149                           	opt callstack 15
  6150                           
  6151                           ; BSR set to: 0
  6152                           ;incstack = 0
  6153                           ;USBEnableEndpoint@ep stored from wreg
  6154  003D6A  0100               	movlb	0	; () banked
  6155  003D6C  6FEA               	movwf	USBEnableEndpoint@ep& (0+255),b
  6156  003D6E                     
  6157                           ;usb_device.c: 884: void USBEnableEndpoint(uint8_t ep, uint8_t options);usb_device.c: 88
      +                          5: {;usb_device.c: 886:     unsigned char* p;;usb_device.c: 890:     if(options & 0x04)
  6158  003D6E  0100               	movlb	0	; () banked
  6159  003D70  A5E7               	btfss	USBEnableEndpoint@options& (0+255),2,b
  6160  003D72  EFBD  F01E         	goto	u5501
  6161  003D76  EFBF  F01E         	goto	u5500
  6162  003D7A                     u5501:
  6163  003D7A  EFC4  F01E         	goto	l6303
  6164  003D7E                     u5500:
  6165  003D7E                     
  6166                           ; BSR set to: 0
  6167                           ;usb_device.c: 891:     {;usb_device.c: 892:         USBConfigureEndpoint(ep, 0);
  6168  003D7E  0E00               	movlw	0
  6169  003D80  6FDF               	movwf	USBConfigureEndpoint@direction& (0+255),b
  6170  003D82  51EA               	movf	USBEnableEndpoint@ep& (0+255),w,b
  6171  003D84  EC75  F01A         	call	_USBConfigureEndpoint
  6172  003D88                     l6303:
  6173                           
  6174                           ;usb_device.c: 894:     if(options & 0x02)
  6175  003D88  0100               	movlb	0	; () banked
  6176  003D8A  A3E7               	btfss	USBEnableEndpoint@options& (0+255),1,b
  6177  003D8C  EFCA  F01E         	goto	u5511
  6178  003D90  EFCC  F01E         	goto	u5510
  6179  003D94                     u5511:
  6180  003D94  EFD1  F01E         	goto	l6307
  6181  003D98                     u5510:
  6182  003D98                     
  6183                           ; BSR set to: 0
  6184                           ;usb_device.c: 895:     {;usb_device.c: 896:         USBConfigureEndpoint(ep, 1);
  6185  003D98  0E01               	movlw	1
  6186  003D9A  6FDF               	movwf	USBConfigureEndpoint@direction& (0+255),b
  6187  003D9C  51EA               	movf	USBEnableEndpoint@ep& (0+255),w,b
  6188  003D9E  EC75  F01A         	call	_USBConfigureEndpoint
  6189  003DA2                     l6307:
  6190                           
  6191                           ;usb_device.c: 905:         p = (unsigned char*)(&UEP0+ep);
  6192  003DA2  0E70               	movlw	112
  6193  003DA4  0100               	movlb	0	; () banked
  6194  003DA6  25EA               	addwf	USBEnableEndpoint@ep& (0+255),w,b
  6195  003DA8  6FE8               	movwf	USBEnableEndpoint@p& (0+255),b
  6196  003DAA  6BE9               	clrf	(USBEnableEndpoint@p+1)& (0+255),b
  6197  003DAC  0E0F               	movlw	15
  6198  003DAE  23E9               	addwfc	(USBEnableEndpoint@p+1)& (0+255),f,b
  6199  003DB0                     
  6200                           ; BSR set to: 0
  6201                           ;usb_device.c: 907:     *p = options;
  6202  003DB0  C0E8  FFD9         	movff	USBEnableEndpoint@p,fsr2l
  6203  003DB4  C0E9  FFDA         	movff	USBEnableEndpoint@p+1,fsr2h
  6204  003DB8  C0E7  FFDF         	movff	USBEnableEndpoint@options,indf2
  6205  003DBC                     
  6206                           ; BSR set to: 0
  6207  003DBC  0012               	return		;funcret
  6208  003DBE                     __end_of_USBEnableEndpoint:
  6209                           	opt callstack 0
  6210                           
  6211 ;; *************** function _USBConfigureEndpoint *****************
  6212 ;; Defined at:
  6213 ;;		line 1549 in file "usb_device.c"
  6214 ;; Parameters:    Size  Location     Type
  6215 ;;  EPNum           1    wreg     unsigned char 
  6216 ;;  direction       1    0[BANK0 ] unsigned char 
  6217 ;; Auto vars:     Size  Location     Type
  6218 ;;  EPNum           1    5[BANK0 ] unsigned char 
  6219 ;;  handle          2    6[BANK0 ] PTR volatile struct __BD
  6220 ;;		 -> BDT(48), 
  6221 ;; Return value:  Size  Location     Type
  6222 ;;                  1    wreg      void 
  6223 ;; Registers used:
  6224 ;;		wreg, fsr2l, fsr2h, status,2, status,0, prodl, prodh
  6225 ;; Tracked objects:
  6226 ;;		On entry : 0/0
  6227 ;;		On exit  : 0/0
  6228 ;;		Unchanged: 0/0
  6229 ;; Data sizes:     COMRAM   BANK0   BANK1   BANK2   BANK3  BANK4h  BANK4l   BANK5   BANK6   BANK7
  6230 ;;      Params:         0       1       0       0       0       0       0       0       0       0
  6231 ;;      Locals:         0       3       0       0       0       0       0       0       0       0
  6232 ;;      Temps:          0       4       0       0       0       0       0       0       0       0
  6233 ;;      Totals:         0       8       0       0       0       0       0       0       0       0
  6234 ;;Total ram usage:        8 bytes
  6235 ;; Hardware stack levels used:    1
  6236 ;; Hardware stack levels required when called:   11
  6237 ;; This function calls:
  6238 ;;		Nothing
  6239 ;; This function is called by:
  6240 ;;		_USBEnableEndpoint
  6241 ;; This function uses a non-reentrant model
  6242 ;;
  6243                           
  6244                           	psect	text31
  6245  0034EA                     __ptext31:
  6246                           	opt callstack 0
  6247  0034EA                     _USBConfigureEndpoint:
  6248                           	opt callstack 15
  6249                           
  6250                           ; BSR set to: 0
  6251                           ;incstack = 0
  6252                           ;USBConfigureEndpoint@EPNum stored from wreg
  6253  0034EA  0100               	movlb	0	; () banked
  6254  0034EC  6FE4               	movwf	USBConfigureEndpoint@EPNum& (0+255),b
  6255  0034EE                     
  6256                           ;usb_device.c: 1549: static void USBConfigureEndpoint(uint8_t EPNum, uint8_t direction);
      +                          usb_device.c: 1550: {;usb_device.c: 1551:     volatile BDT_ENTRY* handle;;usb_device.c: 
      +                          1555:     handle = (volatile BDT_ENTRY*)&BDT[0];
  6257  0034EE  0E00               	movlw	0
  6258  0034F0  0100               	movlb	0	; () banked
  6259  0034F2  6FE5               	movwf	USBConfigureEndpoint@handle& (0+255),b
  6260  0034F4  0E04               	movlw	4
  6261  0034F6  6FE6               	movwf	(USBConfigureEndpoint@handle+1)& (0+255),b
  6262  0034F8                     
  6263                           ; BSR set to: 0
  6264                           ;usb_device.c: 1556:     handle += (4*EPNum+2*direction+0u);
  6265  0034F8  51DF               	movf	USBConfigureEndpoint@direction& (0+255),w,b
  6266  0034FA  6FE0               	movwf	??_USBConfigureEndpoint& (0+255),b
  6267  0034FC  6BE1               	clrf	(??_USBConfigureEndpoint+1)& (0+255),b
  6268  0034FE  90D8               	bcf	status,0,c
  6269  003500  37E0               	rlcf	??_USBConfigureEndpoint& (0+255),f,b
  6270  003502  37E1               	rlcf	(??_USBConfigureEndpoint+1)& (0+255),f,b
  6271  003504  51E4               	movf	USBConfigureEndpoint@EPNum& (0+255),w,b
  6272  003506  6FE2               	movwf	(??_USBConfigureEndpoint+2)& (0+255),b
  6273  003508  6BE3               	clrf	(??_USBConfigureEndpoint+3)& (0+255),b
  6274  00350A  90D8               	bcf	status,0,c
  6275  00350C  37E2               	rlcf	(??_USBConfigureEndpoint+2)& (0+255),f,b
  6276  00350E  37E3               	rlcf	(??_USBConfigureEndpoint+3)& (0+255),f,b
  6277  003510  90D8               	bcf	status,0,c
  6278  003512  37E2               	rlcf	(??_USBConfigureEndpoint+2)& (0+255),f,b
  6279  003514  37E3               	rlcf	(??_USBConfigureEndpoint+3)& (0+255),f,b
  6280  003516  51E0               	movf	??_USBConfigureEndpoint& (0+255),w,b
  6281  003518  27E2               	addwf	(??_USBConfigureEndpoint+2)& (0+255),f,b
  6282  00351A  51E1               	movf	(??_USBConfigureEndpoint+1)& (0+255),w,b
  6283  00351C  23E3               	addwfc	(??_USBConfigureEndpoint+3)& (0+255),f,b
  6284  00351E  90D8               	bcf	status,0,c
  6285  003520  37E2               	rlcf	(??_USBConfigureEndpoint+2)& (0+255),f,b
  6286  003522  37E3               	rlcf	(??_USBConfigureEndpoint+3)& (0+255),f,b
  6287  003524  90D8               	bcf	status,0,c
  6288  003526  37E2               	rlcf	(??_USBConfigureEndpoint+2)& (0+255),f,b
  6289  003528  37E3               	rlcf	(??_USBConfigureEndpoint+3)& (0+255),f,b
  6290  00352A  51E2               	movf	(??_USBConfigureEndpoint+2)& (0+255),w,b
  6291  00352C  27E5               	addwf	USBConfigureEndpoint@handle& (0+255),f,b
  6292  00352E  51E3               	movf	(??_USBConfigureEndpoint+3)& (0+255),w,b
  6293  003530  23E6               	addwfc	(USBConfigureEndpoint@handle+1)& (0+255),f,b
  6294  003532                     
  6295                           ; BSR set to: 0
  6296                           ;usb_device.c: 1558:     handle->STAT.UOWN = 0;
  6297  003532  C0E5  FFD9         	movff	USBConfigureEndpoint@handle,fsr2l
  6298  003536  C0E6  FFDA         	movff	USBConfigureEndpoint@handle+1,fsr2h
  6299  00353A  9EDF               	bcf	indf2,7,c
  6300  00353C                     
  6301                           ; BSR set to: 0
  6302                           ;usb_device.c: 1563:     if(direction == 0)
  6303  00353C  51DF               	movf	USBConfigureEndpoint@direction& (0+255),w,b
  6304  00353E  A4D8               	btfss	status,2,c
  6305  003540  EFA4  F01A         	goto	u5491
  6306  003544  EFA6  F01A         	goto	u5490
  6307  003548                     u5491:
  6308  003548  EFB4  F01A         	goto	l6293
  6309  00354C                     u5490:
  6310  00354C                     
  6311                           ; BSR set to: 0
  6312                           ;usb_device.c: 1564:     {;usb_device.c: 1565:         pBDTEntryOut[EPNum] = handle;
  6313  00354C  51E4               	movf	USBConfigureEndpoint@EPNum& (0+255),w,b
  6314  00354E  0D02               	mullw	2
  6315  003550  0EAA               	movlw	low _pBDTEntryOut
  6316  003552  24F3               	addwf	243,w,c
  6317  003554  6ED9               	movwf	fsr2l,c
  6318  003556  0E00               	movlw	high _pBDTEntryOut
  6319  003558  20F4               	addwfc	prodh,w,c
  6320  00355A  6EDA               	movwf	fsr2h,c
  6321  00355C  C0E5  FFDE         	movff	USBConfigureEndpoint@handle,postinc2
  6322  003560  C0E6  FFDD         	movff	USBConfigureEndpoint@handle+1,postdec2
  6323                           
  6324                           ;usb_device.c: 1566:     }
  6325  003564  EFC0  F01A         	goto	l6295
  6326  003568                     l6293:
  6327                           
  6328                           ; BSR set to: 0
  6329                           ;usb_device.c: 1568:     {;usb_device.c: 1569:         pBDTEntryIn[EPNum] = handle;
  6330  003568  51E4               	movf	USBConfigureEndpoint@EPNum& (0+255),w,b
  6331  00356A  0D02               	mullw	2
  6332  00356C  0E0F               	movlw	low _pBDTEntryIn
  6333  00356E  24F3               	addwf	243,w,c
  6334  003570  6ED9               	movwf	fsr2l,c
  6335  003572  0E00               	movlw	high _pBDTEntryIn
  6336  003574  20F4               	addwfc	prodh,w,c
  6337  003576  6EDA               	movwf	fsr2h,c
  6338  003578  C0E5  FFDE         	movff	USBConfigureEndpoint@handle,postinc2
  6339  00357C  C0E6  FFDD         	movff	USBConfigureEndpoint@handle+1,postdec2
  6340  003580                     l6295:
  6341                           
  6342                           ; BSR set to: 0
  6343                           ;usb_device.c: 1573:         handle->STAT.DTS = 0;
  6344  003580  C0E5  FFD9         	movff	USBConfigureEndpoint@handle,fsr2l
  6345  003584  C0E6  FFDA         	movff	USBConfigureEndpoint@handle+1,fsr2h
  6346  003588  9CDF               	bcf	indf2,6,c
  6347  00358A                     
  6348                           ; BSR set to: 0
  6349                           ;usb_device.c: 1574:         (handle+1)->STAT.DTS = 1;
  6350  00358A  EE20 F004          	lfsr	2,4
  6351  00358E  51E5               	movf	USBConfigureEndpoint@handle& (0+255),w,b
  6352  003590  26D9               	addwf	fsr2l,f,c
  6353  003592  51E6               	movf	(USBConfigureEndpoint@handle+1)& (0+255),w,b
  6354  003594  22DA               	addwfc	fsr2h,f,c
  6355  003596  8CDF               	bsf	indf2,6,c
  6356  003598                     
  6357                           ; BSR set to: 0
  6358  003598  0012               	return		;funcret
  6359  00359A                     __end_of_USBConfigureEndpoint:
  6360                           	opt callstack 0
  6361                           
  6362 ;; *************** function _USBCtrlTrfOutHandler *****************
  6363 ;; Defined at:
  6364 ;;		line 2544 in file "usb_device.c"
  6365 ;; Parameters:    Size  Location     Type
  6366 ;;		None
  6367 ;; Auto vars:     Size  Location     Type
  6368 ;;		None
  6369 ;; Return value:  Size  Location     Type
  6370 ;;                  1    wreg      void 
  6371 ;; Registers used:
  6372 ;;		wreg, fsr1l, fsr1h, fsr2l, fsr2h, status,2, status,0, cstack
  6373 ;; Tracked objects:
  6374 ;;		On entry : 0/0
  6375 ;;		On exit  : 0/0
  6376 ;;		Unchanged: 0/0
  6377 ;; Data sizes:     COMRAM   BANK0   BANK1   BANK2   BANK3  BANK4h  BANK4l   BANK5   BANK6   BANK7
  6378 ;;      Params:         0       0       0       0       0       0       0       0       0       0
  6379 ;;      Locals:         0       0       0       0       0       0       0       0       0       0
  6380 ;;      Temps:          0       0       0       0       0       0       0       0       0       0
  6381 ;;      Totals:         0       0       0       0       0       0       0       0       0       0
  6382 ;;Total ram usage:        0 bytes
  6383 ;; Hardware stack levels used:    1
  6384 ;; Hardware stack levels required when called:   13
  6385 ;; This function calls:
  6386 ;;		_USBCtrlTrfRxService
  6387 ;; This function is called by:
  6388 ;;		_USBCtrlEPService
  6389 ;; This function uses a non-reentrant model
  6390 ;;
  6391                           
  6392                           	psect	text32
  6393  0039D6                     __ptext32:
  6394                           	opt callstack 0
  6395  0039D6                     _USBCtrlTrfOutHandler:
  6396                           	opt callstack 15
  6397  0039D6                     
  6398                           ;usb_device.c: 2546:     if(controlTransferState == 2)
  6399  0039D6  0E02               	movlw	2
  6400  0039D8  1827               	xorwf	_controlTransferState^0,w,c	;volatile
  6401  0039DA  A4D8               	btfss	status,2,c
  6402  0039DC  EFF2  F01C         	goto	u6231
  6403  0039E0  EFF4  F01C         	goto	u6230
  6404  0039E4                     u6231:
  6405  0039E4  EFF8  F01C         	goto	l6923
  6406  0039E8                     u6230:
  6407  0039E8                     
  6408                           ;usb_device.c: 2547:     {;usb_device.c: 2548:         USBCtrlTrfRxService();
  6409  0039E8  ECDC  F00E         	call	_USBCtrlTrfRxService	;wreg free
  6410                           
  6411                           ;usb_device.c: 2549:     }
  6412  0039EC  EF24  F01D         	goto	l436
  6413  0039F0                     l6923:
  6414                           
  6415                           ;usb_device.c: 2551:     {;usb_device.c: 2554:         controlTransferState = 0;
  6416  0039F0  0E00               	movlw	0
  6417  0039F2  6E27               	movwf	_controlTransferState^0,c	;volatile
  6418                           
  6419                           ;usb_device.c: 2561:         if(BothEP0OutUOWNsSet == 0)
  6420  0039F4  5024               	movf	_BothEP0OutUOWNsSet^0,w,c	;volatile
  6421  0039F6  A4D8               	btfss	status,2,c
  6422  0039F8  EF00  F01D         	goto	u6241
  6423  0039FC  EF02  F01D         	goto	u6240
  6424  003A00                     u6241:
  6425  003A00  EF22  F01D         	goto	l6931
  6426  003A04                     u6240:
  6427  003A04                     
  6428                           ;usb_device.c: 2562:         {;usb_device.c: 2563:             pBDTEntryEP0OutNext->CNT 
      +                          = 32;
  6429  003A04  EE20 F001          	lfsr	2,1
  6430  003A08  501B               	movf	_pBDTEntryEP0OutNext^0,w,c
  6431  003A0A  26D9               	addwf	fsr2l,f,c
  6432  003A0C  501C               	movf	(_pBDTEntryEP0OutNext+1)^0,w,c
  6433  003A0E  22DA               	addwfc	fsr2h,f,c
  6434  003A10  0E20               	movlw	32
  6435  003A12  6EDF               	movwf	indf2,c
  6436                           
  6437                           ;usb_device.c: 2564:             pBDTEntryEP0OutNext->ADR = ((uint16_t)(&SetupPkt));
  6438  003A14  EE20 F002          	lfsr	2,2
  6439  003A18  501B               	movf	_pBDTEntryEP0OutNext^0,w,c
  6440  003A1A  26D9               	addwf	fsr2l,f,c
  6441  003A1C  501C               	movf	(_pBDTEntryEP0OutNext+1)^0,w,c
  6442  003A1E  22DA               	addwfc	fsr2h,f,c
  6443  003A20  0E30               	movlw	48
  6444  003A22  6EDE               	movwf	postinc2,c
  6445  003A24  0E04               	movlw	4
  6446  003A26  6EDD               	movwf	postdec2,c
  6447  003A28                     
  6448                           ;usb_device.c: 2565:             pBDTEntryEP0OutNext->STAT.Val = 0x00|(0x08 & 0x08)|0x04
      +                          ;
  6449  003A28  C01B  FFD9         	movff	_pBDTEntryEP0OutNext,fsr2l
  6450  003A2C  C01C  FFDA         	movff	_pBDTEntryEP0OutNext+1,fsr2h
  6451  003A30  0E0C               	movlw	12
  6452  003A32  6EDF               	movwf	indf2,c
  6453  003A34                     
  6454                           ;usb_device.c: 2566:             pBDTEntryEP0OutNext->STAT.Val |= 0x80;
  6455  003A34  C01B  FFD9         	movff	_pBDTEntryEP0OutNext,fsr2l
  6456  003A38  C01C  FFDA         	movff	_pBDTEntryEP0OutNext+1,fsr2h
  6457  003A3C  0E00               	movlw	0
  6458  003A3E  8EDB               	bsf	plusw2,7,c
  6459                           
  6460                           ;usb_device.c: 2567:         }
  6461  003A40  EF24  F01D         	goto	l436
  6462  003A44                     l6931:
  6463                           
  6464                           ;usb_device.c: 2569:         {;usb_device.c: 2570:                 BothEP0OutUOWNsSet = 
      +                          0;
  6465  003A44  0E00               	movlw	0
  6466  003A46  6E24               	movwf	_BothEP0OutUOWNsSet^0,c	;volatile
  6467  003A48                     l436:
  6468  003A48  0012               	return		;funcret
  6469  003A4A                     __end_of_USBCtrlTrfOutHandler:
  6470                           	opt callstack 0
  6471                           
  6472 ;; *************** function _USBCtrlTrfRxService *****************
  6473 ;; Defined at:
  6474 ;;		line 1858 in file "usb_device.c"
  6475 ;; Parameters:    Size  Location     Type
  6476 ;;		None
  6477 ;; Auto vars:     Size  Location     Type
  6478 ;;  byteToRead      1    1[BANK0 ] unsigned char 
  6479 ;;  i               1    0[BANK0 ] unsigned char 
  6480 ;; Return value:  Size  Location     Type
  6481 ;;                  1    wreg      void 
  6482 ;; Registers used:
  6483 ;;		wreg, fsr1l, fsr1h, fsr2l, fsr2h, status,2, status,0, cstack
  6484 ;; Tracked objects:
  6485 ;;		On entry : 0/0
  6486 ;;		On exit  : 0/0
  6487 ;;		Unchanged: 0/0
  6488 ;; Data sizes:     COMRAM   BANK0   BANK1   BANK2   BANK3  BANK4h  BANK4l   BANK5   BANK6   BANK7
  6489 ;;      Params:         0       0       0       0       0       0       0       0       0       0
  6490 ;;      Locals:         0       2       0       0       0       0       0       0       0       0
  6491 ;;      Temps:          0       0       0       0       0       0       0       0       0       0
  6492 ;;      Totals:         0       2       0       0       0       0       0       0       0       0
  6493 ;;Total ram usage:        2 bytes
  6494 ;; Hardware stack levels used:    1
  6495 ;; Hardware stack levels required when called:   12
  6496 ;; This function calls:
  6497 ;;		_USBCtrlEPAllowStatusStage
  6498 ;; This function is called by:
  6499 ;;		_USBCtrlTrfOutHandler
  6500 ;; This function uses a non-reentrant model
  6501 ;;
  6502                           
  6503                           	psect	text33
  6504  001DB8                     __ptext33:
  6505                           	opt callstack 0
  6506  001DB8                     _USBCtrlTrfRxService:
  6507                           	opt callstack 15
  6508  001DB8                     
  6509                           ;usb_device.c: 1860:     uint8_t byteToRead;;usb_device.c: 1861:     uint8_t i;;usb_devi
      +                          ce.c: 1865:     byteToRead = pBDTEntryEP0OutCurrent->CNT;
  6510  001DB8  EE20 F001          	lfsr	2,1
  6511  001DBC  501D               	movf	_pBDTEntryEP0OutCurrent^0,w,c
  6512  001DBE  26D9               	addwf	fsr2l,f,c
  6513  001DC0  501E               	movf	(_pBDTEntryEP0OutCurrent+1)^0,w,c
  6514  001DC2  22DA               	addwfc	fsr2h,f,c
  6515  001DC4  50DF               	movf	indf2,w,c
  6516  001DC6  0100               	movlb	0	; () banked
  6517  001DC8  6FE0               	movwf	USBCtrlTrfRxService@byteToRead& (0+255),b
  6518  001DCA                     
  6519                           ; BSR set to: 0
  6520                           ;usb_device.c: 1871:     if(byteToRead > outPipes[0].wCount.Val)
  6521  001DCA  51E0               	movf	USBCtrlTrfRxService@byteToRead& (0+255),w,b
  6522  001DCC  5C05               	subwf	(_outPipes+4)^0,w,c	;volatile
  6523  001DCE  0E00               	movlw	0
  6524  001DD0  5806               	subwfb	(_outPipes+5)^0,w,c	;volatile
  6525  001DD2  B0D8               	btfsc	status,0,c
  6526  001DD4  EFEE  F00E         	goto	u6161
  6527  001DD8  EFF0  F00E         	goto	u6160
  6528  001DDC                     u6161:
  6529  001DDC  EFF2  F00E         	goto	l6799
  6530  001DE0                     u6160:
  6531  001DE0                     
  6532                           ; BSR set to: 0
  6533                           ;usb_device.c: 1872:     {;usb_device.c: 1873:         byteToRead = outPipes[0].wCount.V
      +                          al;
  6534  001DE0  C005  F0E0         	movff	_outPipes+4,USBCtrlTrfRxService@byteToRead	;volatile
  6535  001DE4                     l6799:
  6536                           
  6537                           ; BSR set to: 0
  6538                           ;usb_device.c: 1876:     outPipes[0].wCount.Val -= byteToRead;
  6539  001DE4  51E0               	movf	USBCtrlTrfRxService@byteToRead& (0+255),w,b
  6540  001DE6  5E05               	subwf	(_outPipes+4)^0,f,c	;volatile
  6541  001DE8  0E00               	movlw	0
  6542  001DEA  5A06               	subwfb	(_outPipes+5)^0,f,c	;volatile
  6543  001DEC                     
  6544                           ; BSR set to: 0
  6545                           ;usb_device.c: 1880:     for(i=0;i<byteToRead;i++)
  6546  001DEC  0E00               	movlw	0
  6547  001DEE  6FDF               	movwf	USBCtrlTrfRxService@i& (0+255),b
  6548  001DF0  EF09  F00F         	goto	l6809
  6549  001DF4                     l6803:
  6550                           
  6551                           ; BSR set to: 0
  6552                           ;usb_device.c: 1881:     {;usb_device.c: 1882:         *outPipes[0].pDst.bRam++ = CtrlTr
      +                          fData[i];
  6553  001DF4  0E50               	movlw	80
  6554  001DF6  25DF               	addwf	USBCtrlTrfRxService@i& (0+255),w,b
  6555  001DF8  6ED9               	movwf	fsr2l,c
  6556  001DFA  6ADA               	clrf	fsr2h,c
  6557  001DFC  0E04               	movlw	4
  6558  001DFE  22DA               	addwfc	fsr2h,f,c
  6559  001E00  C001  FFE1         	movff	_outPipes,fsr1l	;volatile
  6560  001E04  C002  FFE2         	movff	_outPipes+1,fsr1h	;volatile
  6561  001E08  CFDF FFE7          	movff	indf2,indf1
  6562  001E0C                     
  6563                           ; BSR set to: 0
  6564  001E0C  4A01               	infsnz	_outPipes^0,f,c	;volatile
  6565  001E0E  2A02               	incf	(_outPipes+1)^0,f,c	;volatile
  6566  001E10                     
  6567                           ; BSR set to: 0
  6568                           ;usb_device.c: 1883:     }
  6569  001E10  2BDF               	incf	USBCtrlTrfRxService@i& (0+255),f,b
  6570  001E12                     l6809:
  6571                           
  6572                           ; BSR set to: 0
  6573  001E12  51E0               	movf	USBCtrlTrfRxService@byteToRead& (0+255),w,b
  6574  001E14  5DDF               	subwf	USBCtrlTrfRxService@i& (0+255),w,b
  6575  001E16  A0D8               	btfss	status,0,c
  6576  001E18  EF10  F00F         	goto	u6171
  6577  001E1C  EF12  F00F         	goto	u6170
  6578  001E20                     u6171:
  6579  001E20  EFFA  F00E         	goto	l6803
  6580  001E24                     u6170:
  6581  001E24                     
  6582                           ; BSR set to: 0
  6583                           ;usb_device.c: 1887:     if(outPipes[0].wCount.Val > 0)
  6584  001E24  5005               	movf	(_outPipes+4)^0,w,c	;volatile
  6585  001E26  1006               	iorwf	(_outPipes+5)^0,w,c	;volatile
  6586  001E28  B4D8               	btfsc	status,2,c
  6587  001E2A  EF19  F00F         	goto	u6181
  6588  001E2E  EF1B  F00F         	goto	u6180
  6589  001E32                     u6181:
  6590  001E32  EF54  F00F         	goto	l6825
  6591  001E36                     u6180:
  6592  001E36                     
  6593                           ; BSR set to: 0
  6594                           ;usb_device.c: 1888:     {;usb_device.c: 1889:         pBDTEntryEP0OutNext->CNT = 32;
  6595  001E36  EE20 F001          	lfsr	2,1
  6596  001E3A  501B               	movf	_pBDTEntryEP0OutNext^0,w,c
  6597  001E3C  26D9               	addwf	fsr2l,f,c
  6598  001E3E  501C               	movf	(_pBDTEntryEP0OutNext+1)^0,w,c
  6599  001E40  22DA               	addwfc	fsr2h,f,c
  6600  001E42  0E20               	movlw	32
  6601  001E44  6EDF               	movwf	indf2,c
  6602                           
  6603                           ;usb_device.c: 1890:         pBDTEntryEP0OutNext->ADR = ((uint16_t)(&CtrlTrfData));
  6604  001E46  EE20 F002          	lfsr	2,2
  6605  001E4A  501B               	movf	_pBDTEntryEP0OutNext^0,w,c
  6606  001E4C  26D9               	addwf	fsr2l,f,c
  6607  001E4E  501C               	movf	(_pBDTEntryEP0OutNext+1)^0,w,c
  6608  001E50  22DA               	addwfc	fsr2h,f,c
  6609  001E52  0E50               	movlw	80
  6610  001E54  6EDE               	movwf	postinc2,c
  6611  001E56  0E04               	movlw	4
  6612  001E58  6EDD               	movwf	postdec2,c
  6613  001E5A                     
  6614                           ; BSR set to: 0
  6615                           ;usb_device.c: 1891:         if(pBDTEntryEP0OutCurrent->STAT.DTS == 0)
  6616  001E5A  C01D  FFD9         	movff	_pBDTEntryEP0OutCurrent,fsr2l
  6617  001E5E  C01E  FFDA         	movff	_pBDTEntryEP0OutCurrent+1,fsr2h
  6618  001E62  BCDF               	btfsc	indf2,6,c
  6619  001E64  EF36  F00F         	goto	u6191
  6620  001E68  EF38  F00F         	goto	u6190
  6621  001E6C                     u6191:
  6622  001E6C  EF46  F00F         	goto	l6821
  6623  001E70                     u6190:
  6624  001E70                     
  6625                           ; BSR set to: 0
  6626                           ;usb_device.c: 1892:         {;usb_device.c: 1893:             pBDTEntryEP0OutNext->STAT
      +                          .Val = 0x40|(0x08 & 0x08);
  6627  001E70  C01B  FFD9         	movff	_pBDTEntryEP0OutNext,fsr2l
  6628  001E74  C01C  FFDA         	movff	_pBDTEntryEP0OutNext+1,fsr2h
  6629  001E78  0E48               	movlw	72
  6630  001E7A  6EDF               	movwf	indf2,c
  6631  001E7C                     
  6632                           ; BSR set to: 0
  6633                           ;usb_device.c: 1894:             pBDTEntryEP0OutNext->STAT.Val |= 0x80;
  6634  001E7C  C01B  FFD9         	movff	_pBDTEntryEP0OutNext,fsr2l
  6635  001E80  C01C  FFDA         	movff	_pBDTEntryEP0OutNext+1,fsr2h
  6636  001E84  0E00               	movlw	0
  6637  001E86  8EDB               	bsf	plusw2,7,c
  6638                           
  6639                           ;usb_device.c: 1895:         }
  6640  001E88  EF7D  F00F         	goto	l369
  6641  001E8C                     l6821:
  6642                           
  6643                           ; BSR set to: 0
  6644                           ;usb_device.c: 1897:         {;usb_device.c: 1898:             pBDTEntryEP0OutNext->STAT
      +                          .Val = 0x00|(0x08 & 0x08);
  6645  001E8C  C01B  FFD9         	movff	_pBDTEntryEP0OutNext,fsr2l
  6646  001E90  C01C  FFDA         	movff	_pBDTEntryEP0OutNext+1,fsr2h
  6647  001E94  0E08               	movlw	8
  6648  001E96  6EDF               	movwf	indf2,c
  6649  001E98                     
  6650                           ; BSR set to: 0
  6651                           ;usb_device.c: 1899:             pBDTEntryEP0OutNext->STAT.Val |= 0x80;
  6652  001E98  C01B  FFD9         	movff	_pBDTEntryEP0OutNext,fsr2l
  6653  001E9C  C01C  FFDA         	movff	_pBDTEntryEP0OutNext+1,fsr2h
  6654  001EA0  0E00               	movlw	0
  6655  001EA2  8EDB               	bsf	plusw2,7,c
  6656  001EA4  EF7D  F00F         	goto	l369
  6657  001EA8                     l6825:
  6658                           
  6659                           ; BSR set to: 0
  6660                           ;usb_device.c: 1903:     {;usb_device.c: 1907:         pBDTEntryEP0OutNext->CNT = 32;
  6661  001EA8  EE20 F001          	lfsr	2,1
  6662  001EAC  501B               	movf	_pBDTEntryEP0OutNext^0,w,c
  6663  001EAE  26D9               	addwf	fsr2l,f,c
  6664  001EB0  501C               	movf	(_pBDTEntryEP0OutNext+1)^0,w,c
  6665  001EB2  22DA               	addwfc	fsr2h,f,c
  6666  001EB4  0E20               	movlw	32
  6667  001EB6  6EDF               	movwf	indf2,c
  6668                           
  6669                           ;usb_device.c: 1908:         pBDTEntryEP0OutNext->ADR = ((uint16_t)(&SetupPkt));
  6670  001EB8  EE20 F002          	lfsr	2,2
  6671  001EBC  501B               	movf	_pBDTEntryEP0OutNext^0,w,c
  6672  001EBE  26D9               	addwf	fsr2l,f,c
  6673  001EC0  501C               	movf	(_pBDTEntryEP0OutNext+1)^0,w,c
  6674  001EC2  22DA               	addwfc	fsr2h,f,c
  6675  001EC4  0E30               	movlw	48
  6676  001EC6  6EDE               	movwf	postinc2,c
  6677  001EC8  0E04               	movlw	4
  6678  001ECA  6EDD               	movwf	postdec2,c
  6679  001ECC                     
  6680                           ; BSR set to: 0
  6681                           ;usb_device.c: 1912:         pBDTEntryEP0OutNext->STAT.Val = 0x04;
  6682  001ECC  C01B  FFD9         	movff	_pBDTEntryEP0OutNext,fsr2l
  6683  001ED0  C01C  FFDA         	movff	_pBDTEntryEP0OutNext+1,fsr2h
  6684  001ED4  0E04               	movlw	4
  6685  001ED6  6EDF               	movwf	indf2,c
  6686  001ED8                     
  6687                           ; BSR set to: 0
  6688                           ;usb_device.c: 1913:         pBDTEntryEP0OutNext->STAT.Val |= 0x80;
  6689  001ED8  C01B  FFD9         	movff	_pBDTEntryEP0OutNext,fsr2l
  6690  001EDC  C01C  FFDA         	movff	_pBDTEntryEP0OutNext+1,fsr2h
  6691  001EE0  0E00               	movlw	0
  6692  001EE2  8EDB               	bsf	plusw2,7,c
  6693  001EE4                     
  6694                           ; BSR set to: 0
  6695  001EE4  9E04               	bcf	(_outPipes+3)^0,7,c	;volatile
  6696  001EE6                     
  6697                           ; BSR set to: 0
  6698                           ;usb_device.c: 1947:         if(USBDeferStatusStagePacket == 0)
  6699  001EE6  5023               	movf	_USBDeferStatusStagePacket^0,w,c	;volatile
  6700  001EE8  A4D8               	btfss	status,2,c
  6701  001EEA  EF79  F00F         	goto	u6201
  6702  001EEE  EF7B  F00F         	goto	u6200
  6703  001EF2                     u6201:
  6704  001EF2  EF7D  F00F         	goto	l369
  6705  001EF6                     u6200:
  6706  001EF6                     
  6707                           ; BSR set to: 0
  6708                           ;usb_device.c: 1948:         {;usb_device.c: 1949:             USBCtrlEPAllowStatusStage
      +                          ();
  6709  001EF6  ECE1  F017         	call	_USBCtrlEPAllowStatusStage	;wreg free
  6710  001EFA                     l369:
  6711  001EFA  0012               	return		;funcret
  6712  001EFC                     __end_of_USBCtrlTrfRxService:
  6713                           	opt callstack 0
  6714                           
  6715 ;; *************** function _USBCtrlEPAllowStatusStage *****************
  6716 ;; Defined at:
  6717 ;;		line 1422 in file "usb_device.c"
  6718 ;; Parameters:    Size  Location     Type
  6719 ;;		None
  6720 ;; Auto vars:     Size  Location     Type
  6721 ;;		None
  6722 ;; Return value:  Size  Location     Type
  6723 ;;                  1    wreg      void 
  6724 ;; Registers used:
  6725 ;;		wreg, fsr2l, fsr2h, status,2, status,0
  6726 ;; Tracked objects:
  6727 ;;		On entry : 0/0
  6728 ;;		On exit  : 0/0
  6729 ;;		Unchanged: 0/0
  6730 ;; Data sizes:     COMRAM   BANK0   BANK1   BANK2   BANK3  BANK4h  BANK4l   BANK5   BANK6   BANK7
  6731 ;;      Params:         0       0       0       0       0       0       0       0       0       0
  6732 ;;      Locals:         0       0       0       0       0       0       0       0       0       0
  6733 ;;      Temps:          0       0       0       0       0       0       0       0       0       0
  6734 ;;      Totals:         0       0       0       0       0       0       0       0       0       0
  6735 ;;Total ram usage:        0 bytes
  6736 ;; Hardware stack levels used:    1
  6737 ;; Hardware stack levels required when called:   11
  6738 ;; This function calls:
  6739 ;;		Nothing
  6740 ;; This function is called by:
  6741 ;;		_USBDeviceTasks
  6742 ;;		_USBCtrlEPServiceComplete
  6743 ;;		_USBCtrlTrfRxService
  6744 ;; This function uses a non-reentrant model
  6745 ;;
  6746                           
  6747                           	psect	text34
  6748  002FC2                     __ptext34:
  6749                           	opt callstack 0
  6750  002FC2                     _USBCtrlEPAllowStatusStage:
  6751                           	opt callstack 15
  6752  002FC2                     
  6753                           ;usb_device.c: 1429:     if(USBStatusStageEnabledFlag1 == 0)
  6754  002FC2  5022               	movf	_USBStatusStageEnabledFlag1^0,w,c	;volatile
  6755  002FC4  A4D8               	btfss	status,2,c
  6756  002FC6  EFE7  F017         	goto	u5721
  6757  002FCA  EFE9  F017         	goto	u5720
  6758  002FCE                     u5721:
  6759  002FCE  EF58  F018         	goto	l317
  6760  002FD2                     u5720:
  6761  002FD2                     
  6762                           ;usb_device.c: 1430:     {;usb_device.c: 1431:         USBStatusStageEnabledFlag1 = 1;
  6763  002FD2  0E01               	movlw	1
  6764  002FD4  6E22               	movwf	_USBStatusStageEnabledFlag1^0,c	;volatile
  6765                           
  6766                           ;usb_device.c: 1432:         if(USBStatusStageEnabledFlag2 == 0)
  6767  002FD6  5021               	movf	_USBStatusStageEnabledFlag2^0,w,c	;volatile
  6768  002FD8  A4D8               	btfss	status,2,c
  6769  002FDA  EFF1  F017         	goto	u5731
  6770  002FDE  EFF3  F017         	goto	u5730
  6771  002FE2                     u5731:
  6772  002FE2  EF58  F018         	goto	l317
  6773  002FE6                     u5730:
  6774  002FE6                     
  6775                           ;usb_device.c: 1433:         {;usb_device.c: 1434:             USBStatusStageEnabledFlag
      +                          2 = 1;
  6776  002FE6  0E01               	movlw	1
  6777  002FE8  6E21               	movwf	_USBStatusStageEnabledFlag2^0,c	;volatile
  6778  002FEA                     
  6779                           ;usb_device.c: 1438:             if(controlTransferState == 2)
  6780  002FEA  0E02               	movlw	2
  6781  002FEC  1827               	xorwf	_controlTransferState^0,w,c	;volatile
  6782  002FEE  A4D8               	btfss	status,2,c
  6783  002FF0  EFFC  F017         	goto	u5741
  6784  002FF4  EFFE  F017         	goto	u5740
  6785  002FF8                     u5741:
  6786  002FF8  EF14  F018         	goto	l6507
  6787  002FFC                     u5740:
  6788  002FFC                     
  6789                           ;usb_device.c: 1439:             {;usb_device.c: 1440:                 pBDTEntryIn[0]->C
      +                          NT = 0;
  6790  002FFC  EE20 F001          	lfsr	2,1
  6791  003000  500F               	movf	_pBDTEntryIn^0,w,c
  6792  003002  26D9               	addwf	fsr2l,f,c
  6793  003004  5010               	movf	(_pBDTEntryIn+1)^0,w,c
  6794  003006  22DA               	addwfc	fsr2h,f,c
  6795  003008  0E00               	movlw	0
  6796  00300A  6EDF               	movwf	indf2,c
  6797  00300C                     
  6798                           ;usb_device.c: 1441:                 pBDTEntryIn[0]->STAT.Val = 0x40|(0x08 & 0x08);
  6799  00300C  C00F  FFD9         	movff	_pBDTEntryIn,fsr2l
  6800  003010  C010  FFDA         	movff	_pBDTEntryIn+1,fsr2h
  6801  003014  0E48               	movlw	72
  6802  003016  6EDF               	movwf	indf2,c
  6803  003018                     
  6804                           ;usb_device.c: 1442:                 pBDTEntryIn[0]->STAT.Val |= 0x80;
  6805  003018  C00F  FFD9         	movff	_pBDTEntryIn,fsr2l
  6806  00301C  C010  FFDA         	movff	_pBDTEntryIn+1,fsr2h
  6807  003020  0E00               	movlw	0
  6808  003022  8EDB               	bsf	plusw2,7,c
  6809                           
  6810                           ;usb_device.c: 1443:             }
  6811  003024  EF58  F018         	goto	l317
  6812  003028                     l6507:
  6813  003028  0427               	decf	_controlTransferState^0,w,c	;volatile
  6814  00302A  A4D8               	btfss	status,2,c
  6815  00302C  EF1A  F018         	goto	u5751
  6816  003030  EF1C  F018         	goto	u5750
  6817  003034                     u5751:
  6818  003034  EF58  F018         	goto	l313
  6819  003038                     u5750:
  6820  003038                     
  6821                           ;usb_device.c: 1445:             {;usb_device.c: 1446:                 BothEP0OutUOWNsSe
      +                          t = 0;
  6822  003038  0E00               	movlw	0
  6823  00303A  6E24               	movwf	_BothEP0OutUOWNsSet^0,c	;volatile
  6824  00303C                     
  6825                           ;usb_device.c: 1451:                     pBDTEntryEP0OutCurrent->CNT = 32;
  6826  00303C  EE20 F001          	lfsr	2,1
  6827  003040  501D               	movf	_pBDTEntryEP0OutCurrent^0,w,c
  6828  003042  26D9               	addwf	fsr2l,f,c
  6829  003044  501E               	movf	(_pBDTEntryEP0OutCurrent+1)^0,w,c
  6830  003046  22DA               	addwfc	fsr2h,f,c
  6831  003048  0E20               	movlw	32
  6832  00304A  6EDF               	movwf	indf2,c
  6833  00304C                     
  6834                           ;usb_device.c: 1452:                     pBDTEntryEP0OutCurrent->ADR = ((uint16_t)(&Setu
      +                          pPkt));
  6835  00304C  EE20 F002          	lfsr	2,2
  6836  003050  501D               	movf	_pBDTEntryEP0OutCurrent^0,w,c
  6837  003052  26D9               	addwf	fsr2l,f,c
  6838  003054  501E               	movf	(_pBDTEntryEP0OutCurrent+1)^0,w,c
  6839  003056  22DA               	addwfc	fsr2h,f,c
  6840  003058  0E30               	movlw	48
  6841  00305A  6EDE               	movwf	postinc2,c
  6842  00305C  0E04               	movlw	4
  6843  00305E  6EDD               	movwf	postdec2,c
  6844  003060                     
  6845                           ;usb_device.c: 1453:                     pBDTEntryEP0OutCurrent->STAT.Val = 0x04;
  6846  003060  C01D  FFD9         	movff	_pBDTEntryEP0OutCurrent,fsr2l
  6847  003064  C01E  FFDA         	movff	_pBDTEntryEP0OutCurrent+1,fsr2h
  6848  003068  0E04               	movlw	4
  6849  00306A  6EDF               	movwf	indf2,c
  6850  00306C                     
  6851                           ;usb_device.c: 1454:                     pBDTEntryEP0OutCurrent->STAT.Val |= 0x80;
  6852  00306C  C01D  FFD9         	movff	_pBDTEntryEP0OutCurrent,fsr2l
  6853  003070  C01E  FFDA         	movff	_pBDTEntryEP0OutCurrent+1,fsr2h
  6854  003074  0E00               	movlw	0
  6855  003076  8EDB               	bsf	plusw2,7,c
  6856  003078                     
  6857                           ;usb_device.c: 1455:                     BothEP0OutUOWNsSet = 1;
  6858  003078  0E01               	movlw	1
  6859  00307A  6E24               	movwf	_BothEP0OutUOWNsSet^0,c	;volatile
  6860  00307C                     
  6861                           ;usb_device.c: 1459:                 pBDTEntryEP0OutNext->CNT = 32;
  6862  00307C  EE20 F001          	lfsr	2,1
  6863  003080  501B               	movf	_pBDTEntryEP0OutNext^0,w,c
  6864  003082  26D9               	addwf	fsr2l,f,c
  6865  003084  501C               	movf	(_pBDTEntryEP0OutNext+1)^0,w,c
  6866  003086  22DA               	addwfc	fsr2h,f,c
  6867  003088  0E20               	movlw	32
  6868  00308A  6EDF               	movwf	indf2,c
  6869  00308C                     
  6870                           ;usb_device.c: 1460:                 pBDTEntryEP0OutNext->ADR = ((uint16_t)(&SetupPkt));
  6871  00308C  EE20 F002          	lfsr	2,2
  6872  003090  501B               	movf	_pBDTEntryEP0OutNext^0,w,c
  6873  003092  26D9               	addwf	fsr2l,f,c
  6874  003094  501C               	movf	(_pBDTEntryEP0OutNext+1)^0,w,c
  6875  003096  22DA               	addwfc	fsr2h,f,c
  6876  003098  0E30               	movlw	48
  6877  00309A  6EDE               	movwf	postinc2,c
  6878  00309C  0E04               	movlw	4
  6879  00309E  6EDD               	movwf	postdec2,c
  6880  0030A0                     
  6881                           ;usb_device.c: 1461:                 pBDTEntryEP0OutNext->STAT.Val = 0x80;
  6882  0030A0  C01B  FFD9         	movff	_pBDTEntryEP0OutNext,fsr2l
  6883  0030A4  C01C  FFDA         	movff	_pBDTEntryEP0OutNext+1,fsr2h
  6884  0030A8  0E80               	movlw	128
  6885  0030AA  6EDF               	movwf	indf2,c
  6886  0030AC  EF58  F018         	goto	l317
  6887  0030B0                     l313:
  6888  0030B0                     l317:
  6889  0030B0  0012               	return		;funcret
  6890  0030B2                     __end_of_USBCtrlEPAllowStatusStage:
  6891                           	opt callstack 0
  6892                           
  6893 ;; *************** function _USBCtrlTrfInHandler *****************
  6894 ;; Defined at:
  6895 ;;		line 2598 in file "usb_device.c"
  6896 ;; Parameters:    Size  Location     Type
  6897 ;;		None
  6898 ;; Auto vars:     Size  Location     Type
  6899 ;;  lastDTS         1    1[BANK0 ] unsigned char 
  6900 ;; Return value:  Size  Location     Type
  6901 ;;                  1    wreg      void 
  6902 ;; Registers used:
  6903 ;;		wreg, fsr1l, fsr1h, fsr2l, fsr2h, status,2, status,0, tblptrl, tblptrh, tblptru, cstack
  6904 ;; Tracked objects:
  6905 ;;		On entry : 0/0
  6906 ;;		On exit  : 0/0
  6907 ;;		Unchanged: 0/0
  6908 ;; Data sizes:     COMRAM   BANK0   BANK1   BANK2   BANK3  BANK4h  BANK4l   BANK5   BANK6   BANK7
  6909 ;;      Params:         0       0       0       0       0       0       0       0       0       0
  6910 ;;      Locals:         0       1       0       0       0       0       0       0       0       0
  6911 ;;      Temps:          0       0       0       0       0       0       0       0       0       0
  6912 ;;      Totals:         0       1       0       0       0       0       0       0       0       0
  6913 ;;Total ram usage:        1 bytes
  6914 ;; Hardware stack levels used:    1
  6915 ;; Hardware stack levels required when called:   12
  6916 ;; This function calls:
  6917 ;;		_USBCtrlTrfTxService
  6918 ;; This function is called by:
  6919 ;;		_USBCtrlEPService
  6920 ;; This function uses a non-reentrant model
  6921 ;;
  6922                           
  6923                           	psect	text35
  6924  002AAE                     __ptext35:
  6925                           	opt callstack 0
  6926  002AAE                     _USBCtrlTrfInHandler:
  6927                           	opt callstack 16
  6928  002AAE                     
  6929                           ;usb_device.c: 2600:     uint8_t lastDTS;;usb_device.c: 2602:     lastDTS = pBDTEntryIn[
      +                          0]->STAT.DTS;
  6930  002AAE  C00F  FFD9         	movff	_pBDTEntryIn,fsr2l
  6931  002AB2  C010  FFDA         	movff	_pBDTEntryIn+1,fsr2h
  6932  002AB6  0E00               	movlw	0
  6933  002AB8  BCDF               	btfsc	indf2,6,c
  6934  002ABA  0E01               	movlw	1
  6935  002ABC  0100               	movlb	0	; () banked
  6936  002ABE  6FE0               	movwf	USBCtrlTrfInHandler@lastDTS& (0+255),b
  6937  002AC0                     
  6938                           ; BSR set to: 0
  6939                           ;usb_device.c: 2605:     pBDTEntryIn[0] = (volatile BDT_ENTRY*)(((uint16_t)pBDTEntryIn[0
      +                          ]) ^ 0x0004);
  6940  002AC0  0E04               	movlw	4
  6941  002AC2  180F               	xorwf	_pBDTEntryIn^0,w,c
  6942  002AC4  6E0F               	movwf	_pBDTEntryIn^0,c
  6943  002AC6  5010               	movf	(_pBDTEntryIn+1)^0,w,c
  6944  002AC8  6E10               	movwf	(_pBDTEntryIn+1)^0,c
  6945  002ACA                     
  6946                           ; BSR set to: 0
  6947                           ;usb_device.c: 2610:     if(USBDeviceState == ADR_PENDING_STATE)
  6948  002ACA  0E08               	movlw	8
  6949  002ACC  1829               	xorwf	_USBDeviceState^0,w,c	;volatile
  6950  002ACE  A4D8               	btfss	status,2,c
  6951  002AD0  EF6C  F015         	goto	u6251
  6952  002AD4  EF6E  F015         	goto	u6250
  6953  002AD8                     u6251:
  6954  002AD8  EF80  F015         	goto	l6947
  6955  002ADC                     u6250:
  6956  002ADC                     
  6957                           ; BSR set to: 0
  6958                           ;usb_device.c: 2611:     {;usb_device.c: 2612:         UADDR = (SetupPkt.bDevADR & 0x7F)
      +                          ;
  6959  002ADC  0104               	movlb	4	; () banked
  6960  002ADE  5132               	movf	50,w,b	;volatile
  6961  002AE0  0B7F               	andlw	127
  6962  002AE2  6E6E               	movwf	110,c	;volatile
  6963  002AE4                     
  6964                           ; BSR set to: 4
  6965                           ;usb_device.c: 2613:         if(UADDR != 0u)
  6966  002AE4  506E               	movf	110,w,c	;volatile
  6967  002AE6  B4D8               	btfsc	status,2,c
  6968  002AE8  EF78  F015         	goto	u6261
  6969  002AEC  EF7A  F015         	goto	u6260
  6970  002AF0                     u6261:
  6971  002AF0  EF7E  F015         	goto	l6945
  6972  002AF4                     u6260:
  6973  002AF4                     
  6974                           ; BSR set to: 4
  6975                           ;usb_device.c: 2614:         {;usb_device.c: 2615:             USBDeviceState=ADDRESS_ST
      +                          ATE;
  6976  002AF4  0E10               	movlw	16
  6977  002AF6  6E29               	movwf	_USBDeviceState^0,c	;volatile
  6978                           
  6979                           ;usb_device.c: 2616:         }
  6980  002AF8  EF80  F015         	goto	l6947
  6981  002AFC                     l6945:
  6982                           
  6983                           ; BSR set to: 4
  6984                           ;usb_device.c: 2618:         {;usb_device.c: 2619:             USBDeviceState=DEFAULT_ST
      +                          ATE;
  6985  002AFC  0E04               	movlw	4
  6986  002AFE  6E29               	movwf	_USBDeviceState^0,c	;volatile
  6987  002B00                     l6947:
  6988                           
  6989                           ;usb_device.c: 2624:     if(controlTransferState == 1)
  6990  002B00  0427               	decf	_controlTransferState^0,w,c	;volatile
  6991  002B02  A4D8               	btfss	status,2,c
  6992  002B04  EF86  F015         	goto	u6271
  6993  002B08  EF88  F015         	goto	u6270
  6994  002B0C                     u6271:
  6995  002B0C  EFD0  F015         	goto	l442
  6996  002B10                     u6270:
  6997  002B10                     
  6998                           ;usb_device.c: 2625:     {;usb_device.c: 2626:         pBDTEntryIn[0]->ADR = ((uint16_t)
      +                          (CtrlTrfData));
  6999  002B10  EE20 F002          	lfsr	2,2
  7000  002B14  500F               	movf	_pBDTEntryIn^0,w,c
  7001  002B16  26D9               	addwf	fsr2l,f,c
  7002  002B18  5010               	movf	(_pBDTEntryIn+1)^0,w,c
  7003  002B1A  22DA               	addwfc	fsr2h,f,c
  7004  002B1C  0E50               	movlw	80
  7005  002B1E  6EDE               	movwf	postinc2,c
  7006  002B20  0E04               	movlw	4
  7007  002B22  6EDD               	movwf	postdec2,c
  7008  002B24                     
  7009                           ;usb_device.c: 2627:         USBCtrlTrfTxService();
  7010  002B24  ECC0  F013         	call	_USBCtrlTrfTxService	;wreg free
  7011  002B28                     
  7012                           ;usb_device.c: 2633:         if(shortPacketStatus == 2)
  7013  002B28  0E02               	movlw	2
  7014  002B2A  1828               	xorwf	_shortPacketStatus^0,w,c	;volatile
  7015  002B2C  A4D8               	btfss	status,2,c
  7016  002B2E  EF9B  F015         	goto	u6281
  7017  002B32  EF9D  F015         	goto	u6280
  7018  002B36                     u6281:
  7019  002B36  EFAB  F015         	goto	l6959
  7020  002B3A                     u6280:
  7021  002B3A                     
  7022                           ;usb_device.c: 2634:         {;usb_device.c: 2637:             pBDTEntryIn[0]->STAT.Val 
      +                          = 0x04;
  7023  002B3A  C00F  FFD9         	movff	_pBDTEntryIn,fsr2l
  7024  002B3E  C010  FFDA         	movff	_pBDTEntryIn+1,fsr2h
  7025  002B42  0E04               	movlw	4
  7026  002B44  6EDF               	movwf	indf2,c
  7027  002B46                     
  7028                           ;usb_device.c: 2638:             pBDTEntryIn[0]->STAT.Val |= 0x80;
  7029  002B46  C00F  FFD9         	movff	_pBDTEntryIn,fsr2l
  7030  002B4A  C010  FFDA         	movff	_pBDTEntryIn+1,fsr2h
  7031  002B4E  0E00               	movlw	0
  7032  002B50  8EDB               	bsf	plusw2,7,c
  7033                           
  7034                           ;usb_device.c: 2639:         }
  7035  002B52  EFDA  F015         	goto	l450
  7036  002B56                     l6959:
  7037                           
  7038                           ;usb_device.c: 2641:         {;usb_device.c: 2642:             if(lastDTS == 0)
  7039  002B56  0100               	movlb	0	; () banked
  7040  002B58  51E0               	movf	USBCtrlTrfInHandler@lastDTS& (0+255),w,b
  7041  002B5A  A4D8               	btfss	status,2,c
  7042  002B5C  EFB2  F015         	goto	u6291
  7043  002B60  EFB4  F015         	goto	u6290
  7044  002B64                     u6291:
  7045  002B64  EFC2  F015         	goto	l6965
  7046  002B68                     u6290:
  7047  002B68                     
  7048                           ; BSR set to: 0
  7049                           ;usb_device.c: 2643:             {;usb_device.c: 2644:                 pBDTEntryIn[0]->S
      +                          TAT.Val = 0x40|(0x08 & 0x08);
  7050  002B68  C00F  FFD9         	movff	_pBDTEntryIn,fsr2l
  7051  002B6C  C010  FFDA         	movff	_pBDTEntryIn+1,fsr2h
  7052  002B70  0E48               	movlw	72
  7053  002B72  6EDF               	movwf	indf2,c
  7054  002B74                     
  7055                           ; BSR set to: 0
  7056                           ;usb_device.c: 2645:                 pBDTEntryIn[0]->STAT.Val |= 0x80;
  7057  002B74  C00F  FFD9         	movff	_pBDTEntryIn,fsr2l
  7058  002B78  C010  FFDA         	movff	_pBDTEntryIn+1,fsr2h
  7059  002B7C  0E00               	movlw	0
  7060  002B7E  8EDB               	bsf	plusw2,7,c
  7061                           
  7062                           ;usb_device.c: 2646:             }
  7063  002B80  EFDA  F015         	goto	l450
  7064  002B84                     l6965:
  7065                           
  7066                           ; BSR set to: 0
  7067                           ;usb_device.c: 2648:             {;usb_device.c: 2649:                 pBDTEntryIn[0]->S
      +                          TAT.Val = 0x00|(0x08 & 0x08);
  7068  002B84  C00F  FFD9         	movff	_pBDTEntryIn,fsr2l
  7069  002B88  C010  FFDA         	movff	_pBDTEntryIn+1,fsr2h
  7070  002B8C  0E08               	movlw	8
  7071  002B8E  6EDF               	movwf	indf2,c
  7072  002B90                     
  7073                           ; BSR set to: 0
  7074                           ;usb_device.c: 2650:                 pBDTEntryIn[0]->STAT.Val |= 0x80;
  7075  002B90  C00F  FFD9         	movff	_pBDTEntryIn,fsr2l
  7076  002B94  C010  FFDA         	movff	_pBDTEntryIn+1,fsr2h
  7077  002B98  0E00               	movlw	0
  7078  002B9A  8EDB               	bsf	plusw2,7,c
  7079  002B9C  EFDA  F015         	goto	l450
  7080  002BA0                     l442:
  7081                           
  7082                           ;usb_device.c: 2655:  {;usb_device.c: 2659:         if(outPipes[0].info.bits.busy == 1)
  7083  002BA0  AE04               	btfss	(_outPipes+3)^0,7,c	;volatile
  7084  002BA2  EFD5  F015         	goto	u6301
  7085  002BA6  EFD7  F015         	goto	u6300
  7086  002BAA                     u6301:
  7087  002BAA  EFD8  F015         	goto	l6971
  7088  002BAE                     u6300:
  7089  002BAE                     
  7090                           ;usb_device.c: 2665:             outPipes[0].info.bits.busy = 0;
  7091  002BAE  9E04               	bcf	(_outPipes+3)^0,7,c	;volatile
  7092  002BB0                     l6971:
  7093                           
  7094                           ;usb_device.c: 2668:         controlTransferState = 0;
  7095  002BB0  0E00               	movlw	0
  7096  002BB2  6E27               	movwf	_controlTransferState^0,c	;volatile
  7097  002BB4                     l450:
  7098  002BB4  0012               	return		;funcret
  7099  002BB6                     __end_of_USBCtrlTrfInHandler:
  7100                           	opt callstack 0
  7101                           
  7102 ;; *************** function _USBCtrlTrfTxService *****************
  7103 ;; Defined at:
  7104 ;;		line 1777 in file "usb_device.c"
  7105 ;; Parameters:    Size  Location     Type
  7106 ;;		None
  7107 ;; Auto vars:     Size  Location     Type
  7108 ;;  byteToSend      1    0[BANK0 ] unsigned char 
  7109 ;; Return value:  Size  Location     Type
  7110 ;;                  1    wreg      void 
  7111 ;; Registers used:
  7112 ;;		wreg, fsr1l, fsr1h, fsr2l, fsr2h, status,2, status,0, tblptrl, tblptrh, tblptru
  7113 ;; Tracked objects:
  7114 ;;		On entry : 0/0
  7115 ;;		On exit  : 0/0
  7116 ;;		Unchanged: 0/0
  7117 ;; Data sizes:     COMRAM   BANK0   BANK1   BANK2   BANK3  BANK4h  BANK4l   BANK5   BANK6   BANK7
  7118 ;;      Params:         0       0       0       0       0       0       0       0       0       0
  7119 ;;      Locals:         0       1       0       0       0       0       0       0       0       0
  7120 ;;      Temps:          0       0       0       0       0       0       0       0       0       0
  7121 ;;      Totals:         0       1       0       0       0       0       0       0       0       0
  7122 ;;Total ram usage:        1 bytes
  7123 ;; Hardware stack levels used:    1
  7124 ;; Hardware stack levels required when called:   11
  7125 ;; This function calls:
  7126 ;;		Nothing
  7127 ;; This function is called by:
  7128 ;;		_USBCtrlEPAllowDataStage
  7129 ;;		_USBCtrlTrfInHandler
  7130 ;; This function uses a non-reentrant model
  7131 ;;
  7132                           
  7133                           	psect	text36
  7134  002780                     __ptext36:
  7135                           	opt callstack 0
  7136  002780                     _USBCtrlTrfTxService:
  7137                           	opt callstack 14
  7138  002780                     
  7139                           ;usb_device.c: 1779:     uint8_t byteToSend;;usb_device.c: 1783:     byteToSend = 32;
  7140  002780  0E20               	movlw	32
  7141  002782  0100               	movlb	0	; () banked
  7142  002784  6FDF               	movwf	USBCtrlTrfTxService@byteToSend& (0+255),b
  7143  002786                     
  7144                           ; BSR set to: 0
  7145                           ;usb_device.c: 1784:     if(inPipes[0].wCount.Val < (uint8_t)32)
  7146  002786  500E               	movf	(_inPipes+5)^0,w,c	;volatile
  7147  002788  E107               	bnz	u5641
  7148  00278A  0E20               	movlw	32
  7149  00278C  5C0D               	subwf	(_inPipes+4)^0,w,c	;volatile
  7150  00278E  B0D8               	btfsc	status,0,c
  7151  002790  EFCC  F013         	goto	u5641
  7152  002794  EFCE  F013         	goto	u5640
  7153  002798                     u5641:
  7154  002798  EFE6  F013         	goto	l6463
  7155  00279C                     u5640:
  7156  00279C                     
  7157                           ; BSR set to: 0
  7158                           ;usb_device.c: 1785:     {;usb_device.c: 1786:         byteToSend = inPipes[0].wCount.Va
      +                          l;
  7159  00279C  C00D  F0DF         	movff	_inPipes+4,USBCtrlTrfTxService@byteToSend	;volatile
  7160  0027A0                     
  7161                           ; BSR set to: 0
  7162                           ;usb_device.c: 1793:         if(shortPacketStatus == 0)
  7163  0027A0  5028               	movf	_shortPacketStatus^0,w,c	;volatile
  7164  0027A2  A4D8               	btfss	status,2,c
  7165  0027A4  EFD6  F013         	goto	u5651
  7166  0027A8  EFD8  F013         	goto	u5650
  7167  0027AC                     u5651:
  7168  0027AC  EFDC  F013         	goto	l6459
  7169  0027B0                     u5650:
  7170  0027B0                     
  7171                           ; BSR set to: 0
  7172                           ;usb_device.c: 1794:         {;usb_device.c: 1795:             shortPacketStatus = 1;
  7173  0027B0  0E01               	movlw	1
  7174  0027B2  6E28               	movwf	_shortPacketStatus^0,c	;volatile
  7175                           
  7176                           ;usb_device.c: 1796:         }
  7177  0027B4  EFE6  F013         	goto	l6463
  7178  0027B8                     l6459:
  7179                           
  7180                           ; BSR set to: 0
  7181  0027B8  0428               	decf	_shortPacketStatus^0,w,c	;volatile
  7182  0027BA  A4D8               	btfss	status,2,c
  7183  0027BC  EFE2  F013         	goto	u5661
  7184  0027C0  EFE4  F013         	goto	u5660
  7185  0027C4                     u5661:
  7186  0027C4  EFE6  F013         	goto	l6463
  7187  0027C8                     u5660:
  7188  0027C8                     
  7189                           ; BSR set to: 0
  7190                           ;usb_device.c: 1798:         {;usb_device.c: 1799:             shortPacketStatus = 2;
  7191  0027C8  0E02               	movlw	2
  7192  0027CA  6E28               	movwf	_shortPacketStatus^0,c	;volatile
  7193  0027CC                     l6463:
  7194                           
  7195                           ; BSR set to: 0
  7196                           ;usb_device.c: 1805:     inPipes[0].wCount.Val -= byteToSend;
  7197  0027CC  51DF               	movf	USBCtrlTrfTxService@byteToSend& (0+255),w,b
  7198  0027CE  5E0D               	subwf	(_inPipes+4)^0,f,c	;volatile
  7199  0027D0  0E00               	movlw	0
  7200  0027D2  5A0E               	subwfb	(_inPipes+5)^0,f,c	;volatile
  7201  0027D4                     
  7202                           ; BSR set to: 0
  7203                           ;usb_device.c: 1810:     pBDTEntryIn[0]->CNT = byteToSend;
  7204  0027D4  EE20 F001          	lfsr	2,1
  7205  0027D8  500F               	movf	_pBDTEntryIn^0,w,c
  7206  0027DA  26D9               	addwf	fsr2l,f,c
  7207  0027DC  5010               	movf	(_pBDTEntryIn+1)^0,w,c
  7208  0027DE  22DA               	addwfc	fsr2h,f,c
  7209  0027E0  C0DF  FFDF         	movff	USBCtrlTrfTxService@byteToSend,indf2
  7210  0027E4                     
  7211                           ; BSR set to: 0
  7212                           ;usb_device.c: 1814:     pDst = (volatile uint8_t*)CtrlTrfData;
  7213  0027E4  0E50               	movlw	80
  7214  0027E6  6FC2               	movwf	_pDst& (0+255),b
  7215  0027E8  0E04               	movlw	4
  7216  0027EA  6FC3               	movwf	(_pDst+1)& (0+255),b
  7217  0027EC                     
  7218                           ; BSR set to: 0
  7219                           ;usb_device.c: 1815:     if(inPipes[0].info.bits.ctrl_trf_mem == 0x00)
  7220  0027EC  B00C               	btfsc	(_inPipes+3)^0,0,c	;volatile
  7221  0027EE  EFFB  F013         	goto	u5671
  7222  0027F2  EFFD  F013         	goto	u5670
  7223  0027F6                     u5671:
  7224  0027F6  EF3F  F014         	goto	l6491
  7225  0027FA                     u5670:
  7226  0027FA  EF1A  F014         	goto	l6481
  7227  0027FE                     l6473:
  7228                           
  7229                           ; BSR set to: 0
  7230                           ;usb_device.c: 1818:         {;usb_device.c: 1819:             *pDst++ = *inPipes[0].pSr
      +                          c.bRom++;
  7231  0027FE  C009  FFF6         	movff	_inPipes,tblptrl	;volatile
  7232  002802  C00A  FFF7         	movff	_inPipes+1,tblptrh	;volatile
  7233  002806  6AF8               	clrf	tblptru,c
  7234  002808  C0C2  FFD9         	movff	_pDst,fsr2l
  7235  00280C  C0C3  FFDA         	movff	_pDst+1,fsr2h
  7236  002810  0E07               	movlw	(high __ramtop+-1)
  7237  002812  64F7               	cpfsgt	tblptrh,c
  7238  002814  D003               	bra	u5687
  7239  002816  0008               	tblrd		*
  7240  002818  50F5               	movf	tablat,w,c
  7241  00281A  D005               	bra	u5680
  7242  00281C                     u5687:
  7243  00281C  CFF6 FFE1          	movff	tblptrl,fsr1l
  7244  002820  CFF7 FFE2          	movff	tblptrh,fsr1h
  7245  002824  50E7               	movf	indf1,w,c
  7246  002826                     u5680:
  7247  002826  6EDF               	movwf	indf2,c
  7248  002828  4A09               	infsnz	_inPipes^0,f,c	;volatile
  7249  00282A  2A0A               	incf	(_inPipes+1)^0,f,c	;volatile
  7250  00282C  0100               	movlb	0	; () banked
  7251  00282E  4BC2               	infsnz	_pDst& (0+255),f,b
  7252  002830  2BC3               	incf	(_pDst+1)& (0+255),f,b
  7253  002832                     
  7254                           ; BSR set to: 0
  7255                           ;usb_device.c: 1820:             byteToSend--;
  7256  002832  07DF               	decf	USBCtrlTrfTxService@byteToSend& (0+255),f,b
  7257  002834                     l6481:
  7258                           
  7259                           ; BSR set to: 0
  7260                           ;usb_device.c: 1817:         while(byteToSend)
  7261  002834  51DF               	movf	USBCtrlTrfTxService@byteToSend& (0+255),w,b
  7262  002836  A4D8               	btfss	status,2,c
  7263  002838  EF20  F014         	goto	u5691
  7264  00283C  EF22  F014         	goto	u5690
  7265  002840                     u5691:
  7266  002840  EFFF  F013         	goto	l6473
  7267  002844                     u5690:
  7268  002844  EF47  F014         	goto	l356
  7269  002848                     l6483:
  7270                           
  7271                           ; BSR set to: 0
  7272                           ;usb_device.c: 1826:         {;usb_device.c: 1827:             *pDst++ = *inPipes[0].pSr
      +                          c.bRam++;
  7273  002848  C009  FFF6         	movff	_inPipes,tblptrl	;volatile
  7274  00284C  C00A  FFF7         	movff	_inPipes+1,tblptrh	;volatile
  7275  002850  6AF8               	clrf	tblptru,c
  7276  002852  C0C2  FFD9         	movff	_pDst,fsr2l
  7277  002856  C0C3  FFDA         	movff	_pDst+1,fsr2h
  7278  00285A  0E07               	movlw	(high __ramtop+-1)
  7279  00285C  64F7               	cpfsgt	tblptrh,c
  7280  00285E  D003               	bra	u5707
  7281  002860  0008               	tblrd		*
  7282  002862  50F5               	movf	tablat,w,c
  7283  002864  D005               	bra	u5700
  7284  002866                     u5707:
  7285  002866  CFF6 FFE1          	movff	tblptrl,fsr1l
  7286  00286A  CFF7 FFE2          	movff	tblptrh,fsr1h
  7287  00286E  50E7               	movf	indf1,w,c
  7288  002870                     u5700:
  7289  002870  6EDF               	movwf	indf2,c
  7290  002872  4A09               	infsnz	_inPipes^0,f,c	;volatile
  7291  002874  2A0A               	incf	(_inPipes+1)^0,f,c	;volatile
  7292  002876  0100               	movlb	0	; () banked
  7293  002878  4BC2               	infsnz	_pDst& (0+255),f,b
  7294  00287A  2BC3               	incf	(_pDst+1)& (0+255),f,b
  7295  00287C                     
  7296                           ; BSR set to: 0
  7297                           ;usb_device.c: 1828:             byteToSend--;
  7298  00287C  07DF               	decf	USBCtrlTrfTxService@byteToSend& (0+255),f,b
  7299  00287E                     l6491:
  7300                           
  7301                           ; BSR set to: 0
  7302                           ;usb_device.c: 1825:         while(byteToSend)
  7303  00287E  51DF               	movf	USBCtrlTrfTxService@byteToSend& (0+255),w,b
  7304  002880  A4D8               	btfss	status,2,c
  7305  002882  EF45  F014         	goto	u5711
  7306  002886  EF47  F014         	goto	u5710
  7307  00288A                     u5711:
  7308  00288A  EF24  F014         	goto	l6483
  7309  00288E                     u5710:
  7310  00288E                     l356:
  7311                           
  7312                           ; BSR set to: 0
  7313  00288E  0012               	return		;funcret
  7314  002890                     __end_of_USBCtrlTrfTxService:
  7315                           	opt callstack 0
  7316                           
  7317 ;; *************** function _mainISR *****************
  7318 ;; Defined at:
  7319 ;;		line 78 in file "main.c"
  7320 ;; Parameters:    Size  Location     Type
  7321 ;;		None
  7322 ;; Auto vars:     Size  Location     Type
  7323 ;;		None
  7324 ;; Return value:  Size  Location     Type
  7325 ;;                  1    wreg      void 
  7326 ;; Registers used:
  7327 ;;		wreg, fsr1l, fsr1h, fsr2l, fsr2h, status,2, status,0, tblptrl, tblptrh, tblptru, prodl, prodh, cstack
  7328 ;; Tracked objects:
  7329 ;;		On entry : 0/0
  7330 ;;		On exit  : 0/0
  7331 ;;		Unchanged: 0/0
  7332 ;; Data sizes:     COMRAM   BANK0   BANK1   BANK2   BANK3  BANK4h  BANK4l   BANK5   BANK6   BANK7
  7333 ;;      Params:         0       0       0       0       0       0       0       0       0       0
  7334 ;;      Locals:         0       0       0       0       0       0       0       0       0       0
  7335 ;;      Temps:         10       0       0       0       0       0       0       0       0       0
  7336 ;;      Totals:        10       0       0       0       0       0       0       0       0       0
  7337 ;;Total ram usage:       10 bytes
  7338 ;; Hardware stack levels used:    1
  7339 ;; Hardware stack levels required when called:   10
  7340 ;; This function calls:
  7341 ;;		_processUSBTasks
  7342 ;; This function is called by:
  7343 ;;		Interrupt level 2
  7344 ;; This function uses a non-reentrant model
  7345 ;;
  7346                           
  7347                           	psect	intcode
  7348  000008                     __pintcode:
  7349                           	opt callstack 0
  7350  000008                     _mainISR:
  7351                           	opt callstack 11
  7352                           
  7353                           ; BSR set to: 0
  7354                           ;incstack = 0
  7355  000008  8254               	bsf	int$flags,1,c	;set compiler interrupt flag (level 2)
  7356  00000A  ED88  F01E         	call	int_func,f	;refresh shadow registers
  7357                           
  7358                           	psect	intcode_body
  7359  003D10                     __pintcode_body:
  7360                           	opt callstack 11
  7361  003D10                     int_func:
  7362                           	opt callstack 11
  7363  003D10  0006               	pop		; remove dummy address from shadow register refresh
  7364  003D12  CFE1 F04A          	movff	fsr1l,??_mainISR
  7365  003D16  CFE2 F04B          	movff	fsr1h,??_mainISR+1
  7366  003D1A  CFD9 F04C          	movff	fsr2l,??_mainISR+2
  7367  003D1E  CFDA F04D          	movff	fsr2h,??_mainISR+3
  7368  003D22  CFF3 F04E          	movff	prodl,??_mainISR+4
  7369  003D26  CFF4 F04F          	movff	prodh,??_mainISR+5
  7370  003D2A  CFF6 F050          	movff	tblptrl,??_mainISR+6
  7371  003D2E  CFF7 F051          	movff	tblptrh,??_mainISR+7
  7372  003D32  CFF8 F052          	movff	tblptru,??_mainISR+8
  7373  003D36  CFF5 F053          	movff	tablat,??_mainISR+9
  7374  003D3A                     
  7375                           ;main.c: 79:     processUSBTasks();
  7376  003D3A  EC2B  F020         	call	_processUSBTasks	;wreg free
  7377  003D3E  C053  FFF5         	movff	??_mainISR+9,tablat
  7378  003D42  C052  FFF8         	movff	??_mainISR+8,tblptru
  7379  003D46  C051  FFF7         	movff	??_mainISR+7,tblptrh
  7380  003D4A  C050  FFF6         	movff	??_mainISR+6,tblptrl
  7381  003D4E  C04F  FFF4         	movff	??_mainISR+5,prodh
  7382  003D52  C04E  FFF3         	movff	??_mainISR+4,prodl
  7383  003D56  C04D  FFDA         	movff	??_mainISR+3,fsr2h
  7384  003D5A  C04C  FFD9         	movff	??_mainISR+2,fsr2l
  7385  003D5E  C04B  FFE2         	movff	??_mainISR+1,fsr1h
  7386  003D62  C04A  FFE1         	movff	??_mainISR,fsr1l
  7387  003D66  9254               	bcf	int$flags,1,c	;clear compiler interrupt flag (level 2)
  7388  003D68  0011               	retfie		f
  7389  003D6A                     __end_of_mainISR:
  7390                           	opt callstack 0
  7391                           
  7392 ;; *************** function _processUSBTasks *****************
  7393 ;; Defined at:
  7394 ;;		line 20 in file "usb_cdc_lib.c"
  7395 ;; Parameters:    Size  Location     Type
  7396 ;;		None
  7397 ;; Auto vars:     Size  Location     Type
  7398 ;;		None
  7399 ;; Return value:  Size  Location     Type
  7400 ;;                  1    wreg      void 
  7401 ;; Registers used:
  7402 ;;		wreg, fsr1l, fsr1h, fsr2l, fsr2h, status,2, status,0, tblptrl, tblptrh, tblptru, prodl, prodh, cstack
  7403 ;; Tracked objects:
  7404 ;;		On entry : 0/0
  7405 ;;		On exit  : 0/0
  7406 ;;		Unchanged: 0/0
  7407 ;; Data sizes:     COMRAM   BANK0   BANK1   BANK2   BANK3  BANK4h  BANK4l   BANK5   BANK6   BANK7
  7408 ;;      Params:         0       0       0       0       0       0       0       0       0       0
  7409 ;;      Locals:         0       0       0       0       0       0       0       0       0       0
  7410 ;;      Temps:          0       0       0       0       0       0       0       0       0       0
  7411 ;;      Totals:         0       0       0       0       0       0       0       0       0       0
  7412 ;;Total ram usage:        0 bytes
  7413 ;; Hardware stack levels used:    1
  7414 ;; Hardware stack levels required when called:    9
  7415 ;; This function calls:
  7416 ;;		i2_USBDeviceTasks
  7417 ;; This function is called by:
  7418 ;;		_mainISR
  7419 ;; This function uses a non-reentrant model
  7420 ;;
  7421                           
  7422                           	psect	text38
  7423  004056                     __ptext38:
  7424                           	opt callstack 0
  7425  004056                     _processUSBTasks:
  7426                           	opt callstack 11
  7427  004056                     
  7428                           ;usb_cdc_lib.c: 22:     if(INTCONbits.PEIE == 1)
  7429  004056  ACF2               	btfss	242,6,c	;volatile
  7430  004058  EF30  F020         	goto	i2u530_41
  7431  00405C  EF32  F020         	goto	i2u530_40
  7432  004060                     i2u530_41:
  7433  004060  EF42  F020         	goto	i2l89
  7434  004064                     i2u530_40:
  7435  004064                     
  7436                           ;usb_cdc_lib.c: 23:     {;usb_cdc_lib.c: 24:         if(PIE2bits.USBIE == 1 && PIR2bits.
      +                          USBIF == 1)
  7437  004064  AAA0               	btfss	160,5,c	;volatile
  7438  004066  EF37  F020         	goto	i2u531_41
  7439  00406A  EF39  F020         	goto	i2u531_40
  7440  00406E                     i2u531_41:
  7441  00406E  EF42  F020         	goto	i2l89
  7442  004072                     i2u531_40:
  7443  004072  AAA1               	btfss	161,5,c	;volatile
  7444  004074  EF3E  F020         	goto	i2u532_41
  7445  004078  EF40  F020         	goto	i2u532_40
  7446  00407C                     i2u532_41:
  7447  00407C  EF42  F020         	goto	i2l89
  7448  004080                     i2u532_40:
  7449  004080                     
  7450                           ;usb_cdc_lib.c: 25:         {;usb_cdc_lib.c: 26:             USBDeviceTasks();
  7451  004080  ECD3  F008         	call	i2_USBDeviceTasks	;wreg free
  7452  004084                     i2l89:
  7453  004084  0012               	return		;funcret
  7454  004086                     __end_of_processUSBTasks:
  7455                           	opt callstack 0
  7456                           
  7457 ;; *************** function i2_USBDeviceTasks *****************
  7458 ;; Defined at:
  7459 ;;		line 481 in file "usb_device.c"
  7460 ;; Parameters:    Size  Location     Type
  7461 ;;		None
  7462 ;; Auto vars:     Size  Location     Type
  7463 ;;  USBDeviceTas    1   30[COMRAM] unsigned char 
  7464 ;; Return value:  Size  Location     Type
  7465 ;;                  1    wreg      void 
  7466 ;; Registers used:
  7467 ;;		wreg, fsr1l, fsr1h, fsr2l, fsr2h, status,2, status,0, tblptrl, tblptrh, tblptru, prodl, prodh, cstack
  7468 ;; Tracked objects:
  7469 ;;		On entry : 0/0
  7470 ;;		On exit  : 0/0
  7471 ;;		Unchanged: 0/0
  7472 ;; Data sizes:     COMRAM   BANK0   BANK1   BANK2   BANK3  BANK4h  BANK4l   BANK5   BANK6   BANK7
  7473 ;;      Params:         0       0       0       0       0       0       0       0       0       0
  7474 ;;      Locals:         1       0       0       0       0       0       0       0       0       0
  7475 ;;      Temps:          0       0       0       0       0       0       0       0       0       0
  7476 ;;      Totals:         1       0       0       0       0       0       0       0       0       0
  7477 ;;Total ram usage:        1 bytes
  7478 ;; Hardware stack levels used:    1
  7479 ;; Hardware stack levels required when called:    8
  7480 ;; This function calls:
  7481 ;;		i2_USBCtrlEPAllowStatusStage
  7482 ;;		i2_USBCtrlEPService
  7483 ;;		i2_USBDeviceInit
  7484 ;;		i2_USBIncrement1msInternalTimers
  7485 ;;		i2_USBStallHandler
  7486 ;;		i2_USBSuspend
  7487 ;;		i2_USBWakeFromSuspend
  7488 ;;		i2_USER_USB_CALLBACK_EVENT_HANDLER
  7489 ;; This function is called by:
  7490 ;;		_processUSBTasks
  7491 ;; This function uses a non-reentrant model
  7492 ;;
  7493                           
  7494                           	psect	text39
  7495  0011A6                     __ptext39:
  7496                           	opt callstack 0
  7497  0011A6                     i2_USBDeviceTasks:
  7498                           	opt callstack 11
  7499  0011A6                     
  7500                           ;usb_device.c: 483:     uint8_t i;;usb_device.c: 594:     if(USBDeviceState == ATTACHED_
      +                          STATE)
  7501  0011A6  0429               	decf	_USBDeviceState^0,w,c	;volatile
  7502  0011A8  A4D8               	btfss	status,2,c
  7503  0011AA  EFD9  F008         	goto	i2u479_41
  7504  0011AE  EFDB  F008         	goto	i2u479_40
  7505  0011B2                     i2u479_41:
  7506  0011B2  EFE8  F008         	goto	i2l5591
  7507  0011B6                     i2u479_40:
  7508  0011B6                     
  7509                           ;usb_device.c: 595:     {;usb_device.c: 605:         if(!UCONbits.SE0)
  7510  0011B6  BA6D               	btfsc	109,5,c	;volatile
  7511  0011B8  EFE0  F008         	goto	i2u480_41
  7512  0011BC  EFE2  F008         	goto	i2u480_40
  7513  0011C0                     i2u480_41:
  7514  0011C0  EFE8  F008         	goto	i2l5591
  7515  0011C4                     i2u480_40:
  7516  0011C4                     
  7517                           ;usb_device.c: 606:         {;usb_device.c: 612:                 {UIR = 0;};
  7518  0011C4  0E00               	movlw	0
  7519  0011C6  6E68               	movwf	104,c	;volatile
  7520  0011C8                     
  7521                           ;usb_device.c: 618:             UIEbits.URSTIE = 1;
  7522  0011C8  8069               	bsf	105,0,c	;volatile
  7523  0011CA                     
  7524                           ;usb_device.c: 619:             UIEbits.IDLEIE = 1;
  7525  0011CA  8869               	bsf	105,4,c	;volatile
  7526                           
  7527                           ;usb_device.c: 620:             USBDeviceState = POWERED_STATE;
  7528  0011CC  0E02               	movlw	2
  7529  0011CE  6E29               	movwf	_USBDeviceState^0,c	;volatile
  7530  0011D0                     i2l5591:
  7531                           
  7532                           ;usb_device.c: 640:     if(UIRbits.ACTVIF && UIEbits.ACTVIE)
  7533  0011D0  A468               	btfss	104,2,c	;volatile
  7534  0011D2  EFED  F008         	goto	i2u481_41
  7535  0011D6  EFEF  F008         	goto	i2u481_40
  7536  0011DA                     i2u481_41:
  7537  0011DA  EFF9  F008         	goto	i2l5599
  7538  0011DE                     i2u481_40:
  7539  0011DE  A469               	btfss	105,2,c	;volatile
  7540  0011E0  EFF4  F008         	goto	i2u482_41
  7541  0011E4  EFF6  F008         	goto	i2u482_40
  7542  0011E8                     i2u482_41:
  7543  0011E8  EFF9  F008         	goto	i2l5599
  7544  0011EC                     i2u482_40:
  7545  0011EC                     
  7546                           ;usb_device.c: 641:     {;usb_device.c: 642:         (UIR &= 0xFB);
  7547  0011EC  9468               	bcf	104,2,c	;volatile
  7548  0011EE                     
  7549                           ;usb_device.c: 646:             USBWakeFromSuspend();
  7550  0011EE  ECBB  F01F         	call	i2_USBWakeFromSuspend	;wreg free
  7551  0011F2                     i2l5599:
  7552                           
  7553                           ;usb_device.c: 653:     if(UCONbits.SUSPND==1)
  7554  0011F2  A26D               	btfss	109,1,c	;volatile
  7555  0011F4  EFFE  F008         	goto	i2u483_41
  7556  0011F8  EF00  F009         	goto	i2u483_40
  7557  0011FC                     i2u483_41:
  7558  0011FC  EF03  F009         	goto	i2l257
  7559  001200                     i2u483_40:
  7560  001200                     
  7561                           ;usb_device.c: 654:     {;usb_device.c: 655:         {PIR2bits.USBIF = 0;};
  7562  001200  9AA1               	bcf	161,5,c	;volatile
  7563                           
  7564                           ;usb_device.c: 656:         return;
  7565  001202  EFE6  F009         	goto	i2l258
  7566  001206                     i2l257:
  7567                           
  7568                           ;usb_device.c: 669:     if(UIRbits.URSTIF && UIEbits.URSTIE)
  7569  001206  A068               	btfss	104,0,c	;volatile
  7570  001208  EF08  F009         	goto	i2u484_41
  7571  00120C  EF0A  F009         	goto	i2u484_40
  7572  001210                     i2u484_41:
  7573  001210  EF17  F009         	goto	i2l5613
  7574  001214                     i2u484_40:
  7575  001214  A069               	btfss	105,0,c	;volatile
  7576  001216  EF0F  F009         	goto	i2u485_41
  7577  00121A  EF11  F009         	goto	i2u485_40
  7578  00121E                     i2u485_41:
  7579  00121E  EF17  F009         	goto	i2l5613
  7580  001222                     i2u485_40:
  7581  001222                     
  7582                           ;usb_device.c: 670:     {;usb_device.c: 671:         USBDeviceInit();
  7583  001222  EC37  F00E         	call	i2_USBDeviceInit	;wreg free
  7584  001226                     
  7585                           ;usb_device.c: 675:         {PIE2bits.USBIE = 1;};
  7586  001226  8AA0               	bsf	160,5,c	;volatile
  7587  001228                     
  7588                           ;usb_device.c: 677:         USBDeviceState = DEFAULT_STATE;
  7589  001228  0E04               	movlw	4
  7590  00122A  6E29               	movwf	_USBDeviceState^0,c	;volatile
  7591  00122C                     
  7592                           ;usb_device.c: 687:         (UIR &= 0xFE);
  7593  00122C  9068               	bcf	104,0,c	;volatile
  7594  00122E                     i2l5613:
  7595                           
  7596                           ;usb_device.c: 693:     if(UIRbits.IDLEIF && UIEbits.IDLEIE)
  7597  00122E  A868               	btfss	104,4,c	;volatile
  7598  001230  EF1C  F009         	goto	i2u486_41
  7599  001234  EF1E  F009         	goto	i2u486_40
  7600  001238                     i2u486_41:
  7601  001238  EF27  F009         	goto	i2l5619
  7602  00123C                     i2u486_40:
  7603  00123C  A869               	btfss	105,4,c	;volatile
  7604  00123E  EF23  F009         	goto	i2u487_41
  7605  001242  EF25  F009         	goto	i2u487_40
  7606  001246                     i2u487_41:
  7607  001246  EF27  F009         	goto	i2l5619
  7608  00124A                     i2u487_40:
  7609  00124A                     
  7610                           ;usb_device.c: 694:     {;usb_device.c: 700:             USBSuspend();
  7611  00124A  EC5A  F020         	call	i2_USBSuspend	;wreg free
  7612  00124E                     i2l5619:
  7613                           
  7614                           ;usb_device.c: 714:     if(UIRbits.SOFIF)
  7615  00124E  AC68               	btfss	104,6,c	;volatile
  7616  001250  EF2C  F009         	goto	i2u488_41
  7617  001254  EF2E  F009         	goto	i2u488_40
  7618  001258                     i2u488_41:
  7619  001258  EF5A  F009         	goto	i2l5637
  7620  00125C                     i2u488_40:
  7621  00125C                     
  7622                           ;usb_device.c: 715:     {;usb_device.c: 717:         if(UIEbits.SOFIE)
  7623  00125C  AC69               	btfss	105,6,c	;volatile
  7624  00125E  EF33  F009         	goto	i2u489_41
  7625  001262  EF35  F009         	goto	i2u489_40
  7626  001266                     i2u489_41:
  7627  001266  EF43  F009         	goto	i2l5625
  7628  00126A                     i2u489_40:
  7629  00126A                     
  7630                           ;usb_device.c: 718:         {;usb_device.c: 719:             USER_USB_CALLBACK_EVENT_HAN
      +                          DLER((USB_EVENT)EVENT_SOF,0,1);
  7631  00126A  0E00               	movlw	0
  7632  00126C  6E38               	movwf	(i2USER_USB_CALLBACK_EVENT_HANDLER@event+1)^0,c
  7633  00126E  0E73               	movlw	115
  7634  001270  6E37               	movwf	i2USER_USB_CALLBACK_EVENT_HANDLER@event^0,c
  7635  001272  0E00               	movlw	0
  7636  001274  6E39               	movwf	i2USER_USB_CALLBACK_EVENT_HANDLER@pdata^0,c
  7637  001276  0E00               	movlw	0
  7638  001278  6E3A               	movwf	(i2USER_USB_CALLBACK_EVENT_HANDLER@pdata+1)^0,c
  7639  00127A  0E00               	movlw	0
  7640  00127C  6E3C               	movwf	(i2USER_USB_CALLBACK_EVENT_HANDLER@size+1)^0,c
  7641  00127E  0E01               	movlw	1
  7642  001280  6E3B               	movwf	i2USER_USB_CALLBACK_EVENT_HANDLER@size^0,c
  7643  001282  ECA7  F01C         	call	i2_USER_USB_CALLBACK_EVENT_HANDLER	;wreg free
  7644  001286                     i2l5625:
  7645                           
  7646                           ;usb_device.c: 721:         (UIR &= 0xBF);
  7647  001286  9C68               	bcf	104,6,c	;volatile
  7648  001288                     
  7649                           ;usb_device.c: 724:             USBIncrement1msInternalTimers();
  7650  001288  EC11  F020         	call	i2_USBIncrement1msInternalTimers	;wreg free
  7651  00128C                     
  7652                           ;usb_device.c: 741:             if(USBStatusStageTimeoutCounter != 0u)
  7653  00128C  0100               	movlb	0	; () banked
  7654  00128E  51CA               	movf	_USBStatusStageTimeoutCounter& (0+255),w,b	;volatile
  7655  001290  B4D8               	btfsc	status,2,c
  7656  001292  EF4D  F009         	goto	i2u490_41
  7657  001296  EF4F  F009         	goto	i2u490_40
  7658  00129A                     i2u490_41:
  7659  00129A  EF50  F009         	goto	i2l5633
  7660  00129E                     i2u490_40:
  7661  00129E                     
  7662                           ; BSR set to: 0
  7663                           ;usb_device.c: 742:             {;usb_device.c: 743:                 USBStatusStageTimeo
      +                          utCounter--;
  7664  00129E  07CA               	decf	_USBStatusStageTimeoutCounter& (0+255),f,b	;volatile
  7665  0012A0                     i2l5633:
  7666                           
  7667                           ; BSR set to: 0
  7668                           ;usb_device.c: 750:             if(USBStatusStageTimeoutCounter == 0)
  7669  0012A0  51CA               	movf	_USBStatusStageTimeoutCounter& (0+255),w,b	;volatile
  7670  0012A2  A4D8               	btfss	status,2,c
  7671  0012A4  EF56  F009         	goto	i2u491_41
  7672  0012A8  EF58  F009         	goto	i2u491_40
  7673  0012AC                     i2u491_41:
  7674  0012AC  EF5A  F009         	goto	i2l5637
  7675  0012B0                     i2u491_40:
  7676  0012B0                     
  7677                           ; BSR set to: 0
  7678                           ;usb_device.c: 751:             {;usb_device.c: 752:                 USBCtrlEPAllowStatu
      +                          sStage();
  7679  0012B0  EC59  F018         	call	i2_USBCtrlEPAllowStatusStage	;wreg free
  7680  0012B4                     i2l5637:
  7681                           
  7682                           ;usb_device.c: 757:     if(UIRbits.STALLIF && UIEbits.STALLIE)
  7683  0012B4  AA68               	btfss	104,5,c	;volatile
  7684  0012B6  EF5F  F009         	goto	i2u492_41
  7685  0012BA  EF61  F009         	goto	i2u492_40
  7686  0012BE                     i2u492_41:
  7687  0012BE  EF6A  F009         	goto	i2l5643
  7688  0012C2                     i2u492_40:
  7689  0012C2  AA69               	btfss	105,5,c	;volatile
  7690  0012C4  EF66  F009         	goto	i2u493_41
  7691  0012C8  EF68  F009         	goto	i2u493_40
  7692  0012CC                     i2u493_41:
  7693  0012CC  EF6A  F009         	goto	i2l5643
  7694  0012D0                     i2u493_40:
  7695  0012D0                     
  7696                           ;usb_device.c: 758:     {;usb_device.c: 759:         USBStallHandler();
  7697  0012D0  EC58  F01E         	call	i2_USBStallHandler	;wreg free
  7698  0012D4                     i2l5643:
  7699                           
  7700                           ;usb_device.c: 762:     if(UIRbits.UERRIF && UIEbits.UERRIE)
  7701  0012D4  A268               	btfss	104,1,c	;volatile
  7702  0012D6  EF6F  F009         	goto	i2u494_41
  7703  0012DA  EF71  F009         	goto	i2u494_40
  7704  0012DE                     i2u494_41:
  7705  0012DE  EF87  F009         	goto	i2l5651
  7706  0012E2                     i2u494_40:
  7707  0012E2  A269               	btfss	105,1,c	;volatile
  7708  0012E4  EF76  F009         	goto	i2u495_41
  7709  0012E8  EF78  F009         	goto	i2u495_40
  7710  0012EC                     i2u495_41:
  7711  0012EC  EF87  F009         	goto	i2l5651
  7712  0012F0                     i2u495_40:
  7713  0012F0                     
  7714                           ;usb_device.c: 763:     {;usb_device.c: 764:         USER_USB_CALLBACK_EVENT_HANDLER((US
      +                          B_EVENT)EVENT_BUS_ERROR,0,1);
  7715  0012F0  0E7F               	movlw	127
  7716  0012F2  6E38               	movwf	(i2USER_USB_CALLBACK_EVENT_HANDLER@event+1)^0,c
  7717  0012F4  6837               	setf	i2USER_USB_CALLBACK_EVENT_HANDLER@event^0,c
  7718  0012F6  0E00               	movlw	0
  7719  0012F8  6E39               	movwf	i2USER_USB_CALLBACK_EVENT_HANDLER@pdata^0,c
  7720  0012FA  0E00               	movlw	0
  7721  0012FC  6E3A               	movwf	(i2USER_USB_CALLBACK_EVENT_HANDLER@pdata+1)^0,c
  7722  0012FE  0E00               	movlw	0
  7723  001300  6E3C               	movwf	(i2USER_USB_CALLBACK_EVENT_HANDLER@size+1)^0,c
  7724  001302  0E01               	movlw	1
  7725  001304  6E3B               	movwf	i2USER_USB_CALLBACK_EVENT_HANDLER@size^0,c
  7726  001306  ECA7  F01C         	call	i2_USER_USB_CALLBACK_EVENT_HANDLER	;wreg free
  7727  00130A                     
  7728                           ;usb_device.c: 765:         {UEIR = 0;};
  7729  00130A  0E00               	movlw	0
  7730  00130C  6E6A               	movwf	106,c	;volatile
  7731  00130E                     i2l5651:
  7732                           
  7733                           ;usb_device.c: 780:     if(USBDeviceState < DEFAULT_STATE)
  7734  00130E  0E04               	movlw	4
  7735  001310  6029               	cpfslt	_USBDeviceState^0,c	;volatile
  7736  001312  EF8D  F009         	goto	i2u496_41
  7737  001316  EF8F  F009         	goto	i2u496_40
  7738  00131A                     i2u496_41:
  7739  00131A  EF92  F009         	goto	i2l267
  7740  00131E                     i2u496_40:
  7741  00131E                     
  7742                           ;usb_device.c: 781:     {;usb_device.c: 782:         {PIR2bits.USBIF = 0;};
  7743  00131E  9AA1               	bcf	161,5,c	;volatile
  7744                           
  7745                           ;usb_device.c: 783:         return;
  7746  001320  EFE6  F009         	goto	i2l258
  7747  001324                     i2l267:
  7748                           
  7749                           ;usb_device.c: 789:     if(UIEbits.TRNIE)
  7750  001324  A669               	btfss	105,3,c	;volatile
  7751  001326  EF97  F009         	goto	i2u497_41
  7752  00132A  EF99  F009         	goto	i2u497_40
  7753  00132E                     i2u497_41:
  7754  00132E  EFE5  F009         	goto	i2l268
  7755  001332                     i2u497_40:
  7756  001332                     
  7757                           ;usb_device.c: 790:     {;usb_device.c: 791:         for(i = 0; i < 4u; i++)
  7758  001332  0E00               	movlw	0
  7759  001334  6E49               	movwf	i2USBDeviceTasks@i^0,c
  7760  001336                     i2l269:
  7761                           
  7762                           ;usb_device.c: 792:         {;usb_device.c: 793:             if(UIRbits.TRNIF)
  7763  001336  A668               	btfss	104,3,c	;volatile
  7764  001338  EFA0  F009         	goto	i2u498_41
  7765  00133C  EFA2  F009         	goto	i2u498_40
  7766  001340                     i2u498_41:
  7767  001340  EFE5  F009         	goto	i2l268
  7768  001344                     i2u498_40:
  7769  001344                     
  7770                           ;usb_device.c: 794:             {;usb_device.c: 796:                 USTATcopy.Val = UST
      +                          AT;
  7771  001344  CF6C F0DE          	movff	3948,_USTATcopy	;volatile
  7772  001348                     
  7773                           ;usb_device.c: 797:                 endpoint_number = USTATcopy.endpoint_number;
  7774  001348  0100               	movlb	0	; () banked
  7775  00134A  31DE               	rrcf	_USTATcopy& (0+255),w,b	;volatile
  7776  00134C  32E8               	rrcf	wreg,f,c
  7777  00134E  32E8               	rrcf	wreg,f,c
  7778  001350  0B0F               	andlw	15
  7779  001352  6FCB               	movwf	_endpoint_number& (0+255),b	;volatile
  7780  001354                     
  7781                           ; BSR set to: 0
  7782                           ;usb_device.c: 799:                 (UIR &= 0xF7);
  7783  001354  9668               	bcf	104,3,c	;volatile
  7784  001356                     
  7785                           ; BSR set to: 0
  7786                           ;usb_device.c: 804:                 if(USTATcopy.direction == 0)
  7787  001356  B5DE               	btfsc	_USTATcopy& (0+255),2,b	;volatile
  7788  001358  EFB0  F009         	goto	i2u499_41
  7789  00135C  EFB2  F009         	goto	i2u499_40
  7790  001360                     i2u499_41:
  7791  001360  EFBB  F009         	goto	i2l5671
  7792  001364                     i2u499_40:
  7793  001364                     
  7794                           ; BSR set to: 0
  7795                           ;usb_device.c: 805:                 {;usb_device.c: 806:                     ep_data_out
      +                          [endpoint_number].bits.ping_pong_state ^= 1;
  7796  001364  0E15               	movlw	low _ep_data_out
  7797  001366  25CB               	addwf	_endpoint_number& (0+255),w,b	;volatile
  7798  001368  6ED9               	movwf	fsr2l,c
  7799  00136A  6ADA               	clrf	fsr2h,c
  7800  00136C  0E00               	movlw	high _ep_data_out
  7801  00136E  22DA               	addwfc	fsr2h,f,c
  7802  001370  70DF               	btg	indf2,0,c
  7803                           
  7804                           ;usb_device.c: 807:                 }
  7805  001372  EFC2  F009         	goto	i2l5673
  7806  001376                     i2l5671:
  7807                           
  7808                           ; BSR set to: 0
  7809                           ;usb_device.c: 809:                 {;usb_device.c: 810:                     ep_data_in[
      +                          endpoint_number].bits.ping_pong_state ^= 1;
  7810  001376  0E18               	movlw	low _ep_data_in
  7811  001378  25CB               	addwf	_endpoint_number& (0+255),w,b	;volatile
  7812  00137A  6ED9               	movwf	fsr2l,c
  7813  00137C  6ADA               	clrf	fsr2h,c
  7814  00137E  0E00               	movlw	high _ep_data_in
  7815  001380  22DA               	addwfc	fsr2h,f,c
  7816  001382  70DF               	btg	indf2,0,c
  7817  001384                     i2l5673:
  7818                           
  7819                           ; BSR set to: 0
  7820                           ;usb_device.c: 816:                 if(endpoint_number == 0)
  7821  001384  51CB               	movf	_endpoint_number& (0+255),w,b	;volatile
  7822  001386  A4D8               	btfss	status,2,c
  7823  001388  EFC8  F009         	goto	i2u500_41
  7824  00138C  EFCA  F009         	goto	i2u500_40
  7825  001390                     i2u500_41:
  7826  001390  EFCE  F009         	goto	i2l5677
  7827  001394                     i2u500_40:
  7828  001394                     
  7829                           ; BSR set to: 0
  7830                           ;usb_device.c: 817:                 {;usb_device.c: 818:                     USBCtrlEPSe
      +                          rvice();
  7831  001394  EC18  F01A         	call	i2_USBCtrlEPService	;wreg free
  7832                           
  7833                           ;usb_device.c: 819:                 }
  7834  001398  EFDC  F009         	goto	i2l5679
  7835  00139C                     i2l5677:
  7836                           
  7837                           ; BSR set to: 0
  7838                           ;usb_device.c: 821:                 {;usb_device.c: 822:                     USER_USB_CA
      +                          LLBACK_EVENT_HANDLER((USB_EVENT)EVENT_TRANSFER,(uint8_t*)&USTATcopy.Val,0);
  7839  00139C  0E00               	movlw	0
  7840  00139E  6E38               	movwf	(i2USER_USB_CALLBACK_EVENT_HANDLER@event+1)^0,c
  7841  0013A0  0E72               	movlw	114
  7842  0013A2  6E37               	movwf	i2USER_USB_CALLBACK_EVENT_HANDLER@event^0,c
  7843  0013A4  0EDE               	movlw	low _USTATcopy
  7844  0013A6  6E39               	movwf	i2USER_USB_CALLBACK_EVENT_HANDLER@pdata^0,c
  7845  0013A8  0E00               	movlw	high _USTATcopy
  7846  0013AA  6E3A               	movwf	(i2USER_USB_CALLBACK_EVENT_HANDLER@pdata+1)^0,c
  7847  0013AC  0E00               	movlw	0
  7848  0013AE  6E3C               	movwf	(i2USER_USB_CALLBACK_EVENT_HANDLER@size+1)^0,c
  7849  0013B0  0E00               	movlw	0
  7850  0013B2  6E3B               	movwf	i2USER_USB_CALLBACK_EVENT_HANDLER@size^0,c
  7851  0013B4  ECA7  F01C         	call	i2_USER_USB_CALLBACK_EVENT_HANDLER	;wreg free
  7852  0013B8                     i2l5679:
  7853                           
  7854                           ;usb_device.c: 829:         }
  7855  0013B8  2A49               	incf	i2USBDeviceTasks@i^0,f,c
  7856  0013BA  0E03               	movlw	3
  7857  0013BC  6449               	cpfsgt	i2USBDeviceTasks@i^0,c
  7858  0013BE  EFE3  F009         	goto	i2u501_41
  7859  0013C2  EFE5  F009         	goto	i2u501_40
  7860  0013C6                     i2u501_41:
  7861  0013C6  EF9B  F009         	goto	i2l269
  7862  0013CA                     i2u501_40:
  7863  0013CA                     i2l268:
  7864                           
  7865                           ;usb_device.c: 832:     {PIR2bits.USBIF = 0;};
  7866  0013CA  9AA1               	bcf	161,5,c	;volatile
  7867  0013CC                     i2l258:
  7868  0013CC  0012               	return		;funcret
  7869  0013CE                     __end_ofi2_USBDeviceTasks:
  7870                           	opt callstack 0
  7871                           
  7872 ;; *************** function i2_USBWakeFromSuspend *****************
  7873 ;; Defined at:
  7874 ;;		line 2309 in file "usb_device.c"
  7875 ;; Parameters:    Size  Location     Type
  7876 ;;		None
  7877 ;; Auto vars:     Size  Location     Type
  7878 ;;		None
  7879 ;; Return value:  Size  Location     Type
  7880 ;;                  1    wreg      void 
  7881 ;; Registers used:
  7882 ;;		wreg, fsr2l, fsr2h, status,2, status,0, prodl, prodh, cstack
  7883 ;; Tracked objects:
  7884 ;;		On entry : 0/0
  7885 ;;		On exit  : 0/0
  7886 ;;		Unchanged: 0/0
  7887 ;; Data sizes:     COMRAM   BANK0   BANK1   BANK2   BANK3  BANK4h  BANK4l   BANK5   BANK6   BANK7
  7888 ;;      Params:         0       0       0       0       0       0       0       0       0       0
  7889 ;;      Locals:         0       0       0       0       0       0       0       0       0       0
  7890 ;;      Temps:          0       0       0       0       0       0       0       0       0       0
  7891 ;;      Totals:         0       0       0       0       0       0       0       0       0       0
  7892 ;;Total ram usage:        0 bytes
  7893 ;; Hardware stack levels used:    1
  7894 ;; Hardware stack levels required when called:    4
  7895 ;; This function calls:
  7896 ;;		i2_USER_USB_CALLBACK_EVENT_HANDLER
  7897 ;; This function is called by:
  7898 ;;		i2_USBDeviceTasks
  7899 ;; This function uses a non-reentrant model
  7900 ;;
  7901                           
  7902                           	psect	text40
  7903  003F76                     __ptext40:
  7904                           	opt callstack 0
  7905  003F76                     i2_USBWakeFromSuspend:
  7906                           	opt callstack 14
  7907  003F76                     
  7908                           ;usb_device.c: 2311:     USBBusIsSuspended = 0;
  7909  003F76  0E00               	movlw	0
  7910  003F78  6E25               	movwf	_USBBusIsSuspended^0,c	;volatile
  7911  003F7A                     
  7912                           ;usb_device.c: 2317:     USER_USB_CALLBACK_EVENT_HANDLER((USB_EVENT)EVENT_RESUME,0,0);
  7913  003F7A  0E00               	movlw	0
  7914  003F7C  6E38               	movwf	(i2USER_USB_CALLBACK_EVENT_HANDLER@event+1)^0,c
  7915  003F7E  0E74               	movlw	116
  7916  003F80  6E37               	movwf	i2USER_USB_CALLBACK_EVENT_HANDLER@event^0,c
  7917  003F82  0E00               	movlw	0
  7918  003F84  6E39               	movwf	i2USER_USB_CALLBACK_EVENT_HANDLER@pdata^0,c
  7919  003F86  0E00               	movlw	0
  7920  003F88  6E3A               	movwf	(i2USER_USB_CALLBACK_EVENT_HANDLER@pdata+1)^0,c
  7921  003F8A  0E00               	movlw	0
  7922  003F8C  6E3C               	movwf	(i2USER_USB_CALLBACK_EVENT_HANDLER@size+1)^0,c
  7923  003F8E  0E00               	movlw	0
  7924  003F90  6E3B               	movwf	i2USER_USB_CALLBACK_EVENT_HANDLER@size^0,c
  7925  003F92  ECA7  F01C         	call	i2_USER_USB_CALLBACK_EVENT_HANDLER	;wreg free
  7926  003F96                     
  7927                           ;usb_device.c: 2324:         UCONbits.SUSPND = 0;
  7928  003F96  926D               	bcf	109,1,c	;volatile
  7929  003F98                     
  7930                           ;usb_device.c: 2329:     UIEbits.ACTVIE = 0;
  7931  003F98  9469               	bcf	105,2,c	;volatile
  7932                           
  7933                           ;usb_device.c: 2347:     while(UIRbits.ACTVIF)
  7934  003F9A  EFD0  F01F         	goto	i2l5309
  7935  003F9E                     i2l5307:
  7936                           
  7937                           ;usb_device.c: 2349:     {;usb_device.c: 2350:         (UIR &= 0xFB);
  7938  003F9E  9468               	bcf	104,2,c	;volatile
  7939  003FA0                     i2l5309:
  7940                           
  7941                           ;usb_device.c: 2347:     while(UIRbits.ACTVIF)
  7942  003FA0  B468               	btfsc	104,2,c	;volatile
  7943  003FA2  EFD5  F01F         	goto	i2u446_41
  7944  003FA6  EFD7  F01F         	goto	i2u446_40
  7945  003FAA                     i2u446_41:
  7946  003FAA  EFCF  F01F         	goto	i2l5307
  7947  003FAE                     i2u446_40:
  7948  003FAE                     
  7949                           ;usb_device.c: 2353:     USBTicksSinceSuspendEnd = 0;
  7950  003FAE  0E00               	movlw	0
  7951  003FB0  0100               	movlb	0	; () banked
  7952  003FB2  6FC8               	movwf	_USBTicksSinceSuspendEnd& (0+255),b	;volatile
  7953  003FB4                     
  7954                           ; BSR set to: 0
  7955  003FB4  0012               	return		;funcret
  7956  003FB6                     __end_ofi2_USBWakeFromSuspend:
  7957                           	opt callstack 0
  7958                           
  7959 ;; *************** function i2_USBSuspend *****************
  7960 ;; Defined at:
  7961 ;;		line 2251 in file "usb_device.c"
  7962 ;; Parameters:    Size  Location     Type
  7963 ;;		None
  7964 ;; Auto vars:     Size  Location     Type
  7965 ;;		None
  7966 ;; Return value:  Size  Location     Type
  7967 ;;                  1    wreg      void 
  7968 ;; Registers used:
  7969 ;;		wreg, fsr2l, fsr2h, status,2, status,0, prodl, prodh, cstack
  7970 ;; Tracked objects:
  7971 ;;		On entry : 0/0
  7972 ;;		On exit  : 0/0
  7973 ;;		Unchanged: 0/0
  7974 ;; Data sizes:     COMRAM   BANK0   BANK1   BANK2   BANK3  BANK4h  BANK4l   BANK5   BANK6   BANK7
  7975 ;;      Params:         0       0       0       0       0       0       0       0       0       0
  7976 ;;      Locals:         0       0       0       0       0       0       0       0       0       0
  7977 ;;      Temps:          0       0       0       0       0       0       0       0       0       0
  7978 ;;      Totals:         0       0       0       0       0       0       0       0       0       0
  7979 ;;Total ram usage:        0 bytes
  7980 ;; Hardware stack levels used:    1
  7981 ;; Hardware stack levels required when called:    4
  7982 ;; This function calls:
  7983 ;;		i2_USER_USB_CALLBACK_EVENT_HANDLER
  7984 ;; This function is called by:
  7985 ;;		i2_USBDeviceTasks
  7986 ;; This function uses a non-reentrant model
  7987 ;;
  7988                           
  7989                           	psect	text41
  7990  0040B4                     __ptext41:
  7991                           	opt callstack 0
  7992  0040B4                     i2_USBSuspend:
  7993                           	opt callstack 14
  7994  0040B4                     
  7995                           ;usb_device.c: 2276:     UIEbits.ACTVIE = 1;
  7996  0040B4  8469               	bsf	105,2,c	;volatile
  7997  0040B6                     
  7998                           ;usb_device.c: 2277:     (UIR &= 0xEF);
  7999  0040B6  9868               	bcf	104,4,c	;volatile
  8000  0040B8                     
  8001                           ;usb_device.c: 2280:         UCONbits.SUSPND = 1;
  8002  0040B8  826D               	bsf	109,1,c	;volatile
  8003  0040BA                     
  8004                           ;usb_device.c: 2283:     USBBusIsSuspended = 1;
  8005  0040BA  0E01               	movlw	1
  8006  0040BC  6E25               	movwf	_USBBusIsSuspended^0,c	;volatile
  8007  0040BE                     
  8008                           ;usb_device.c: 2284:     USBTicksSinceSuspendEnd = 0;
  8009  0040BE  0E00               	movlw	0
  8010  0040C0  0100               	movlb	0	; () banked
  8011  0040C2  6FC8               	movwf	_USBTicksSinceSuspendEnd& (0+255),b	;volatile
  8012  0040C4                     
  8013                           ; BSR set to: 0
  8014                           ;usb_device.c: 2291:     USER_USB_CALLBACK_EVENT_HANDLER((USB_EVENT)EVENT_SUSPEND,0,0);
  8015  0040C4  0E00               	movlw	0
  8016  0040C6  6E38               	movwf	(i2USER_USB_CALLBACK_EVENT_HANDLER@event+1)^0,c
  8017  0040C8  0E75               	movlw	117
  8018  0040CA  6E37               	movwf	i2USER_USB_CALLBACK_EVENT_HANDLER@event^0,c
  8019  0040CC  0E00               	movlw	0
  8020  0040CE  6E39               	movwf	i2USER_USB_CALLBACK_EVENT_HANDLER@pdata^0,c
  8021  0040D0  0E00               	movlw	0
  8022  0040D2  6E3A               	movwf	(i2USER_USB_CALLBACK_EVENT_HANDLER@pdata+1)^0,c
  8023  0040D4  0E00               	movlw	0
  8024  0040D6  6E3C               	movwf	(i2USER_USB_CALLBACK_EVENT_HANDLER@size+1)^0,c
  8025  0040D8  0E00               	movlw	0
  8026  0040DA  6E3B               	movwf	i2USER_USB_CALLBACK_EVENT_HANDLER@size^0,c
  8027  0040DC  ECA7  F01C         	call	i2_USER_USB_CALLBACK_EVENT_HANDLER	;wreg free
  8028  0040E0  0012               	return		;funcret
  8029  0040E2                     __end_ofi2_USBSuspend:
  8030                           	opt callstack 0
  8031                           
  8032 ;; *************** function i2_USBStallHandler *****************
  8033 ;; Defined at:
  8034 ;;		line 2208 in file "usb_device.c"
  8035 ;; Parameters:    Size  Location     Type
  8036 ;;		None
  8037 ;; Auto vars:     Size  Location     Type
  8038 ;;		None
  8039 ;; Return value:  Size  Location     Type
  8040 ;;                  1    wreg      void 
  8041 ;; Registers used:
  8042 ;;		wreg, fsr2l, fsr2h, status,2, status,0
  8043 ;; Tracked objects:
  8044 ;;		On entry : 0/0
  8045 ;;		On exit  : 0/0
  8046 ;;		Unchanged: 0/0
  8047 ;; Data sizes:     COMRAM   BANK0   BANK1   BANK2   BANK3  BANK4h  BANK4l   BANK5   BANK6   BANK7
  8048 ;;      Params:         0       0       0       0       0       0       0       0       0       0
  8049 ;;      Locals:         0       0       0       0       0       0       0       0       0       0
  8050 ;;      Temps:          1       0       0       0       0       0       0       0       0       0
  8051 ;;      Totals:         1       0       0       0       0       0       0       0       0       0
  8052 ;;Total ram usage:        1 bytes
  8053 ;; Hardware stack levels used:    1
  8054 ;; This function calls:
  8055 ;;		Nothing
  8056 ;; This function is called by:
  8057 ;;		i2_USBDeviceTasks
  8058 ;; This function uses a non-reentrant model
  8059 ;;
  8060                           
  8061                           	psect	text42
  8062  003CB0                     __ptext42:
  8063                           	opt callstack 0
  8064  003CB0                     i2_USBStallHandler:
  8065                           	opt callstack 18
  8066  003CB0                     
  8067                           ;usb_device.c: 2220:     if(UEP0bits.EPSTALL == 1)
  8068  003CB0  A070               	btfss	112,0,c	;volatile
  8069  003CB2  EF5D  F01E         	goto	i2u443_41
  8070  003CB6  EF5F  F01E         	goto	i2u443_40
  8071  003CBA                     i2u443_41:
  8072  003CBA  EF86  F01E         	goto	i2l407
  8073  003CBE                     i2u443_40:
  8074  003CBE                     
  8075                           ;usb_device.c: 2221:     {;usb_device.c: 2223:         if((pBDTEntryEP0OutCurrent->STAT.
      +                          Val == 0x80) && (pBDTEntryIn[0]->STAT.Val == (0x80|0x04)))
  8076  003CBE  C01D  FFD9         	movff	_pBDTEntryEP0OutCurrent,fsr2l
  8077  003CC2  C01E  FFDA         	movff	_pBDTEntryEP0OutCurrent+1,fsr2h
  8078  003CC6  0E80               	movlw	128
  8079  003CC8  18DE               	xorwf	postinc2,w,c
  8080  003CCA  A4D8               	btfss	status,2,c
  8081  003CCC  EF6A  F01E         	goto	i2u444_41
  8082  003CD0  EF6C  F01E         	goto	i2u444_40
  8083  003CD4                     i2u444_41:
  8084  003CD4  EF85  F01E         	goto	i2l5285
  8085  003CD8                     i2u444_40:
  8086  003CD8  C00F  FFD9         	movff	_pBDTEntryIn,fsr2l
  8087  003CDC  C010  FFDA         	movff	_pBDTEntryIn+1,fsr2h
  8088  003CE0  0E84               	movlw	132
  8089  003CE2  18DE               	xorwf	postinc2,w,c
  8090  003CE4  A4D8               	btfss	status,2,c
  8091  003CE6  EF77  F01E         	goto	i2u445_41
  8092  003CEA  EF79  F01E         	goto	i2u445_40
  8093  003CEE                     i2u445_41:
  8094  003CEE  EF85  F01E         	goto	i2l5285
  8095  003CF2                     i2u445_40:
  8096  003CF2                     
  8097                           ;usb_device.c: 2224:         {;usb_device.c: 2226:             pBDTEntryEP0OutCurrent->S
      +                          TAT.Val = 0x00|(0x08 & 0x08)|0x04;
  8098  003CF2  C01D  FFD9         	movff	_pBDTEntryEP0OutCurrent,fsr2l
  8099  003CF6  C01E  FFDA         	movff	_pBDTEntryEP0OutCurrent+1,fsr2h
  8100  003CFA  0E0C               	movlw	12
  8101  003CFC  6EDF               	movwf	indf2,c
  8102  003CFE                     
  8103                           ;usb_device.c: 2227:             pBDTEntryEP0OutCurrent->STAT.Val |= 0x80;
  8104  003CFE  C01D  FFD9         	movff	_pBDTEntryEP0OutCurrent,fsr2l
  8105  003D02  C01E  FFDA         	movff	_pBDTEntryEP0OutCurrent+1,fsr2h
  8106  003D06  0E00               	movlw	0
  8107  003D08  8EDB               	bsf	plusw2,7,c
  8108  003D0A                     i2l5285:
  8109                           
  8110                           ;usb_device.c: 2229:         UEP0bits.EPSTALL = 0;
  8111  003D0A  9070               	bcf	112,0,c	;volatile
  8112  003D0C                     i2l407:
  8113                           
  8114                           ;usb_device.c: 2232:     (UIR &= 0xDF);
  8115  003D0C  9A68               	bcf	104,5,c	;volatile
  8116  003D0E  0012               	return		;funcret
  8117  003D10                     __end_ofi2_USBStallHandler:
  8118                           	opt callstack 0
  8119                           
  8120 ;; *************** function i2_USBIncrement1msInternalTimers *****************
  8121 ;; Defined at:
  8122 ;;		line 3031 in file "usb_device.c"
  8123 ;; Parameters:    Size  Location     Type
  8124 ;;		None
  8125 ;; Auto vars:     Size  Location     Type
  8126 ;;		None
  8127 ;; Return value:  Size  Location     Type
  8128 ;;                  1    wreg      void 
  8129 ;; Registers used:
  8130 ;;		wreg, status,2, status,0
  8131 ;; Tracked objects:
  8132 ;;		On entry : 0/0
  8133 ;;		On exit  : 0/0
  8134 ;;		Unchanged: 0/0
  8135 ;; Data sizes:     COMRAM   BANK0   BANK1   BANK2   BANK3  BANK4h  BANK4l   BANK5   BANK6   BANK7
  8136 ;;      Params:         0       0       0       0       0       0       0       0       0       0
  8137 ;;      Locals:         0       0       0       0       0       0       0       0       0       0
  8138 ;;      Temps:          0       0       0       0       0       0       0       0       0       0
  8139 ;;      Totals:         0       0       0       0       0       0       0       0       0       0
  8140 ;;Total ram usage:        0 bytes
  8141 ;; Hardware stack levels used:    1
  8142 ;; This function calls:
  8143 ;;		Nothing
  8144 ;; This function is called by:
  8145 ;;		i2_USBDeviceTasks
  8146 ;; This function uses a non-reentrant model
  8147 ;;
  8148                           
  8149                           	psect	text43
  8150  004022                     __ptext43:
  8151                           	opt callstack 0
  8152  004022                     i2_USBIncrement1msInternalTimers:
  8153                           	opt callstack 18
  8154  004022                     
  8155                           ;usb_device.c: 3039:     USB1msTickCount++;
  8156  004022  0E01               	movlw	1
  8157  004024  0100               	movlb	0	; () banked
  8158  004026  27B4               	addwf	_USB1msTickCount& (0+255),f,b	;volatile
  8159  004028  0E00               	movlw	0
  8160  00402A  23B5               	addwfc	(_USB1msTickCount+1)& (0+255),f,b	;volatile
  8161  00402C  23B6               	addwfc	(_USB1msTickCount+2)& (0+255),f,b	;volatile
  8162  00402E  23B7               	addwfc	(_USB1msTickCount+3)& (0+255),f,b	;volatile
  8163  004030                     
  8164                           ; BSR set to: 0
  8165                           ;usb_device.c: 3040:     if(USBBusIsSuspended == 0)
  8166  004030  5025               	movf	_USBBusIsSuspended^0,w,c	;volatile
  8167  004032  A4D8               	btfss	status,2,c
  8168  004034  EF1E  F020         	goto	i2u450_41
  8169  004038  EF20  F020         	goto	i2u450_40
  8170  00403C                     i2u450_41:
  8171  00403C  EF2A  F020         	goto	i2l499
  8172  004040                     i2u450_40:
  8173  004040                     
  8174                           ; BSR set to: 0
  8175                           ;usb_device.c: 3041:     {;usb_device.c: 3042:         USBTicksSinceSuspendEnd++;
  8176  004040  2BC8               	incf	_USBTicksSinceSuspendEnd& (0+255),f,b	;volatile
  8177  004042                     
  8178                           ; BSR set to: 0
  8179                           ;usb_device.c: 3044:         if(USBTicksSinceSuspendEnd == 0)
  8180  004042  51C8               	movf	_USBTicksSinceSuspendEnd& (0+255),w,b	;volatile
  8181  004044  A4D8               	btfss	status,2,c
  8182  004046  EF27  F020         	goto	i2u451_41
  8183  00404A  EF29  F020         	goto	i2u451_40
  8184  00404E                     i2u451_41:
  8185  00404E  EF2A  F020         	goto	i2l499
  8186  004052                     i2u451_40:
  8187  004052                     
  8188                           ; BSR set to: 0
  8189                           ;usb_device.c: 3045:         {;usb_device.c: 3046:             USBTicksSinceSuspendEnd =
      +                           255;
  8190  004052  69C8               	setf	_USBTicksSinceSuspendEnd& (0+255),b	;volatile
  8191  004054                     i2l499:
  8192                           
  8193                           ; BSR set to: 0
  8194  004054  0012               	return		;funcret
  8195  004056                     __end_ofi2_USBIncrement1msInternalTimers:
  8196                           	opt callstack 0
  8197                           
  8198 ;; *************** function i2_USBDeviceInit *****************
  8199 ;; Defined at:
  8200 ;;		line 281 in file "usb_device.c"
  8201 ;; Parameters:    Size  Location     Type
  8202 ;;		None
  8203 ;; Auto vars:     Size  Location     Type
  8204 ;;  USBDeviceIni    1   12[COMRAM] unsigned char 
  8205 ;; Return value:  Size  Location     Type
  8206 ;;                  1    wreg      void 
  8207 ;; Registers used:
  8208 ;;		wreg, fsr2l, fsr2h, status,2, status,0, prodl, prodh, cstack
  8209 ;; Tracked objects:
  8210 ;;		On entry : 0/0
  8211 ;;		On exit  : 0/0
  8212 ;;		Unchanged: 0/0
  8213 ;; Data sizes:     COMRAM   BANK0   BANK1   BANK2   BANK3  BANK4h  BANK4l   BANK5   BANK6   BANK7
  8214 ;;      Params:         0       0       0       0       0       0       0       0       0       0
  8215 ;;      Locals:         1       0       0       0       0       0       0       0       0       0
  8216 ;;      Temps:          0       0       0       0       0       0       0       0       0       0
  8217 ;;      Totals:         1       0       0       0       0       0       0       0       0       0
  8218 ;;Total ram usage:        1 bytes
  8219 ;; Hardware stack levels used:    1
  8220 ;; Hardware stack levels required when called:    1
  8221 ;; This function calls:
  8222 ;;		i2_memset
  8223 ;; This function is called by:
  8224 ;;		i2_USBDeviceTasks
  8225 ;; This function uses a non-reentrant model
  8226 ;;
  8227                           
  8228                           	psect	text44
  8229  001C6E                     __ptext44:
  8230                           	opt callstack 0
  8231  001C6E                     i2_USBDeviceInit:
  8232                           	opt callstack 17
  8233  001C6E                     
  8234                           ;usb_device.c: 283:     uint8_t i;;usb_device.c: 285:     {PIE2bits.USBIE = 0;};
  8235  001C6E  9AA0               	bcf	160,5,c	;volatile
  8236  001C70                     
  8237                           ;usb_device.c: 292:     {UEIR = 0;};
  8238  001C70  0E00               	movlw	0
  8239  001C72  6E6A               	movwf	106,c	;volatile
  8240                           
  8241                           ;usb_device.c: 295:     {UIR = 0;};
  8242  001C74  0E00               	movlw	0
  8243  001C76  6E68               	movwf	104,c	;volatile
  8244                           
  8245                           ;usb_device.c: 298:     UEP0 = 0;
  8246  001C78  0E00               	movlw	0
  8247  001C7A  6E70               	movwf	112,c	;volatile
  8248  001C7C                     
  8249                           ;usb_device.c: 300:     memset((void*)&UEP1,0x00,(2));;
  8250  001C7C  0E71               	movlw	113
  8251  001C7E  6E2B               	movwf	i2memset@dest^0,c
  8252  001C80  0E0F               	movlw	15
  8253  001C82  6E2C               	movwf	(i2memset@dest+1)^0,c
  8254  001C84  0E00               	movlw	0
  8255  001C86  6E2E               	movwf	(i2memset@c+1)^0,c
  8256  001C88  0E00               	movlw	0
  8257  001C8A  6E2D               	movwf	i2memset@c^0,c
  8258  001C8C  0E00               	movlw	0
  8259  001C8E  6E30               	movwf	(i2memset@n+1)^0,c
  8260  001C90  0E02               	movlw	2
  8261  001C92  6E2F               	movwf	i2memset@n^0,c
  8262  001C94  EC6F  F00B         	call	i2_memset	;wreg free
  8263  001C98                     
  8264                           ;usb_device.c: 302:     { UCFG = 0x10 | 0x00 | 0x04 | 0x02; UEIE = 0x9F; UIE = 0x39 | 0x
      +                          40 | 0x02; };
  8265  001C98  0E16               	movlw	22
  8266  001C9A  6E6F               	movwf	111,c	;volatile
  8267  001C9C  0E9F               	movlw	159
  8268  001C9E  6E6B               	movwf	107,c	;volatile
  8269  001CA0  0E7B               	movlw	123
  8270  001CA2  6E69               	movwf	105,c	;volatile
  8271  001CA4                     
  8272                           ;usb_device.c: 311:     for(i = 0; i < (sizeof(BDT)/sizeof(BDT_ENTRY)); i++)
  8273  001CA4  0E00               	movlw	0
  8274  001CA6  6E37               	movwf	i2USBDeviceInit@i^0,c
  8275  001CA8                     i2l5217:
  8276                           
  8277                           ;usb_device.c: 312:     {;usb_device.c: 313:         BDT[i].Val = 0x00;
  8278  001CA8  5037               	movf	i2USBDeviceInit@i^0,w,c
  8279  001CAA  0D04               	mullw	4
  8280  001CAC  0E00               	movlw	0
  8281  001CAE  24F3               	addwf	243,w,c
  8282  001CB0  6ED9               	movwf	fsr2l,c
  8283  001CB2  0E04               	movlw	4
  8284  001CB4  20F4               	addwfc	prodh,w,c
  8285  001CB6  6EDA               	movwf	fsr2h,c
  8286  001CB8  6ADE               	clrf	postinc2,c
  8287  001CBA  6ADE               	clrf	postinc2,c
  8288  001CBC  6ADE               	clrf	postinc2,c
  8289  001CBE  6ADD               	clrf	postdec2,c
  8290  001CC0                     
  8291                           ;usb_device.c: 314:     }
  8292  001CC0  2A37               	incf	i2USBDeviceInit@i^0,f,c
  8293  001CC2  0E0B               	movlw	11
  8294  001CC4  6437               	cpfsgt	i2USBDeviceInit@i^0,c
  8295  001CC6  EF67  F00E         	goto	i2u440_41
  8296  001CCA  EF69  F00E         	goto	i2u440_40
  8297  001CCE                     i2u440_41:
  8298  001CCE  EF54  F00E         	goto	i2l5217
  8299  001CD2                     i2u440_40:
  8300  001CD2                     
  8301                           ;usb_device.c: 317:     UCONbits.PPBRST = 1;
  8302  001CD2  8C6D               	bsf	109,6,c	;volatile
  8303  001CD4                     
  8304                           ;usb_device.c: 320:     UADDR = 0x00;
  8305  001CD4  0E00               	movlw	0
  8306  001CD6  6E6E               	movwf	110,c	;volatile
  8307  001CD8                     
  8308                           ;usb_device.c: 323:     UCONbits.PKTDIS = 0;
  8309  001CD8  986D               	bcf	109,4,c	;volatile
  8310  001CDA                     
  8311                           ;usb_device.c: 326:     UCONbits.PPBRST = 0;
  8312  001CDA  9C6D               	bcf	109,6,c	;volatile
  8313  001CDC                     i2l5229:
  8314                           
  8315                           ;usb_device.c: 330:     {;usb_device.c: 331:         (UIR &= 0xF7);
  8316  001CDC  9668               	bcf	104,3,c	;volatile
  8317  001CDE                     
  8318                           ;usb_device.c: 333:         inPipes[0].info.Val = 0;
  8319  001CDE  0E00               	movlw	0
  8320  001CE0  6E0C               	movwf	(_inPipes+3)^0,c	;volatile
  8321  001CE2                     
  8322                           ;usb_device.c: 334:         outPipes[0].info.Val = 0;
  8323  001CE2  0E00               	movlw	0
  8324  001CE4  6E04               	movwf	(_outPipes+3)^0,c	;volatile
  8325  001CE6                     
  8326                           ;usb_device.c: 335:         outPipes[0].wCount.Val = 0;
  8327  001CE6  0E00               	movlw	0
  8328  001CE8  6E06               	movwf	(_outPipes+5)^0,c	;volatile
  8329  001CEA  0E00               	movlw	0
  8330  001CEC  6E05               	movwf	(_outPipes+4)^0,c	;volatile
  8331  001CEE                     
  8332                           ;usb_device.c: 336:     }while(UIRbits.TRNIF == 1);
  8333  001CEE  B668               	btfsc	104,3,c	;volatile
  8334  001CF0  EF7C  F00E         	goto	i2u441_41
  8335  001CF4  EF7E  F00E         	goto	i2u441_40
  8336  001CF8                     i2u441_41:
  8337  001CF8  EF6E  F00E         	goto	i2l5229
  8338  001CFC                     i2u441_40:
  8339  001CFC                     
  8340                           ;usb_device.c: 340:     USBStatusStageEnabledFlag1 = 1;
  8341  001CFC  0E01               	movlw	1
  8342  001CFE  6E22               	movwf	_USBStatusStageEnabledFlag1^0,c	;volatile
  8343                           
  8344                           ;usb_device.c: 341:     USBStatusStageEnabledFlag2 = 1;
  8345  001D00  0E01               	movlw	1
  8346  001D02  6E21               	movwf	_USBStatusStageEnabledFlag2^0,c	;volatile
  8347                           
  8348                           ;usb_device.c: 343:     USBDeferINDataStagePackets = 0;
  8349  001D04  0E00               	movlw	0
  8350  001D06  6E20               	movwf	_USBDeferINDataStagePackets^0,c	;volatile
  8351                           
  8352                           ;usb_device.c: 344:     USBDeferOUTDataStagePackets = 0;
  8353  001D08  0E00               	movlw	0
  8354  001D0A  0100               	movlb	0	; () banked
  8355  001D0C  6FC9               	movwf	_USBDeferOUTDataStagePackets& (0+255),b	;volatile
  8356                           
  8357                           ;usb_device.c: 345:     USBBusIsSuspended = 0;
  8358  001D0E  0E00               	movlw	0
  8359  001D10  6E25               	movwf	_USBBusIsSuspended^0,c	;volatile
  8360                           
  8361                           ;usb_device.c: 349:     for(i = 0; i < (uint8_t)(2 +1u); i++)
  8362  001D12  0E00               	movlw	0
  8363  001D14  6E37               	movwf	i2USBDeviceInit@i^0,c
  8364  001D16                     i2l5245:
  8365                           
  8366                           ;usb_device.c: 350:     {;usb_device.c: 351:         pBDTEntryIn[i] = 0u;
  8367  001D16  5037               	movf	i2USBDeviceInit@i^0,w,c
  8368  001D18  0D02               	mullw	2
  8369  001D1A  0E0F               	movlw	low _pBDTEntryIn
  8370  001D1C  24F3               	addwf	243,w,c
  8371  001D1E  6ED9               	movwf	fsr2l,c
  8372  001D20  0E00               	movlw	high _pBDTEntryIn
  8373  001D22  20F4               	addwfc	prodh,w,c
  8374  001D24  6EDA               	movwf	fsr2h,c
  8375  001D26  0E00               	movlw	0
  8376  001D28  6EDE               	movwf	postinc2,c
  8377  001D2A  0E00               	movlw	0
  8378  001D2C  6EDD               	movwf	postdec2,c
  8379                           
  8380                           ;usb_device.c: 352:         pBDTEntryOut[i] = 0u;
  8381  001D2E  5037               	movf	i2USBDeviceInit@i^0,w,c
  8382  001D30  0D02               	mullw	2
  8383  001D32  0EAA               	movlw	low _pBDTEntryOut
  8384  001D34  24F3               	addwf	243,w,c
  8385  001D36  6ED9               	movwf	fsr2l,c
  8386  001D38  0E00               	movlw	high _pBDTEntryOut
  8387  001D3A  20F4               	addwfc	prodh,w,c
  8388  001D3C  6EDA               	movwf	fsr2h,c
  8389  001D3E  0E00               	movlw	0
  8390  001D40  6EDE               	movwf	postinc2,c
  8391  001D42  0E00               	movlw	0
  8392  001D44  6EDD               	movwf	postdec2,c
  8393  001D46                     
  8394                           ;usb_device.c: 353:         ep_data_in[i].Val = 0u;
  8395  001D46  0E18               	movlw	low _ep_data_in
  8396  001D48  2437               	addwf	i2USBDeviceInit@i^0,w,c
  8397  001D4A  6ED9               	movwf	fsr2l,c
  8398  001D4C  6ADA               	clrf	fsr2h,c
  8399  001D4E  0E00               	movlw	high _ep_data_in
  8400  001D50  22DA               	addwfc	fsr2h,f,c
  8401  001D52  0E00               	movlw	0
  8402  001D54  6EDF               	movwf	indf2,c
  8403  001D56                     
  8404                           ;usb_device.c: 354:         ep_data_out[i].Val = 0u;
  8405  001D56  0E15               	movlw	low _ep_data_out
  8406  001D58  2437               	addwf	i2USBDeviceInit@i^0,w,c
  8407  001D5A  6ED9               	movwf	fsr2l,c
  8408  001D5C  6ADA               	clrf	fsr2h,c
  8409  001D5E  0E00               	movlw	high _ep_data_out
  8410  001D60  22DA               	addwfc	fsr2h,f,c
  8411  001D62  0E00               	movlw	0
  8412  001D64  6EDF               	movwf	indf2,c
  8413  001D66                     
  8414                           ;usb_device.c: 355:     }
  8415  001D66  2A37               	incf	i2USBDeviceInit@i^0,f,c
  8416  001D68  0E02               	movlw	2
  8417  001D6A  6437               	cpfsgt	i2USBDeviceInit@i^0,c
  8418  001D6C  EFBA  F00E         	goto	i2u442_41
  8419  001D70  EFBC  F00E         	goto	i2u442_40
  8420  001D74                     i2u442_41:
  8421  001D74  EF8B  F00E         	goto	i2l5245
  8422  001D78                     i2u442_40:
  8423  001D78                     
  8424                           ;usb_device.c: 358:     pBDTEntryIn[0] = (volatile BDT_ENTRY*)&BDT[2];
  8425  001D78  0E08               	movlw	8
  8426  001D7A  6E0F               	movwf	_pBDTEntryIn^0,c
  8427  001D7C  0E04               	movlw	4
  8428  001D7E  6E10               	movwf	(_pBDTEntryIn+1)^0,c
  8429  001D80                     
  8430                           ;usb_device.c: 360:     UEP0 = 0x06|0x10;
  8431  001D80  0E16               	movlw	22
  8432  001D82  6E70               	movwf	112,c	;volatile
  8433  001D84                     
  8434                           ;usb_device.c: 362:     BDT[0].ADR = ((uint16_t)(&SetupPkt));
  8435  001D84  0E04               	movlw	4
  8436  001D86  0104               	movlb	4	; () banked
  8437  001D88  6F03               	movwf	3,b	;volatile
  8438  001D8A  0E30               	movlw	48
  8439  001D8C  6F02               	movwf	2,b	;volatile
  8440  001D8E                     
  8441                           ; BSR set to: 4
  8442                           ;usb_device.c: 363:     BDT[0].CNT = 32;
  8443  001D8E  0E20               	movlw	32
  8444  001D90  6F01               	movwf	1,b	;volatile
  8445  001D92                     
  8446                           ; BSR set to: 4
  8447                           ;usb_device.c: 364:     BDT[0].STAT.Val = 0x00|0x04;
  8448  001D92  0E04               	movlw	4
  8449  001D94  6F00               	movwf	0,b	;volatile
  8450  001D96                     
  8451                           ; BSR set to: 4
  8452                           ;usb_device.c: 365:     BDT[0].STAT.Val |= 0x80;
  8453  001D96  8F00               	bsf	0,7,b	;volatile
  8454  001D98                     
  8455                           ; BSR set to: 4
  8456                           ;usb_device.c: 368:     USBActiveConfiguration = 0;
  8457  001D98  0E00               	movlw	0
  8458  001D9A  6E2A               	movwf	_USBActiveConfiguration^0,c	;volatile
  8459  001D9C                     
  8460                           ; BSR set to: 4
  8461                           ;usb_device.c: 370:     USB1msTickCount = 0;
  8462  001D9C  0E00               	movlw	0
  8463  001D9E  0100               	movlb	0	; () banked
  8464  001DA0  6FB4               	movwf	_USB1msTickCount& (0+255),b	;volatile
  8465  001DA2  0E00               	movlw	0
  8466  001DA4  6FB5               	movwf	(_USB1msTickCount+1)& (0+255),b	;volatile
  8467  001DA6  0E00               	movlw	0
  8468  001DA8  6FB6               	movwf	(_USB1msTickCount+2)& (0+255),b	;volatile
  8469  001DAA  0E00               	movlw	0
  8470  001DAC  6FB7               	movwf	(_USB1msTickCount+3)& (0+255),b	;volatile
  8471  001DAE                     
  8472                           ; BSR set to: 0
  8473                           ;usb_device.c: 371:     USBTicksSinceSuspendEnd = 0;
  8474  001DAE  0E00               	movlw	0
  8475  001DB0  6FC8               	movwf	_USBTicksSinceSuspendEnd& (0+255),b	;volatile
  8476  001DB2                     
  8477                           ; BSR set to: 0
  8478                           ;usb_device.c: 374:     USBDeviceState = DETACHED_STATE;
  8479  001DB2  0E00               	movlw	0
  8480  001DB4  6E29               	movwf	_USBDeviceState^0,c	;volatile
  8481  001DB6                     
  8482                           ; BSR set to: 0
  8483  001DB6  0012               	return		;funcret
  8484  001DB8                     __end_ofi2_USBDeviceInit:
  8485                           	opt callstack 0
  8486                           
  8487 ;; *************** function i2_USBCtrlEPService *****************
  8488 ;; Defined at:
  8489 ;;		line 2378 in file "usb_device.c"
  8490 ;; Parameters:    Size  Location     Type
  8491 ;;		None
  8492 ;; Auto vars:     Size  Location     Type
  8493 ;;		None
  8494 ;; Return value:  Size  Location     Type
  8495 ;;                  1    wreg      void 
  8496 ;; Registers used:
  8497 ;;		wreg, fsr1l, fsr1h, fsr2l, fsr2h, status,2, status,0, tblptrl, tblptrh, tblptru, prodl, prodh, cstack
  8498 ;; Tracked objects:
  8499 ;;		On entry : 0/0
  8500 ;;		On exit  : 0/0
  8501 ;;		Unchanged: 0/0
  8502 ;; Data sizes:     COMRAM   BANK0   BANK1   BANK2   BANK3  BANK4h  BANK4l   BANK5   BANK6   BANK7
  8503 ;;      Params:         0       0       0       0       0       0       0       0       0       0
  8504 ;;      Locals:         0       0       0       0       0       0       0       0       0       0
  8505 ;;      Temps:          1       0       0       0       0       0       0       0       0       0
  8506 ;;      Totals:         1       0       0       0       0       0       0       0       0       0
  8507 ;;Total ram usage:        1 bytes
  8508 ;; Hardware stack levels used:    1
  8509 ;; Hardware stack levels required when called:    7
  8510 ;; This function calls:
  8511 ;;		i2_USBCtrlTrfInHandler
  8512 ;;		i2_USBCtrlTrfOutHandler
  8513 ;;		i2_USBCtrlTrfSetupHandler
  8514 ;;		i2_memcpy
  8515 ;; This function is called by:
  8516 ;;		i2_USBDeviceTasks
  8517 ;; This function uses a non-reentrant model
  8518 ;;
  8519                           
  8520                           	psect	text45
  8521  003430                     __ptext45:
  8522                           	opt callstack 0
  8523  003430                     i2_USBCtrlEPService:
  8524                           	opt callstack 11
  8525  003430                     
  8526                           ;usb_device.c: 2384:         USBStatusStageTimeoutCounter = (uint8_t)45;
  8527  003430  0E2D               	movlw	45
  8528  003432  0100               	movlb	0	; () banked
  8529  003434  6FCA               	movwf	_USBStatusStageTimeoutCounter& (0+255),b	;volatile
  8530  003436                     
  8531                           ; BSR set to: 0
  8532                           ;usb_device.c: 2388:     if((USTATcopy.Val & ~0x02) == 0x00)
  8533  003436  C0DE  F048         	movff	_USTATcopy,??i2_USBCtrlEPService	;volatile
  8534  00343A  0EFD               	movlw	253
  8535  00343C  1648               	andwf	??i2_USBCtrlEPService^0,f,c
  8536  00343E  A4D8               	btfss	status,2,c
  8537  003440  EF24  F01A         	goto	i2u447_41
  8538  003444  EF26  F01A         	goto	i2u447_40
  8539  003448                     i2u447_41:
  8540  003448  EF68  F01A         	goto	i2l5331
  8541  00344C                     i2u447_40:
  8542  00344C                     
  8543                           ; BSR set to: 0
  8544                           ;usb_device.c: 2389:     {;usb_device.c: 2392:             pBDTEntryEP0OutCurrent = (vol
      +                          atile BDT_ENTRY*)&BDT[(USTATcopy.Val & 0x7E)>>1];
  8545  00344C  C0DE  F048         	movff	_USTATcopy,??i2_USBCtrlEPService	;volatile
  8546  003450  90D8               	bcf	status,0,c
  8547  003452  3248               	rrcf	??i2_USBCtrlEPService^0,f,c
  8548  003454  0E3F               	movlw	63
  8549  003456  1648               	andwf	??i2_USBCtrlEPService^0,f,c
  8550  003458  5048               	movf	??i2_USBCtrlEPService^0,w,c
  8551  00345A  0D04               	mullw	4
  8552  00345C  0E00               	movlw	0
  8553  00345E  24F3               	addwf	243,w,c
  8554  003460  6E1D               	movwf	_pBDTEntryEP0OutCurrent^0,c
  8555  003462  0E04               	movlw	4
  8556  003464  20F4               	addwfc	prodh,w,c
  8557  003466  6E1E               	movwf	(_pBDTEntryEP0OutCurrent+1)^0,c
  8558  003468                     
  8559                           ; BSR set to: 0
  8560                           ;usb_device.c: 2400:         pBDTEntryEP0OutNext = pBDTEntryEP0OutCurrent;
  8561  003468  C01D  F01B         	movff	_pBDTEntryEP0OutCurrent,_pBDTEntryEP0OutNext
  8562  00346C  C01E  F01C         	movff	_pBDTEntryEP0OutCurrent+1,_pBDTEntryEP0OutNext+1
  8563  003470                     
  8564                           ; BSR set to: 0
  8565                           ;usb_device.c: 2402:         pBDTEntryEP0OutNext = (volatile BDT_ENTRY*)(((uint16_t)pBDT
      +                          EntryEP0OutNext) ^ 0x0004);
  8566  003470  0E04               	movlw	4
  8567  003472  181B               	xorwf	_pBDTEntryEP0OutNext^0,w,c
  8568  003474  6E1B               	movwf	_pBDTEntryEP0OutNext^0,c
  8569  003476  501C               	movf	(_pBDTEntryEP0OutNext+1)^0,w,c
  8570  003478  6E1C               	movwf	(_pBDTEntryEP0OutNext+1)^0,c
  8571  00347A                     
  8572                           ; BSR set to: 0
  8573                           ;usb_device.c: 2405:         if(pBDTEntryEP0OutCurrent->STAT.PID == 0xD)
  8574  00347A  C01D  FFD9         	movff	_pBDTEntryEP0OutCurrent,fsr2l
  8575  00347E  C01E  FFDA         	movff	_pBDTEntryEP0OutCurrent+1,fsr2h
  8576  003482  30DF               	rrcf	indf2,w,c
  8577  003484  32E8               	rrcf	wreg,f,c
  8578  003486  0B0F               	andlw	15
  8579  003488  0A0D               	xorlw	13
  8580  00348A  A4D8               	btfss	status,2,c
  8581  00348C  EF4A  F01A         	goto	i2u448_41
  8582  003490  EF4C  F01A         	goto	i2u448_40
  8583  003494                     i2u448_41:
  8584  003494  EF64  F01A         	goto	i2l5329
  8585  003498                     i2u448_40:
  8586  003498                     
  8587                           ; BSR set to: 0
  8588                           ;usb_device.c: 2406:         {;usb_device.c: 2411:             memcpy((uint8_t*)&SetupPk
      +                          t, (uint8_t*)((void *)(pBDTEntryEP0OutCurrent->ADR)), 8);
  8589  003498  0E30               	movlw	48
  8590  00349A  6E2B               	movwf	i2memcpy@d1^0,c
  8591  00349C  0E04               	movlw	4
  8592  00349E  6E2C               	movwf	(i2memcpy@d1+1)^0,c
  8593  0034A0  EE20 F002          	lfsr	2,2
  8594  0034A4  501D               	movf	_pBDTEntryEP0OutCurrent^0,w,c
  8595  0034A6  26D9               	addwf	fsr2l,f,c
  8596  0034A8  501E               	movf	(_pBDTEntryEP0OutCurrent+1)^0,w,c
  8597  0034AA  22DA               	addwfc	fsr2h,f,c
  8598  0034AC  CFDE F02D          	movff	postinc2,i2memcpy@s1
  8599  0034B0  CFDD F02E          	movff	postdec2,i2memcpy@s1+1
  8600  0034B4  0E00               	movlw	0
  8601  0034B6  6E30               	movwf	(i2memcpy@n+1)^0,c
  8602  0034B8  0E08               	movlw	8
  8603  0034BA  6E2F               	movwf	i2memcpy@n^0,c
  8604  0034BC  EC08  F01F         	call	i2_memcpy	;wreg free
  8605  0034C0                     
  8606                           ;usb_device.c: 2414:             USBCtrlTrfSetupHandler();
  8607  0034C0  EC1A  F01C         	call	i2_USBCtrlTrfSetupHandler	;wreg free
  8608                           
  8609                           ;usb_device.c: 2415:         }
  8610  0034C4  EF74  F01A         	goto	i2l426
  8611  0034C8                     i2l5329:
  8612                           
  8613                           ; BSR set to: 0
  8614                           ;usb_device.c: 2417:         {;usb_device.c: 2419:             USBCtrlTrfOutHandler();
  8615  0034C8  EC25  F01D         	call	i2_USBCtrlTrfOutHandler	;wreg free
  8616  0034CC  EF74  F01A         	goto	i2l426
  8617  0034D0                     i2l5331:
  8618                           
  8619                           ; BSR set to: 0
  8620  0034D0  51DE               	movf	_USTATcopy& (0+255),w,b	;volatile
  8621  0034D2  0BFD               	andlw	253
  8622  0034D4  0A04               	xorlw	4
  8623  0034D6  A4D8               	btfss	status,2,c
  8624  0034D8  EF70  F01A         	goto	i2u449_41
  8625  0034DC  EF72  F01A         	goto	i2u449_40
  8626  0034E0                     i2u449_41:
  8627  0034E0  EF74  F01A         	goto	i2l426
  8628  0034E4                     i2u449_40:
  8629  0034E4                     
  8630                           ; BSR set to: 0
  8631                           ;usb_device.c: 2423:     {;usb_device.c: 2426:         USBCtrlTrfInHandler();
  8632  0034E4  EC5D  F016         	call	i2_USBCtrlTrfInHandler	;wreg free
  8633  0034E8                     i2l426:
  8634  0034E8  0012               	return		;funcret
  8635  0034EA                     __end_ofi2_USBCtrlEPService:
  8636                           	opt callstack 0
  8637                           
  8638 ;; *************** function i2_memcpy *****************
  8639 ;; Defined at:
  8640 ;;		line 4 in file "C:\Program Files (x86)\Microchip\xc8\v2.10\pic\sources\c99\common\memcpy.c"
  8641 ;; Parameters:    Size  Location     Type
  8642 ;;  d1              2    0[COMRAM] PTR void 
  8643 ;;		 -> SetupPkt(8), 
  8644 ;;  s1              2    2[COMRAM] PTR const void 
  8645 ;;		 -> CtrlTrfData(32), RAM(2047), SetupPkt(8), 
  8646 ;;  n               2    4[COMRAM] unsigned int 
  8647 ;; Auto vars:     Size  Location     Type
  8648 ;;  memcpy          2    8[COMRAM] PTR const unsigned char 
  8649 ;;		 -> CtrlTrfData(32), RAM(2047), SetupPkt(8), 
  8650 ;;  memcpy          2    6[COMRAM] PTR unsigned char 
  8651 ;;		 -> SetupPkt(8), 
  8652 ;;  memcpy          1   10[COMRAM] unsigned char 
  8653 ;; Return value:  Size  Location     Type
  8654 ;;                  2    0[COMRAM] PTR void 
  8655 ;; Registers used:
  8656 ;;		wreg, fsr2l, fsr2h, status,2, status,0
  8657 ;; Tracked objects:
  8658 ;;		On entry : 0/0
  8659 ;;		On exit  : 0/0
  8660 ;;		Unchanged: 0/0
  8661 ;; Data sizes:     COMRAM   BANK0   BANK1   BANK2   BANK3  BANK4h  BANK4l   BANK5   BANK6   BANK7
  8662 ;;      Params:         6       0       0       0       0       0       0       0       0       0
  8663 ;;      Locals:         5       0       0       0       0       0       0       0       0       0
  8664 ;;      Temps:          0       0       0       0       0       0       0       0       0       0
  8665 ;;      Totals:        11       0       0       0       0       0       0       0       0       0
  8666 ;;Total ram usage:       11 bytes
  8667 ;; Hardware stack levels used:    1
  8668 ;; This function calls:
  8669 ;;		Nothing
  8670 ;; This function is called by:
  8671 ;;		i2_USBCtrlEPService
  8672 ;; This function uses a non-reentrant model
  8673 ;;
  8674                           
  8675                           	psect	text46
  8676  003E10                     __ptext46:
  8677                           	opt callstack 0
  8678  003E10                     i2_memcpy:
  8679                           	opt callstack 17
  8680  003E10  C02D  F033         	movff	i2memcpy@s1,i2memcpy@s
  8681  003E14  C02E  F034         	movff	i2memcpy@s1+1,i2memcpy@s+1
  8682  003E18  C02B  F031         	movff	i2memcpy@d1,i2memcpy@d
  8683  003E1C  C02C  F032         	movff	i2memcpy@d1+1,i2memcpy@d+1
  8684  003E20  EF22  F01F         	goto	i2l5105
  8685  003E24                     i2l5097:
  8686  003E24  C033  FFD9         	movff	i2memcpy@s,fsr2l
  8687  003E28  C034  FFDA         	movff	i2memcpy@s+1,fsr2h
  8688  003E2C  50DF               	movf	indf2,w,c
  8689  003E2E  6E35               	movwf	i2memcpy@tmp^0,c
  8690  003E30  4A33               	infsnz	i2memcpy@s^0,f,c
  8691  003E32  2A34               	incf	(i2memcpy@s+1)^0,f,c
  8692  003E34  C031  FFD9         	movff	i2memcpy@d,fsr2l
  8693  003E38  C032  FFDA         	movff	i2memcpy@d+1,fsr2h
  8694  003E3C  C035  FFDF         	movff	i2memcpy@tmp,indf2
  8695  003E40  4A31               	infsnz	i2memcpy@d^0,f,c
  8696  003E42  2A32               	incf	(i2memcpy@d+1)^0,f,c
  8697  003E44                     i2l5105:
  8698  003E44  062F               	decf	i2memcpy@n^0,f,c
  8699  003E46  A0D8               	btfss	status,0,c
  8700  003E48  0630               	decf	(i2memcpy@n+1)^0,f,c
  8701  003E4A  282F               	incf	i2memcpy@n^0,w,c
  8702  003E4C  E106               	bnz	i2u430_41
  8703  003E4E  2830               	incf	(i2memcpy@n+1)^0,w,c
  8704  003E50  A4D8               	btfss	status,2,c
  8705  003E52  EF2D  F01F         	goto	i2u430_41
  8706  003E56  EF2F  F01F         	goto	i2u430_40
  8707  003E5A                     i2u430_41:
  8708  003E5A  EF12  F01F         	goto	i2l5097
  8709  003E5E                     i2u430_40:
  8710  003E5E  0012               	return		;funcret
  8711  003E60                     __end_ofi2_memcpy:
  8712                           	opt callstack 0
  8713                           
  8714 ;; *************** function i2_USBCtrlTrfSetupHandler *****************
  8715 ;; Defined at:
  8716 ;;		line 2471 in file "usb_device.c"
  8717 ;; Parameters:    Size  Location     Type
  8718 ;;		None
  8719 ;; Auto vars:     Size  Location     Type
  8720 ;;		None
  8721 ;; Return value:  Size  Location     Type
  8722 ;;                  1    wreg      void 
  8723 ;; Registers used:
  8724 ;;		wreg, fsr1l, fsr1h, fsr2l, fsr2h, status,2, status,0, tblptrl, tblptrh, tblptru, prodl, prodh, cstack
  8725 ;; Tracked objects:
  8726 ;;		On entry : 0/0
  8727 ;;		On exit  : 0/0
  8728 ;;		Unchanged: 0/0
  8729 ;; Data sizes:     COMRAM   BANK0   BANK1   BANK2   BANK3  BANK4h  BANK4l   BANK5   BANK6   BANK7
  8730 ;;      Params:         0       0       0       0       0       0       0       0       0       0
  8731 ;;      Locals:         0       0       0       0       0       0       0       0       0       0
  8732 ;;      Temps:          0       0       0       0       0       0       0       0       0       0
  8733 ;;      Totals:         0       0       0       0       0       0       0       0       0       0
  8734 ;;Total ram usage:        0 bytes
  8735 ;; Hardware stack levels used:    1
  8736 ;; Hardware stack levels required when called:    6
  8737 ;; This function calls:
  8738 ;;		i2_USBCheckStdRequest
  8739 ;;		i2_USBCtrlEPServiceComplete
  8740 ;;		i2_USER_USB_CALLBACK_EVENT_HANDLER
  8741 ;; This function is called by:
  8742 ;;		i2_USBCtrlEPService
  8743 ;; This function uses a non-reentrant model
  8744 ;;
  8745                           
  8746                           	psect	text47
  8747  003834                     __ptext47:
  8748                           	opt callstack 0
  8749  003834                     i2_USBCtrlTrfSetupHandler:
  8750                           	opt callstack 11
  8751  003834                     
  8752                           ;usb_device.c: 2476:     shortPacketStatus = 0;
  8753  003834  0E00               	movlw	0
  8754  003836  6E28               	movwf	_shortPacketStatus^0,c	;volatile
  8755                           
  8756                           ;usb_device.c: 2477:     USBDeferStatusStagePacket = 0;
  8757  003838  0E00               	movlw	0
  8758  00383A  6E23               	movwf	_USBDeferStatusStagePacket^0,c	;volatile
  8759                           
  8760                           ;usb_device.c: 2478:     USBDeferINDataStagePackets = 0;
  8761  00383C  0E00               	movlw	0
  8762  00383E  6E20               	movwf	_USBDeferINDataStagePackets^0,c	;volatile
  8763                           
  8764                           ;usb_device.c: 2479:     USBDeferOUTDataStagePackets = 0;
  8765  003840  0E00               	movlw	0
  8766  003842  0100               	movlb	0	; () banked
  8767  003844  6FC9               	movwf	_USBDeferOUTDataStagePackets& (0+255),b	;volatile
  8768                           
  8769                           ;usb_device.c: 2480:     BothEP0OutUOWNsSet = 0;
  8770  003846  0E00               	movlw	0
  8771  003848  6E24               	movwf	_BothEP0OutUOWNsSet^0,c	;volatile
  8772                           
  8773                           ;usb_device.c: 2481:     controlTransferState = 0;
  8774  00384A  0E00               	movlw	0
  8775  00384C  6E27               	movwf	_controlTransferState^0,c	;volatile
  8776  00384E                     
  8777                           ; BSR set to: 0
  8778                           ;usb_device.c: 2490:     pBDTEntryIn[0]->STAT.Val &= ~(0x80);
  8779  00384E  C00F  FFD9         	movff	_pBDTEntryIn,fsr2l
  8780  003852  C010  FFDA         	movff	_pBDTEntryIn+1,fsr2h
  8781  003856  0E7F               	movlw	127
  8782  003858  16DF               	andwf	indf2,f,c
  8783  00385A                     
  8784                           ; BSR set to: 0
  8785                           ;usb_device.c: 2492:     pBDTEntryIn[0] = (volatile BDT_ENTRY*)(((uint16_t)pBDTEntryIn[0
      +                          ]) ^ 0x0004);
  8786  00385A  0E04               	movlw	4
  8787  00385C  180F               	xorwf	_pBDTEntryIn^0,w,c
  8788  00385E  6E0F               	movwf	_pBDTEntryIn^0,c
  8789  003860  5010               	movf	(_pBDTEntryIn+1)^0,w,c
  8790  003862  6E10               	movwf	(_pBDTEntryIn+1)^0,c
  8791  003864                     
  8792                           ; BSR set to: 0
  8793                           ;usb_device.c: 2493:     pBDTEntryIn[0]->STAT.Val &= ~(0x80);
  8794  003864  C00F  FFD9         	movff	_pBDTEntryIn,fsr2l
  8795  003868  C010  FFDA         	movff	_pBDTEntryIn+1,fsr2h
  8796  00386C  0E7F               	movlw	127
  8797  00386E  16DF               	andwf	indf2,f,c
  8798  003870                     
  8799                           ; BSR set to: 0
  8800                           ;usb_device.c: 2494:     pBDTEntryIn[0] = (volatile BDT_ENTRY*)(((uint16_t)pBDTEntryIn[0
      +                          ]) ^ 0x0004);
  8801  003870  0E04               	movlw	4
  8802  003872  180F               	xorwf	_pBDTEntryIn^0,w,c
  8803  003874  6E0F               	movwf	_pBDTEntryIn^0,c
  8804  003876  5010               	movf	(_pBDTEntryIn+1)^0,w,c
  8805  003878  6E10               	movwf	(_pBDTEntryIn+1)^0,c
  8806  00387A                     
  8807                           ; BSR set to: 0
  8808                           ;usb_device.c: 2495:     pBDTEntryEP0OutNext->STAT.Val &= ~(0x80);
  8809  00387A  C01B  FFD9         	movff	_pBDTEntryEP0OutNext,fsr2l
  8810  00387E  C01C  FFDA         	movff	_pBDTEntryEP0OutNext+1,fsr2h
  8811  003882  0E7F               	movlw	127
  8812  003884  16DF               	andwf	indf2,f,c
  8813  003886                     
  8814                           ; BSR set to: 0
  8815                           ;usb_device.c: 2497:     inPipes[0].info.Val = 0;
  8816  003886  0E00               	movlw	0
  8817  003888  6E0C               	movwf	(_inPipes+3)^0,c	;volatile
  8818  00388A                     
  8819                           ; BSR set to: 0
  8820                           ;usb_device.c: 2498:     inPipes[0].wCount.Val = 0;
  8821  00388A  0E00               	movlw	0
  8822  00388C  6E0E               	movwf	(_inPipes+5)^0,c	;volatile
  8823  00388E  0E00               	movlw	0
  8824  003890  6E0D               	movwf	(_inPipes+4)^0,c	;volatile
  8825  003892                     
  8826                           ; BSR set to: 0
  8827                           ;usb_device.c: 2499:     outPipes[0].info.Val = 0;
  8828  003892  0E00               	movlw	0
  8829  003894  6E04               	movwf	(_outPipes+3)^0,c	;volatile
  8830  003896                     
  8831                           ; BSR set to: 0
  8832                           ;usb_device.c: 2500:     outPipes[0].wCount.Val = 0;
  8833  003896  0E00               	movlw	0
  8834  003898  6E06               	movwf	(_outPipes+5)^0,c	;volatile
  8835  00389A  0E00               	movlw	0
  8836  00389C  6E05               	movwf	(_outPipes+4)^0,c	;volatile
  8837  00389E                     
  8838                           ; BSR set to: 0
  8839                           ;usb_device.c: 2506:     USBCheckStdRequest();
  8840  00389E  EC32  F013         	call	i2_USBCheckStdRequest	;wreg free
  8841  0038A2                     
  8842                           ;usb_device.c: 2507:     USER_USB_CALLBACK_EVENT_HANDLER((USB_EVENT)EVENT_EP0_REQUEST,0,
      +                          0);
  8843  0038A2  0E00               	movlw	0
  8844  0038A4  6E38               	movwf	(i2USER_USB_CALLBACK_EVENT_HANDLER@event+1)^0,c
  8845  0038A6  0E03               	movlw	3
  8846  0038A8  6E37               	movwf	i2USER_USB_CALLBACK_EVENT_HANDLER@event^0,c
  8847  0038AA  0E00               	movlw	0
  8848  0038AC  6E39               	movwf	i2USER_USB_CALLBACK_EVENT_HANDLER@pdata^0,c
  8849  0038AE  0E00               	movlw	0
  8850  0038B0  6E3A               	movwf	(i2USER_USB_CALLBACK_EVENT_HANDLER@pdata+1)^0,c
  8851  0038B2  0E00               	movlw	0
  8852  0038B4  6E3C               	movwf	(i2USER_USB_CALLBACK_EVENT_HANDLER@size+1)^0,c
  8853  0038B6  0E00               	movlw	0
  8854  0038B8  6E3B               	movwf	i2USER_USB_CALLBACK_EVENT_HANDLER@size^0,c
  8855  0038BA  ECA7  F01C         	call	i2_USER_USB_CALLBACK_EVENT_HANDLER	;wreg free
  8856  0038BE                     
  8857                           ;usb_device.c: 2520:     USBCtrlEPServiceComplete();
  8858  0038BE  ECC0  F010         	call	i2_USBCtrlEPServiceComplete	;wreg free
  8859  0038C2  0012               	return		;funcret
  8860  0038C4                     __end_ofi2_USBCtrlTrfSetupHandler:
  8861                           	opt callstack 0
  8862                           
  8863 ;; *************** function i2_USBCtrlEPServiceComplete *****************
  8864 ;; Defined at:
  8865 ;;		line 1622 in file "usb_device.c"
  8866 ;; Parameters:    Size  Location     Type
  8867 ;;		None
  8868 ;; Auto vars:     Size  Location     Type
  8869 ;;		None
  8870 ;; Return value:  Size  Location     Type
  8871 ;;                  1    wreg      void 
  8872 ;; Registers used:
  8873 ;;		wreg, fsr1l, fsr1h, fsr2l, fsr2h, status,2, status,0, tblptrl, tblptrh, tblptru, cstack
  8874 ;; Tracked objects:
  8875 ;;		On entry : 0/0
  8876 ;;		On exit  : 0/0
  8877 ;;		Unchanged: 0/0
  8878 ;; Data sizes:     COMRAM   BANK0   BANK1   BANK2   BANK3  BANK4h  BANK4l   BANK5   BANK6   BANK7
  8879 ;;      Params:         0       0       0       0       0       0       0       0       0       0
  8880 ;;      Locals:         0       0       0       0       0       0       0       0       0       0
  8881 ;;      Temps:          0       0       0       0       0       0       0       0       0       0
  8882 ;;      Totals:         0       0       0       0       0       0       0       0       0       0
  8883 ;;Total ram usage:        0 bytes
  8884 ;; Hardware stack levels used:    1
  8885 ;; Hardware stack levels required when called:    2
  8886 ;; This function calls:
  8887 ;;		i2_USBCtrlEPAllowDataStage
  8888 ;;		i2_USBCtrlEPAllowStatusStage
  8889 ;; This function is called by:
  8890 ;;		i2_USBCtrlTrfSetupHandler
  8891 ;; This function uses a non-reentrant model
  8892 ;;
  8893                           
  8894                           	psect	text48
  8895  002180                     __ptext48:
  8896                           	opt callstack 0
  8897  002180                     i2_USBCtrlEPServiceComplete:
  8898                           	opt callstack 14
  8899  002180                     
  8900                           ;usb_device.c: 1628:     UCONbits.PKTDIS = 0;
  8901  002180  986D               	bcf	109,4,c	;volatile
  8902                           
  8903                           ;usb_device.c: 1634:     if(inPipes[0].info.bits.busy == 0)
  8904  002182  BE0C               	btfsc	(_inPipes+3)^0,7,c	;volatile
  8905  002184  EFC6  F010         	goto	i2u396_41
  8906  002188  EFC8  F010         	goto	i2u396_40
  8907  00218C                     i2u396_41:
  8908  00218C  EF0E  F011         	goto	i2l331
  8909  002190                     i2u396_40:
  8910  002190                     
  8911                           ;usb_device.c: 1635:     {;usb_device.c: 1636:         if(outPipes[0].info.bits.busy == 
      +                          1)
  8912  002190  AE04               	btfss	(_outPipes+3)^0,7,c	;volatile
  8913  002192  EFCD  F010         	goto	i2u397_41
  8914  002196  EFCF  F010         	goto	i2u397_40
  8915  00219A                     i2u397_41:
  8916  00219A  EFE2  F010         	goto	i2l4751
  8917  00219E                     i2u397_40:
  8918  00219E                     
  8919                           ;usb_device.c: 1637:         {;usb_device.c: 1638:             controlTransferState = 2;
  8920  00219E  0E02               	movlw	2
  8921  0021A0  6E27               	movwf	_controlTransferState^0,c	;volatile
  8922                           
  8923                           ;usb_device.c: 1649:             if(USBDeferOUTDataStagePackets == 0)
  8924  0021A2  0100               	movlb	0	; () banked
  8925  0021A4  51C9               	movf	_USBDeferOUTDataStagePackets& (0+255),w,b	;volatile
  8926  0021A6  A4D8               	btfss	status,2,c
  8927  0021A8  EFD8  F010         	goto	i2u398_41
  8928  0021AC  EFDA  F010         	goto	i2u398_40
  8929  0021B0                     i2u398_41:
  8930  0021B0  EFDC  F010         	goto	i2l4747
  8931  0021B4                     i2u398_40:
  8932  0021B4                     
  8933                           ; BSR set to: 0
  8934                           ;usb_device.c: 1650:             {;usb_device.c: 1651:                 USBCtrlEPAllowDat
      +                          aStage();
  8935  0021B4  EC24  F01B         	call	i2_USBCtrlEPAllowDataStage	;wreg free
  8936  0021B8                     i2l4747:
  8937                           
  8938                           ;usb_device.c: 1656:             USBStatusStageEnabledFlag2 = 0;
  8939  0021B8  0E00               	movlw	0
  8940  0021BA  6E21               	movwf	_USBStatusStageEnabledFlag2^0,c	;volatile
  8941  0021BC                     
  8942                           ;usb_device.c: 1657:             USBStatusStageEnabledFlag1 = 0;
  8943  0021BC  0E00               	movlw	0
  8944  0021BE  6E22               	movwf	_USBStatusStageEnabledFlag1^0,c	;volatile
  8945                           
  8946                           ;usb_device.c: 1658:         }
  8947  0021C0  EF60  F011         	goto	i2l341
  8948  0021C4                     i2l4751:
  8949                           
  8950                           ;usb_device.c: 1660:         {;usb_device.c: 1665:             pBDTEntryEP0OutNext->CNT 
      +                          = 32;
  8951  0021C4  EE20 F001          	lfsr	2,1
  8952  0021C8  501B               	movf	_pBDTEntryEP0OutNext^0,w,c
  8953  0021CA  26D9               	addwf	fsr2l,f,c
  8954  0021CC  501C               	movf	(_pBDTEntryEP0OutNext+1)^0,w,c
  8955  0021CE  22DA               	addwfc	fsr2h,f,c
  8956  0021D0  0E20               	movlw	32
  8957  0021D2  6EDF               	movwf	indf2,c
  8958                           
  8959                           ;usb_device.c: 1666:             pBDTEntryEP0OutNext->ADR = ((uint16_t)(&SetupPkt));
  8960  0021D4  EE20 F002          	lfsr	2,2
  8961  0021D8  501B               	movf	_pBDTEntryEP0OutNext^0,w,c
  8962  0021DA  26D9               	addwf	fsr2l,f,c
  8963  0021DC  501C               	movf	(_pBDTEntryEP0OutNext+1)^0,w,c
  8964  0021DE  22DA               	addwfc	fsr2h,f,c
  8965  0021E0  0E30               	movlw	48
  8966  0021E2  6EDE               	movwf	postinc2,c
  8967  0021E4  0E04               	movlw	4
  8968  0021E6  6EDD               	movwf	postdec2,c
  8969  0021E8                     
  8970                           ;usb_device.c: 1667:             pBDTEntryEP0OutNext->STAT.Val = 0x00|(0x08 & 0x08)|0x04
      +                          ;
  8971  0021E8  C01B  FFD9         	movff	_pBDTEntryEP0OutNext,fsr2l
  8972  0021EC  C01C  FFDA         	movff	_pBDTEntryEP0OutNext+1,fsr2h
  8973  0021F0  0E0C               	movlw	12
  8974  0021F2  6EDF               	movwf	indf2,c
  8975  0021F4                     
  8976                           ;usb_device.c: 1668:             pBDTEntryEP0OutNext->STAT.Val |= 0x80;
  8977  0021F4  C01B  FFD9         	movff	_pBDTEntryEP0OutNext,fsr2l
  8978  0021F8  C01C  FFDA         	movff	_pBDTEntryEP0OutNext+1,fsr2h
  8979  0021FC  0E00               	movlw	0
  8980  0021FE  8EDB               	bsf	plusw2,7,c
  8981                           
  8982                           ;usb_device.c: 1669:             pBDTEntryIn[0]->STAT.Val = 0x04;
  8983  002200  C00F  FFD9         	movff	_pBDTEntryIn,fsr2l
  8984  002204  C010  FFDA         	movff	_pBDTEntryIn+1,fsr2h
  8985  002208  0E04               	movlw	4
  8986  00220A  6EDF               	movwf	indf2,c
  8987  00220C                     
  8988                           ;usb_device.c: 1670:             pBDTEntryIn[0]->STAT.Val |= 0x80;
  8989  00220C  C00F  FFD9         	movff	_pBDTEntryIn,fsr2l
  8990  002210  C010  FFDA         	movff	_pBDTEntryIn+1,fsr2h
  8991  002214  0E00               	movlw	0
  8992  002216  8EDB               	bsf	plusw2,7,c
  8993  002218  EF60  F011         	goto	i2l341
  8994  00221C                     i2l331:
  8995                           
  8996                           ;usb_device.c: 1674:     {;usb_device.c: 1675:   if(SetupPkt.DataDir == (0x80>>7))
  8997  00221C  0104               	movlb	4	; () banked
  8998  00221E  AF30               	btfss	48,7,b	;volatile
  8999  002220  EF14  F011         	goto	i2u399_41
  9000  002224  EF16  F011         	goto	i2u399_40
  9001  002228                     i2u399_41:
  9002  002228  EF32  F011         	goto	i2l4771
  9003  00222C                     i2u399_40:
  9004  00222C                     
  9005                           ; BSR set to: 4
  9006                           ;usb_device.c: 1676:   {;usb_device.c: 1677:    controlTransferState = 1;
  9007  00222C  0E01               	movlw	1
  9008  00222E  6E27               	movwf	_controlTransferState^0,c	;volatile
  9009                           
  9010                           ;usb_device.c: 1691:    if(USBDeferINDataStagePackets == 0)
  9011  002230  5020               	movf	_USBDeferINDataStagePackets^0,w,c	;volatile
  9012  002232  A4D8               	btfss	status,2,c
  9013  002234  EF1E  F011         	goto	i2u400_41
  9014  002238  EF20  F011         	goto	i2u400_40
  9015  00223C                     i2u400_41:
  9016  00223C  EF22  F011         	goto	i2l4763
  9017  002240                     i2u400_40:
  9018  002240                     
  9019                           ; BSR set to: 4
  9020                           ;usb_device.c: 1692:             {;usb_device.c: 1693:                 USBCtrlEPAllowDat
      +                          aStage();
  9021  002240  EC24  F01B         	call	i2_USBCtrlEPAllowDataStage	;wreg free
  9022  002244                     i2l4763:
  9023                           
  9024                           ;usb_device.c: 1716:             USBStatusStageEnabledFlag2 = 0;
  9025  002244  0E00               	movlw	0
  9026  002246  6E21               	movwf	_USBStatusStageEnabledFlag2^0,c	;volatile
  9027  002248                     
  9028                           ;usb_device.c: 1717:             USBStatusStageEnabledFlag1 = 0;
  9029  002248  0E00               	movlw	0
  9030  00224A  6E22               	movwf	_USBStatusStageEnabledFlag1^0,c	;volatile
  9031  00224C                     
  9032                           ;usb_device.c: 1718:             if(USBDeferStatusStagePacket == 0)
  9033  00224C  5023               	movf	_USBDeferStatusStagePacket^0,w,c	;volatile
  9034  00224E  A4D8               	btfss	status,2,c
  9035  002250  EF2C  F011         	goto	i2u401_41
  9036  002254  EF2E  F011         	goto	i2u401_40
  9037  002258                     i2u401_41:
  9038  002258  EF60  F011         	goto	i2l341
  9039  00225C                     i2u401_40:
  9040  00225C                     i2l4769:
  9041                           
  9042                           ;usb_device.c: 1719:             {;usb_device.c: 1720:                 USBCtrlEPAllowSta
      +                          tusStage();
  9043  00225C  EC59  F018         	call	i2_USBCtrlEPAllowStatusStage	;wreg free
  9044  002260  EF60  F011         	goto	i2l341
  9045  002264                     i2l4771:
  9046                           
  9047                           ; BSR set to: 4
  9048                           ;usb_device.c: 1724:   {;usb_device.c: 1735:    controlTransferState = 2;
  9049  002264  0E02               	movlw	2
  9050  002266  6E27               	movwf	_controlTransferState^0,c	;volatile
  9051  002268                     
  9052                           ; BSR set to: 4
  9053                           ;usb_device.c: 1738:    pBDTEntryEP0OutNext->CNT = 32;
  9054  002268  EE20 F001          	lfsr	2,1
  9055  00226C  501B               	movf	_pBDTEntryEP0OutNext^0,w,c
  9056  00226E  26D9               	addwf	fsr2l,f,c
  9057  002270  501C               	movf	(_pBDTEntryEP0OutNext+1)^0,w,c
  9058  002272  22DA               	addwfc	fsr2h,f,c
  9059  002274  0E20               	movlw	32
  9060  002276  6EDF               	movwf	indf2,c
  9061  002278                     
  9062                           ; BSR set to: 4
  9063                           ;usb_device.c: 1739:    pBDTEntryEP0OutNext->ADR = ((uint16_t)(&SetupPkt));
  9064  002278  EE20 F002          	lfsr	2,2
  9065  00227C  501B               	movf	_pBDTEntryEP0OutNext^0,w,c
  9066  00227E  26D9               	addwf	fsr2l,f,c
  9067  002280  501C               	movf	(_pBDTEntryEP0OutNext+1)^0,w,c
  9068  002282  22DA               	addwfc	fsr2h,f,c
  9069  002284  0E30               	movlw	48
  9070  002286  6EDE               	movwf	postinc2,c
  9071  002288  0E04               	movlw	4
  9072  00228A  6EDD               	movwf	postdec2,c
  9073  00228C                     
  9074                           ; BSR set to: 4
  9075                           ;usb_device.c: 1740:    pBDTEntryEP0OutNext->STAT.Val = 0x04;
  9076  00228C  C01B  FFD9         	movff	_pBDTEntryEP0OutNext,fsr2l
  9077  002290  C01C  FFDA         	movff	_pBDTEntryEP0OutNext+1,fsr2h
  9078  002294  0E04               	movlw	4
  9079  002296  6EDF               	movwf	indf2,c
  9080  002298                     
  9081                           ; BSR set to: 4
  9082                           ;usb_device.c: 1741:             pBDTEntryEP0OutNext->STAT.Val |= 0x80;
  9083  002298  C01B  FFD9         	movff	_pBDTEntryEP0OutNext,fsr2l
  9084  00229C  C01C  FFDA         	movff	_pBDTEntryEP0OutNext+1,fsr2h
  9085  0022A0  0E00               	movlw	0
  9086  0022A2  8EDB               	bsf	plusw2,7,c
  9087  0022A4                     
  9088                           ; BSR set to: 4
  9089                           ;usb_device.c: 1744:             USBStatusStageEnabledFlag2 = 0;
  9090  0022A4  0E00               	movlw	0
  9091  0022A6  6E21               	movwf	_USBStatusStageEnabledFlag2^0,c	;volatile
  9092  0022A8                     
  9093                           ; BSR set to: 4
  9094                           ;usb_device.c: 1745:             USBStatusStageEnabledFlag1 = 0;
  9095  0022A8  0E00               	movlw	0
  9096  0022AA  6E22               	movwf	_USBStatusStageEnabledFlag1^0,c	;volatile
  9097  0022AC                     
  9098                           ; BSR set to: 4
  9099                           ;usb_device.c: 1746:    if(USBDeferStatusStagePacket == 0)
  9100  0022AC  5023               	movf	_USBDeferStatusStagePacket^0,w,c	;volatile
  9101  0022AE  A4D8               	btfss	status,2,c
  9102  0022B0  EF5C  F011         	goto	i2u402_41
  9103  0022B4  EF5E  F011         	goto	i2u402_40
  9104  0022B8                     i2u402_41:
  9105  0022B8  EF60  F011         	goto	i2l341
  9106  0022BC                     i2u402_40:
  9107  0022BC  EF2E  F011         	goto	i2l4769
  9108  0022C0                     i2l341:
  9109  0022C0  0012               	return		;funcret
  9110  0022C2                     __end_ofi2_USBCtrlEPServiceComplete:
  9111                           	opt callstack 0
  9112                           
  9113 ;; *************** function i2_USBCtrlEPAllowDataStage *****************
  9114 ;; Defined at:
  9115 ;;		line 1494 in file "usb_device.c"
  9116 ;; Parameters:    Size  Location     Type
  9117 ;;		None
  9118 ;; Auto vars:     Size  Location     Type
  9119 ;;		None
  9120 ;; Return value:  Size  Location     Type
  9121 ;;                  1    wreg      void 
  9122 ;; Registers used:
  9123 ;;		wreg, fsr1l, fsr1h, fsr2l, fsr2h, status,2, status,0, tblptrl, tblptrh, tblptru, cstack
  9124 ;; Tracked objects:
  9125 ;;		On entry : 0/0
  9126 ;;		On exit  : 0/0
  9127 ;;		Unchanged: 0/0
  9128 ;; Data sizes:     COMRAM   BANK0   BANK1   BANK2   BANK3  BANK4h  BANK4l   BANK5   BANK6   BANK7
  9129 ;;      Params:         0       0       0       0       0       0       0       0       0       0
  9130 ;;      Locals:         0       0       0       0       0       0       0       0       0       0
  9131 ;;      Temps:          0       0       0       0       0       0       0       0       0       0
  9132 ;;      Totals:         0       0       0       0       0       0       0       0       0       0
  9133 ;;Total ram usage:        0 bytes
  9134 ;; Hardware stack levels used:    1
  9135 ;; Hardware stack levels required when called:    1
  9136 ;; This function calls:
  9137 ;;		i2_USBCtrlTrfTxService
  9138 ;; This function is called by:
  9139 ;;		i2_USBCtrlEPServiceComplete
  9140 ;; This function uses a non-reentrant model
  9141 ;;
  9142                           
  9143                           	psect	text49
  9144  003648                     __ptext49:
  9145                           	opt callstack 0
  9146  003648                     i2_USBCtrlEPAllowDataStage:
  9147                           	opt callstack 14
  9148  003648                     
  9149                           ;usb_device.c: 1496:     USBDeferINDataStagePackets = 0;
  9150  003648  0E00               	movlw	0
  9151  00364A  6E20               	movwf	_USBDeferINDataStagePackets^0,c	;volatile
  9152                           
  9153                           ;usb_device.c: 1497:     USBDeferOUTDataStagePackets = 0;
  9154  00364C  0E00               	movlw	0
  9155  00364E  0100               	movlb	0	; () banked
  9156  003650  6FC9               	movwf	_USBDeferOUTDataStagePackets& (0+255),b	;volatile
  9157  003652                     
  9158                           ; BSR set to: 0
  9159                           ;usb_device.c: 1499:     if(controlTransferState == 2)
  9160  003652  0E02               	movlw	2
  9161  003654  1827               	xorwf	_controlTransferState^0,w,c	;volatile
  9162  003656  A4D8               	btfss	status,2,c
  9163  003658  EF30  F01B         	goto	i2u326_41
  9164  00365C  EF32  F01B         	goto	i2u326_40
  9165  003660                     i2u326_41:
  9166  003660  EF52  F01B         	goto	i2l4283
  9167  003664                     i2u326_40:
  9168  003664                     
  9169                           ; BSR set to: 0
  9170                           ;usb_device.c: 1500:     {;usb_device.c: 1502:         pBDTEntryEP0OutNext->CNT = 32;
  9171  003664  EE20 F001          	lfsr	2,1
  9172  003668  501B               	movf	_pBDTEntryEP0OutNext^0,w,c
  9173  00366A  26D9               	addwf	fsr2l,f,c
  9174  00366C  501C               	movf	(_pBDTEntryEP0OutNext+1)^0,w,c
  9175  00366E  22DA               	addwfc	fsr2h,f,c
  9176  003670  0E20               	movlw	32
  9177  003672  6EDF               	movwf	indf2,c
  9178                           
  9179                           ;usb_device.c: 1503:         pBDTEntryEP0OutNext->ADR = ((uint16_t)(&CtrlTrfData));
  9180  003674  EE20 F002          	lfsr	2,2
  9181  003678  501B               	movf	_pBDTEntryEP0OutNext^0,w,c
  9182  00367A  26D9               	addwf	fsr2l,f,c
  9183  00367C  501C               	movf	(_pBDTEntryEP0OutNext+1)^0,w,c
  9184  00367E  22DA               	addwfc	fsr2h,f,c
  9185  003680  0E50               	movlw	80
  9186  003682  6EDE               	movwf	postinc2,c
  9187  003684  0E04               	movlw	4
  9188  003686  6EDD               	movwf	postdec2,c
  9189  003688                     
  9190                           ; BSR set to: 0
  9191                           ;usb_device.c: 1504:         pBDTEntryEP0OutNext->STAT.Val = 0x40|(0x08 & 0x08);
  9192  003688  C01B  FFD9         	movff	_pBDTEntryEP0OutNext,fsr2l
  9193  00368C  C01C  FFDA         	movff	_pBDTEntryEP0OutNext+1,fsr2h
  9194  003690  0E48               	movlw	72
  9195  003692  6EDF               	movwf	indf2,c
  9196  003694                     
  9197                           ; BSR set to: 0
  9198                           ;usb_device.c: 1505:         pBDTEntryEP0OutNext->STAT.Val |= 0x80;
  9199  003694  C01B  FFD9         	movff	_pBDTEntryEP0OutNext,fsr2l
  9200  003698  C01C  FFDA         	movff	_pBDTEntryEP0OutNext+1,fsr2h
  9201  00369C  0E00               	movlw	0
  9202  00369E  8EDB               	bsf	plusw2,7,c
  9203                           
  9204                           ;usb_device.c: 1506:     }
  9205  0036A0  EF7A  F01B         	goto	i2l323
  9206  0036A4                     i2l4283:
  9207                           
  9208                           ; BSR set to: 0
  9209                           ;usb_device.c: 1508:     {;usb_device.c: 1511:   if(SetupPkt.wLength < inPipes[0].wCount
      +                          .Val)
  9210  0036A4  500D               	movf	(_inPipes+4)^0,w,c	;volatile
  9211  0036A6  0104               	movlb	4	; () banked
  9212  0036A8  5D36               	subwf	54,w,b	;volatile
  9213  0036AA  500E               	movf	(_inPipes+5)^0,w,c	;volatile
  9214  0036AC  5937               	subwfb	55,w,b	;volatile
  9215  0036AE  B0D8               	btfsc	status,0,c
  9216  0036B0  EF5C  F01B         	goto	i2u327_41
  9217  0036B4  EF5E  F01B         	goto	i2u327_40
  9218  0036B8                     i2u327_41:
  9219  0036B8  EF62  F01B         	goto	i2l4287
  9220  0036BC                     i2u327_40:
  9221  0036BC                     
  9222                           ; BSR set to: 4
  9223                           ;usb_device.c: 1512:   {;usb_device.c: 1513:    inPipes[0].wCount.Val = SetupPkt.wLength
      +                          ;
  9224  0036BC  C436 F00D          	movff	1078,_inPipes+4	;volatile
  9225  0036C0  C437 F00E          	movff	1079,_inPipes+5	;volatile
  9226  0036C4                     i2l4287:
  9227                           
  9228                           ; BSR set to: 4
  9229                           ;usb_device.c: 1515:   USBCtrlTrfTxService();
  9230  0036C4  EC48  F014         	call	i2_USBCtrlTrfTxService	;wreg free
  9231  0036C8                     
  9232                           ;usb_device.c: 1520:   pBDTEntryIn[0]->ADR = ((uint16_t)(&CtrlTrfData));
  9233  0036C8  EE20 F002          	lfsr	2,2
  9234  0036CC  500F               	movf	_pBDTEntryIn^0,w,c
  9235  0036CE  26D9               	addwf	fsr2l,f,c
  9236  0036D0  5010               	movf	(_pBDTEntryIn+1)^0,w,c
  9237  0036D2  22DA               	addwfc	fsr2h,f,c
  9238  0036D4  0E50               	movlw	80
  9239  0036D6  6EDE               	movwf	postinc2,c
  9240  0036D8  0E04               	movlw	4
  9241  0036DA  6EDD               	movwf	postdec2,c
  9242  0036DC                     
  9243                           ;usb_device.c: 1521:   pBDTEntryIn[0]->STAT.Val = 0x40|(0x08 & 0x08);
  9244  0036DC  C00F  FFD9         	movff	_pBDTEntryIn,fsr2l
  9245  0036E0  C010  FFDA         	movff	_pBDTEntryIn+1,fsr2h
  9246  0036E4  0E48               	movlw	72
  9247  0036E6  6EDF               	movwf	indf2,c
  9248  0036E8                     
  9249                           ;usb_device.c: 1522:         pBDTEntryIn[0]->STAT.Val |= 0x80;
  9250  0036E8  C00F  FFD9         	movff	_pBDTEntryIn,fsr2l
  9251  0036EC  C010  FFDA         	movff	_pBDTEntryIn+1,fsr2h
  9252  0036F0  0E00               	movlw	0
  9253  0036F2  8EDB               	bsf	plusw2,7,c
  9254  0036F4                     i2l323:
  9255  0036F4  0012               	return		;funcret
  9256  0036F6                     __end_ofi2_USBCtrlEPAllowDataStage:
  9257                           	opt callstack 0
  9258                           
  9259 ;; *************** function i2_USBCheckStdRequest *****************
  9260 ;; Defined at:
  9261 ;;		line 2692 in file "usb_device.c"
  9262 ;; Parameters:    Size  Location     Type
  9263 ;;		None
  9264 ;; Auto vars:     Size  Location     Type
  9265 ;;		None
  9266 ;; Return value:  Size  Location     Type
  9267 ;;                  1    wreg      void 
  9268 ;; Registers used:
  9269 ;;		wreg, fsr1l, fsr1h, fsr2l, fsr2h, status,2, status,0, tblptrl, tblptrh, tblptru, prodl, prodh, cstack
  9270 ;; Tracked objects:
  9271 ;;		On entry : 0/0
  9272 ;;		On exit  : 0/0
  9273 ;;		Unchanged: 0/0
  9274 ;; Data sizes:     COMRAM   BANK0   BANK1   BANK2   BANK3  BANK4h  BANK4l   BANK5   BANK6   BANK7
  9275 ;;      Params:         0       0       0       0       0       0       0       0       0       0
  9276 ;;      Locals:         0       0       0       0       0       0       0       0       0       0
  9277 ;;      Temps:          2       0       0       0       0       0       0       0       0       0
  9278 ;;      Totals:         2       0       0       0       0       0       0       0       0       0
  9279 ;;Total ram usage:        2 bytes
  9280 ;; Hardware stack levels used:    1
  9281 ;; Hardware stack levels required when called:    5
  9282 ;; This function calls:
  9283 ;;		i2_USBStdFeatureReqHandler
  9284 ;;		i2_USBStdGetDscHandler
  9285 ;;		i2_USBStdGetStatusHandler
  9286 ;;		i2_USBStdSetCfgHandler
  9287 ;;		i2_USER_USB_CALLBACK_EVENT_HANDLER
  9288 ;; This function is called by:
  9289 ;;		i2_USBCtrlTrfSetupHandler
  9290 ;; This function uses a non-reentrant model
  9291 ;;
  9292                           
  9293                           	psect	text50
  9294  002664                     __ptext50:
  9295                           	opt callstack 0
  9296  002664                     i2_USBCheckStdRequest:
  9297                           	opt callstack 11
  9298  002664                     
  9299                           ;usb_device.c: 2694:     if(SetupPkt.RequestType != (0x00>>5)) return;
  9300  002664  0104               	movlb	4	; () banked
  9301  002666  3930               	swapf	48,w,b	;volatile
  9302  002668  32E8               	rrcf	wreg,f,c
  9303  00266A  0B03               	andlw	3
  9304  00266C  0900               	iorlw	0
  9305  00266E  B4D8               	btfsc	status,2,c
  9306  002670  EF3C  F013         	goto	i2u408_41
  9307  002674  EF3E  F013         	goto	i2u408_40
  9308  002678                     i2u408_41:
  9309  002678  EF86  F013         	goto	i2l4869
  9310  00267C                     i2u408_40:
  9311  00267C  EFBF  F013         	goto	i2l454
  9312  002680                     i2l456:
  9313                           
  9314                           ; BSR set to: 4
  9315                           ;usb_device.c: 2699:             inPipes[0].info.bits.busy = 1;
  9316  002680  8E0C               	bsf	(_inPipes+3)^0,7,c	;volatile
  9317  002682                     
  9318                           ; BSR set to: 4
  9319                           ;usb_device.c: 2700:             USBDeviceState = ADR_PENDING_STATE;
  9320  002682  0E08               	movlw	8
  9321  002684  6E29               	movwf	_USBDeviceState^0,c	;volatile
  9322                           
  9323                           ;usb_device.c: 2702:             break;
  9324  002686  EFBF  F013         	goto	i2l454
  9325  00268A                     i2l4839:
  9326                           
  9327                           ; BSR set to: 4
  9328                           ;usb_device.c: 2704:             USBStdGetDscHandler();
  9329  00268A  ECE0  F00C         	call	i2_USBStdGetDscHandler	;wreg free
  9330                           
  9331                           ;usb_device.c: 2705:             break;
  9332  00268E  EFBF  F013         	goto	i2l454
  9333  002692                     i2l4841:
  9334                           
  9335                           ; BSR set to: 4
  9336                           ;usb_device.c: 2707:             USBStdSetCfgHandler();
  9337  002692  EC48  F019         	call	i2_USBStdSetCfgHandler	;wreg free
  9338                           
  9339                           ;usb_device.c: 2708:             break;
  9340  002696  EFBF  F013         	goto	i2l454
  9341  00269A                     i2l4843:
  9342                           
  9343                           ; BSR set to: 4
  9344                           ;usb_device.c: 2710:             inPipes[0].pSrc.bRam = (uint8_t*)&USBActiveConfiguratio
      +                          n;
  9345  00269A  0E2A               	movlw	low _USBActiveConfiguration
  9346  00269C  6E09               	movwf	_inPipes^0,c	;volatile
  9347  00269E  0E00               	movlw	high _USBActiveConfiguration
  9348  0026A0  6E0A               	movwf	(_inPipes+1)^0,c	;volatile
  9349  0026A2                     
  9350                           ; BSR set to: 4
  9351                           ;usb_device.c: 2711:             inPipes[0].info.bits.ctrl_trf_mem = 0x01;
  9352  0026A2  800C               	bsf	(_inPipes+3)^0,0,c	;volatile
  9353  0026A4                     
  9354                           ; BSR set to: 4
  9355                           ;usb_device.c: 2712:             inPipes[0].wCount.v[0] = 1;
  9356  0026A4  0E01               	movlw	1
  9357  0026A6  6E0D               	movwf	(_inPipes+4)^0,c	;volatile
  9358  0026A8                     
  9359                           ; BSR set to: 4
  9360                           ;usb_device.c: 2713:             inPipes[0].info.bits.busy = 1;
  9361  0026A8  8E0C               	bsf	(_inPipes+3)^0,7,c	;volatile
  9362                           
  9363                           ;usb_device.c: 2714:             break;
  9364  0026AA  EFBF  F013         	goto	i2l454
  9365  0026AE                     i2l4851:
  9366                           
  9367                           ; BSR set to: 4
  9368                           ;usb_device.c: 2716:             USBStdGetStatusHandler();
  9369  0026AE  ECDF  F016         	call	i2_USBStdGetStatusHandler	;wreg free
  9370                           
  9371                           ;usb_device.c: 2717:             break;
  9372  0026B2  EFBF  F013         	goto	i2l454
  9373  0026B6                     i2l4853:
  9374                           
  9375                           ; BSR set to: 4
  9376                           ;usb_device.c: 2720:             USBStdFeatureReqHandler();
  9377  0026B6  EC16  F006         	call	i2_USBStdFeatureReqHandler	;wreg free
  9378                           
  9379                           ;usb_device.c: 2721:             break;
  9380  0026BA  EFBF  F013         	goto	i2l454
  9381  0026BE                     i2l4855:
  9382                           
  9383                           ; BSR set to: 4
  9384                           ;usb_device.c: 2723:             inPipes[0].pSrc.bRam = (uint8_t*)&USBAlternateInterface
      +                          [SetupPkt.bIntfID];
  9385  0026BE  0EDC               	movlw	low _USBAlternateInterface
  9386  0026C0  2534               	addwf	52,w,b	;volatile
  9387  0026C2  6E09               	movwf	_inPipes^0,c	;volatile
  9388  0026C4  6A0A               	clrf	(_inPipes+1)^0,c	;volatile
  9389  0026C6  0E00               	movlw	high _USBAlternateInterface
  9390  0026C8  220A               	addwfc	(_inPipes+1)^0,f,c	;volatile
  9391  0026CA                     
  9392                           ; BSR set to: 4
  9393                           ;usb_device.c: 2724:             inPipes[0].info.bits.ctrl_trf_mem = 0x01;
  9394  0026CA  800C               	bsf	(_inPipes+3)^0,0,c	;volatile
  9395  0026CC                     
  9396                           ; BSR set to: 4
  9397                           ;usb_device.c: 2725:             inPipes[0].wCount.v[0] = 1;
  9398  0026CC  0E01               	movlw	1
  9399  0026CE  6E0D               	movwf	(_inPipes+4)^0,c	;volatile
  9400  0026D0                     
  9401                           ; BSR set to: 4
  9402                           ;usb_device.c: 2726:             inPipes[0].info.bits.busy = 1;
  9403  0026D0  8E0C               	bsf	(_inPipes+3)^0,7,c	;volatile
  9404                           
  9405                           ;usb_device.c: 2727:             break;
  9406  0026D2  EFBF  F013         	goto	i2l454
  9407  0026D6                     i2l465:
  9408                           
  9409                           ; BSR set to: 4
  9410                           ;usb_device.c: 2729:             inPipes[0].info.bits.busy = 1;
  9411  0026D6  8E0C               	bsf	(_inPipes+3)^0,7,c	;volatile
  9412  0026D8                     
  9413                           ; BSR set to: 4
  9414                           ;usb_device.c: 2730:             USBAlternateInterface[SetupPkt.bIntfID] = SetupPkt.bAlt
      +                          ID;
  9415  0026D8  0EDC               	movlw	low _USBAlternateInterface
  9416  0026DA  2534               	addwf	52,w,b	;volatile
  9417  0026DC  6ED9               	movwf	fsr2l,c
  9418  0026DE  6ADA               	clrf	fsr2h,c
  9419  0026E0  0E00               	movlw	high _USBAlternateInterface
  9420  0026E2  22DA               	addwfc	fsr2h,f,c
  9421  0026E4  C432 FFDF          	movff	1074,indf2	;volatile
  9422                           
  9423                           ;usb_device.c: 2731:             break;
  9424  0026E8  EFBF  F013         	goto	i2l454
  9425  0026EC                     i2l4865:
  9426                           
  9427                           ; BSR set to: 4
  9428                           ;usb_device.c: 2733:             USER_USB_CALLBACK_EVENT_HANDLER((USB_EVENT)EVENT_SET_DE
      +                          SCRIPTOR,0,0);
  9429  0026EC  0E00               	movlw	0
  9430  0026EE  6E38               	movwf	(i2USER_USB_CALLBACK_EVENT_HANDLER@event+1)^0,c
  9431  0026F0  0E02               	movlw	2
  9432  0026F2  6E37               	movwf	i2USER_USB_CALLBACK_EVENT_HANDLER@event^0,c
  9433  0026F4  0E00               	movlw	0
  9434  0026F6  6E39               	movwf	i2USER_USB_CALLBACK_EVENT_HANDLER@pdata^0,c
  9435  0026F8  0E00               	movlw	0
  9436  0026FA  6E3A               	movwf	(i2USER_USB_CALLBACK_EVENT_HANDLER@pdata+1)^0,c
  9437  0026FC  0E00               	movlw	0
  9438  0026FE  6E3C               	movwf	(i2USER_USB_CALLBACK_EVENT_HANDLER@size+1)^0,c
  9439  002700  0E00               	movlw	0
  9440  002702  6E3B               	movwf	i2USER_USB_CALLBACK_EVENT_HANDLER@size^0,c
  9441  002704  ECA7  F01C         	call	i2_USER_USB_CALLBACK_EVENT_HANDLER	;wreg free
  9442                           
  9443                           ;usb_device.c: 2734:             break;
  9444  002708  EFBF  F013         	goto	i2l454
  9445  00270C                     i2l4869:
  9446                           
  9447                           ; BSR set to: 4
  9448  00270C  5131               	movf	49,w,b	;volatile
  9449  00270E  6E46               	movwf	??i2_USBCheckStdRequest^0,c
  9450  002710  6A47               	clrf	(??i2_USBCheckStdRequest+1)^0,c
  9451                           
  9452                           ; Switch on 2 bytes has been partitioned into a top level switch of size 1, and 1 sub-sw
      +                          itches
  9453                           ; Switch size 1, requested type "simple"
  9454                           ; Number of cases is 1, Range of values is 0 to 0
  9455                           ; switch strategies available:
  9456                           ; Name         Instructions Cycles
  9457                           ; simple_byte            4     3 (average)
  9458                           ;	Chosen strategy is simple_byte
  9459  002712  5047               	movf	(??i2_USBCheckStdRequest+1)^0,w,c
  9460  002714  0A00               	xorlw	0	; case 0
  9461  002716  B4D8               	btfsc	status,2,c
  9462  002718  EF90  F013         	goto	i2l7749
  9463  00271C  EFBF  F013         	goto	i2l454
  9464  002720                     i2l7749:
  9465                           
  9466                           ; BSR set to: 4
  9467                           ; Switch size 1, requested type "simple"
  9468                           ; Number of cases is 11, Range of values is 0 to 12
  9469                           ; switch strategies available:
  9470                           ; Name         Instructions Cycles
  9471                           ; simple_byte           34    18 (average)
  9472                           ;	Chosen strategy is simple_byte
  9473  002720  5046               	movf	??i2_USBCheckStdRequest^0,w,c
  9474  002722  0A00               	xorlw	0	; case 0
  9475  002724  B4D8               	btfsc	status,2,c
  9476  002726  EF57  F013         	goto	i2l4851
  9477  00272A  0A01               	xorlw	1	; case 1
  9478  00272C  B4D8               	btfsc	status,2,c
  9479  00272E  EF5B  F013         	goto	i2l4853
  9480  002732  0A02               	xorlw	2	; case 3
  9481  002734  B4D8               	btfsc	status,2,c
  9482  002736  EF5B  F013         	goto	i2l4853
  9483  00273A  0A06               	xorlw	6	; case 5
  9484  00273C  B4D8               	btfsc	status,2,c
  9485  00273E  EF40  F013         	goto	i2l456
  9486  002742  0A03               	xorlw	3	; case 6
  9487  002744  B4D8               	btfsc	status,2,c
  9488  002746  EF45  F013         	goto	i2l4839
  9489  00274A  0A01               	xorlw	1	; case 7
  9490  00274C  B4D8               	btfsc	status,2,c
  9491  00274E  EF76  F013         	goto	i2l4865
  9492  002752  0A0F               	xorlw	15	; case 8
  9493  002754  B4D8               	btfsc	status,2,c
  9494  002756  EF4D  F013         	goto	i2l4843
  9495  00275A  0A01               	xorlw	1	; case 9
  9496  00275C  B4D8               	btfsc	status,2,c
  9497  00275E  EF49  F013         	goto	i2l4841
  9498  002762  0A03               	xorlw	3	; case 10
  9499  002764  B4D8               	btfsc	status,2,c
  9500  002766  EF5F  F013         	goto	i2l4855
  9501  00276A  0A01               	xorlw	1	; case 11
  9502  00276C  B4D8               	btfsc	status,2,c
  9503  00276E  EF6B  F013         	goto	i2l465
  9504  002772  0A07               	xorlw	7	; case 12
  9505  002774  B4D8               	btfsc	status,2,c
  9506  002776  EFBF  F013         	goto	i2l454
  9507  00277A  EFBF  F013         	goto	i2l454
  9508  00277E                     i2l454:
  9509  00277E  0012               	return		;funcret
  9510  002780                     __end_ofi2_USBCheckStdRequest:
  9511                           	opt callstack 0
  9512                           
  9513 ;; *************** function i2_USBStdSetCfgHandler *****************
  9514 ;; Defined at:
  9515 ;;		line 1974 in file "usb_device.c"
  9516 ;; Parameters:    Size  Location     Type
  9517 ;;		None
  9518 ;; Auto vars:     Size  Location     Type
  9519 ;;  USBStdSetCfg    1   20[COMRAM] unsigned char 
  9520 ;; Return value:  Size  Location     Type
  9521 ;;                  1    wreg      void 
  9522 ;; Registers used:
  9523 ;;		wreg, fsr2l, fsr2h, status,2, status,0, prodl, prodh, cstack
  9524 ;; Tracked objects:
  9525 ;;		On entry : 0/0
  9526 ;;		On exit  : 0/0
  9527 ;;		Unchanged: 0/0
  9528 ;; Data sizes:     COMRAM   BANK0   BANK1   BANK2   BANK3  BANK4h  BANK4l   BANK5   BANK6   BANK7
  9529 ;;      Params:         0       0       0       0       0       0       0       0       0       0
  9530 ;;      Locals:         1       0       0       0       0       0       0       0       0       0
  9531 ;;      Temps:          0       0       0       0       0       0       0       0       0       0
  9532 ;;      Totals:         1       0       0       0       0       0       0       0       0       0
  9533 ;;Total ram usage:        1 bytes
  9534 ;; Hardware stack levels used:    1
  9535 ;; Hardware stack levels required when called:    4
  9536 ;; This function calls:
  9537 ;;		i2_USER_USB_CALLBACK_EVENT_HANDLER
  9538 ;;		i2_memset
  9539 ;; This function is called by:
  9540 ;;		i2_USBCheckStdRequest
  9541 ;; This function uses a non-reentrant model
  9542 ;;
  9543                           
  9544                           	psect	text51
  9545  003290                     __ptext51:
  9546                           	opt callstack 0
  9547  003290                     i2_USBStdSetCfgHandler:
  9548                           	opt callstack 11
  9549  003290                     
  9550                           ;usb_device.c: 1976:     uint8_t i;;usb_device.c: 1979:     inPipes[0].info.bits.busy = 
      +                          1;
  9551  003290  8E0C               	bsf	(_inPipes+3)^0,7,c	;volatile
  9552  003292                     
  9553                           ;usb_device.c: 1982:     memset((void*)&UEP1,0x00,(2));;
  9554  003292  0E71               	movlw	113
  9555  003294  6E2B               	movwf	i2memset@dest^0,c
  9556  003296  0E0F               	movlw	15
  9557  003298  6E2C               	movwf	(i2memset@dest+1)^0,c
  9558  00329A  0E00               	movlw	0
  9559  00329C  6E2E               	movwf	(i2memset@c+1)^0,c
  9560  00329E  0E00               	movlw	0
  9561  0032A0  6E2D               	movwf	i2memset@c^0,c
  9562  0032A2  0E00               	movlw	0
  9563  0032A4  6E30               	movwf	(i2memset@n+1)^0,c
  9564  0032A6  0E02               	movlw	2
  9565  0032A8  6E2F               	movwf	i2memset@n^0,c
  9566  0032AA  EC6F  F00B         	call	i2_memset	;wreg free
  9567                           
  9568                           ;usb_device.c: 1985:     memset((void*)&BDT[0], 0x00, sizeof(BDT));
  9569  0032AE  0E00               	movlw	0
  9570  0032B0  6E2B               	movwf	i2memset@dest^0,c
  9571  0032B2  0E04               	movlw	4
  9572  0032B4  6E2C               	movwf	(i2memset@dest+1)^0,c
  9573  0032B6  0E00               	movlw	0
  9574  0032B8  6E2E               	movwf	(i2memset@c+1)^0,c
  9575  0032BA  0E00               	movlw	0
  9576  0032BC  6E2D               	movwf	i2memset@c^0,c
  9577  0032BE  0E00               	movlw	0
  9578  0032C0  6E30               	movwf	(i2memset@n+1)^0,c
  9579  0032C2  0E30               	movlw	48
  9580  0032C4  6E2F               	movwf	i2memset@n^0,c
  9581  0032C6  EC6F  F00B         	call	i2_memset	;wreg free
  9582  0032CA                     
  9583                           ;usb_device.c: 1988:     UCONbits.PPBRST = 1;
  9584  0032CA  8C6D               	bsf	109,6,c	;volatile
  9585  0032CC                     
  9586                           ;usb_device.c: 1993:  for(i = 0; i < (uint8_t)(2 +1u); i++)
  9587  0032CC  0E00               	movlw	0
  9588  0032CE  6E3F               	movwf	i2USBStdSetCfgHandler@i^0,c
  9589  0032D0                     i2l4307:
  9590                           
  9591                           ;usb_device.c: 1994:  {;usb_device.c: 1995:   ep_data_in[i].Val = 0u;
  9592  0032D0  0E18               	movlw	low _ep_data_in
  9593  0032D2  243F               	addwf	i2USBStdSetCfgHandler@i^0,w,c
  9594  0032D4  6ED9               	movwf	fsr2l,c
  9595  0032D6  6ADA               	clrf	fsr2h,c
  9596  0032D8  0E00               	movlw	high _ep_data_in
  9597  0032DA  22DA               	addwfc	fsr2h,f,c
  9598  0032DC  0E00               	movlw	0
  9599  0032DE  6EDF               	movwf	indf2,c
  9600                           
  9601                           ;usb_device.c: 1996:         ep_data_out[i].Val = 0u;
  9602  0032E0  0E15               	movlw	low _ep_data_out
  9603  0032E2  243F               	addwf	i2USBStdSetCfgHandler@i^0,w,c
  9604  0032E4  6ED9               	movwf	fsr2l,c
  9605  0032E6  6ADA               	clrf	fsr2h,c
  9606  0032E8  0E00               	movlw	high _ep_data_out
  9607  0032EA  22DA               	addwfc	fsr2h,f,c
  9608  0032EC  0E00               	movlw	0
  9609  0032EE  6EDF               	movwf	indf2,c
  9610  0032F0                     
  9611                           ;usb_device.c: 1997:  }
  9612  0032F0  2A3F               	incf	i2USBStdSetCfgHandler@i^0,f,c
  9613  0032F2  0E02               	movlw	2
  9614  0032F4  643F               	cpfsgt	i2USBStdSetCfgHandler@i^0,c
  9615  0032F6  EF7F  F019         	goto	i2u328_41
  9616  0032FA  EF81  F019         	goto	i2u328_40
  9617  0032FE                     i2u328_41:
  9618  0032FE  EF68  F019         	goto	i2l4307
  9619  003302                     i2u328_40:
  9620  003302                     
  9621                           ;usb_device.c: 2000:     memset((void*)&USBAlternateInterface,0x00,2);
  9622  003302  0EDC               	movlw	low _USBAlternateInterface
  9623  003304  6E2B               	movwf	i2memset@dest^0,c
  9624  003306  0E00               	movlw	high _USBAlternateInterface
  9625  003308  6E2C               	movwf	(i2memset@dest+1)^0,c
  9626  00330A  0E00               	movlw	0
  9627  00330C  6E2E               	movwf	(i2memset@c+1)^0,c
  9628  00330E  0E00               	movlw	0
  9629  003310  6E2D               	movwf	i2memset@c^0,c
  9630  003312  0E00               	movlw	0
  9631  003314  6E30               	movwf	(i2memset@n+1)^0,c
  9632  003316  0E02               	movlw	2
  9633  003318  6E2F               	movwf	i2memset@n^0,c
  9634  00331A  EC6F  F00B         	call	i2_memset	;wreg free
  9635  00331E                     
  9636                           ;usb_device.c: 2003:     UCONbits.PPBRST = 0;
  9637  00331E  9C6D               	bcf	109,6,c	;volatile
  9638  003320                     
  9639                           ;usb_device.c: 2005:     pBDTEntryIn[0] = (volatile BDT_ENTRY*)&BDT[2];
  9640  003320  0E08               	movlw	8
  9641  003322  6E0F               	movwf	_pBDTEntryIn^0,c
  9642  003324  0E04               	movlw	4
  9643  003326  6E10               	movwf	(_pBDTEntryIn+1)^0,c
  9644  003328                     
  9645                           ;usb_device.c: 2008:     pBDTEntryEP0OutCurrent = (volatile BDT_ENTRY*)&BDT[0];
  9646  003328  0E00               	movlw	0
  9647  00332A  6E1D               	movwf	_pBDTEntryEP0OutCurrent^0,c
  9648  00332C  0E04               	movlw	4
  9649  00332E  6E1E               	movwf	(_pBDTEntryEP0OutCurrent+1)^0,c
  9650  003330                     
  9651                           ;usb_device.c: 2009:     pBDTEntryEP0OutNext = pBDTEntryEP0OutCurrent;
  9652  003330  C01D  F01B         	movff	_pBDTEntryEP0OutCurrent,_pBDTEntryEP0OutNext
  9653  003334  C01E  F01C         	movff	_pBDTEntryEP0OutCurrent+1,_pBDTEntryEP0OutNext+1
  9654  003338                     
  9655                           ;usb_device.c: 2012:     USBActiveConfiguration = SetupPkt.bConfigurationValue;
  9656  003338  C432 F02A          	movff	1074,_USBActiveConfiguration	;volatile
  9657  00333C                     
  9658                           ;usb_device.c: 2015:     if(USBActiveConfiguration == 0)
  9659  00333C  502A               	movf	_USBActiveConfiguration^0,w,c	;volatile
  9660  00333E  A4D8               	btfss	status,2,c
  9661  003340  EFA4  F019         	goto	i2u329_41
  9662  003344  EFA6  F019         	goto	i2u329_40
  9663  003348                     i2u329_41:
  9664  003348  EFAA  F019         	goto	i2l4329
  9665  00334C                     i2u329_40:
  9666  00334C                     
  9667                           ;usb_device.c: 2016:     {;usb_device.c: 2018:         USBDeviceState = ADDRESS_STATE;
  9668  00334C  0E10               	movlw	16
  9669  00334E  6E29               	movwf	_USBDeviceState^0,c	;volatile
  9670                           
  9671                           ;usb_device.c: 2019:     }
  9672  003350  EFBA  F019         	goto	i2l376
  9673  003354                     i2l4329:
  9674                           
  9675                           ;usb_device.c: 2021:     {;usb_device.c: 2023:         USER_USB_CALLBACK_EVENT_HANDLER((
      +                          USB_EVENT)EVENT_CONFIGURED,(void*)&USBActiveConfiguration,1);
  9676  003354  0E00               	movlw	0
  9677  003356  6E38               	movwf	(i2USER_USB_CALLBACK_EVENT_HANDLER@event+1)^0,c
  9678  003358  0E01               	movlw	1
  9679  00335A  6E37               	movwf	i2USER_USB_CALLBACK_EVENT_HANDLER@event^0,c
  9680  00335C  0E2A               	movlw	low _USBActiveConfiguration
  9681  00335E  6E39               	movwf	i2USER_USB_CALLBACK_EVENT_HANDLER@pdata^0,c
  9682  003360  0E00               	movlw	high _USBActiveConfiguration
  9683  003362  6E3A               	movwf	(i2USER_USB_CALLBACK_EVENT_HANDLER@pdata+1)^0,c
  9684  003364  0E00               	movlw	0
  9685  003366  6E3C               	movwf	(i2USER_USB_CALLBACK_EVENT_HANDLER@size+1)^0,c
  9686  003368  0E01               	movlw	1
  9687  00336A  6E3B               	movwf	i2USER_USB_CALLBACK_EVENT_HANDLER@size^0,c
  9688  00336C  ECA7  F01C         	call	i2_USER_USB_CALLBACK_EVENT_HANDLER	;wreg free
  9689  003370                     
  9690                           ;usb_device.c: 2028:         USBDeviceState = CONFIGURED_STATE;
  9691  003370  0E20               	movlw	32
  9692  003372  6E29               	movwf	_USBDeviceState^0,c	;volatile
  9693  003374                     i2l376:
  9694  003374  0012               	return		;funcret
  9695  003376                     __end_ofi2_USBStdSetCfgHandler:
  9696                           	opt callstack 0
  9697                           
  9698 ;; *************** function i2_memset *****************
  9699 ;; Defined at:
  9700 ;;		line 4 in file "C:\Program Files (x86)\Microchip\xc8\v2.10\pic\sources\c99\common\memset.c"
  9701 ;; Parameters:    Size  Location     Type
  9702 ;;  dest            2    0[COMRAM] PTR void 
  9703 ;;		 -> USBAlternateInterface(2), BDT(48), UEP1(1), 
  9704 ;;  c               2    2[COMRAM] int 
  9705 ;;  n               2    4[COMRAM] unsigned int 
  9706 ;; Auto vars:     Size  Location     Type
  9707 ;;  memset          2   10[COMRAM] PTR unsigned char 
  9708 ;;		 -> USBAlternateInterface(2), BDT(48), UEP1(1), 
  9709 ;;  memset          2    8[COMRAM] unsigned int 
  9710 ;; Return value:  Size  Location     Type
  9711 ;;                  2    0[COMRAM] PTR void 
  9712 ;; Registers used:
  9713 ;;		wreg, fsr2l, fsr2h, status,2, status,0
  9714 ;; Tracked objects:
  9715 ;;		On entry : 0/0
  9716 ;;		On exit  : 0/0
  9717 ;;		Unchanged: 0/0
  9718 ;; Data sizes:     COMRAM   BANK0   BANK1   BANK2   BANK3  BANK4h  BANK4l   BANK5   BANK6   BANK7
  9719 ;;      Params:         6       0       0       0       0       0       0       0       0       0
  9720 ;;      Locals:         4       0       0       0       0       0       0       0       0       0
  9721 ;;      Temps:          2       0       0       0       0       0       0       0       0       0
  9722 ;;      Totals:        12       0       0       0       0       0       0       0       0       0
  9723 ;;Total ram usage:       12 bytes
  9724 ;; Hardware stack levels used:    1
  9725 ;; This function calls:
  9726 ;;		Nothing
  9727 ;; This function is called by:
  9728 ;;		i2_USBDeviceInit
  9729 ;;		i2_USBStdSetCfgHandler
  9730 ;; This function uses a non-reentrant model
  9731 ;;
  9732                           
  9733                           	psect	text52
  9734  0016DE                     __ptext52:
  9735                           	opt callstack 0
  9736  0016DE                     i2_memset:
  9737                           	opt callstack 17
  9738  0016DE  C02B  F035         	movff	i2memset@dest,i2memset@s
  9739  0016E2  C02C  F036         	movff	i2memset@dest+1,i2memset@s+1
  9740  0016E6  502F               	movf	i2memset@n^0,w,c
  9741  0016E8  1030               	iorwf	(i2memset@n+1)^0,w,c
  9742  0016EA  A4D8               	btfss	status,2,c
  9743  0016EC  EF7A  F00B         	goto	i2u304_41
  9744  0016F0  EF7C  F00B         	goto	i2u304_40
  9745  0016F4                     i2u304_41:
  9746  0016F4  EF7E  F00B         	goto	i2l4117
  9747  0016F8                     i2u304_40:
  9748  0016F8  EF29  F00C         	goto	i2l1325
  9749  0016FC                     i2l4117:
  9750  0016FC  C035  FFD9         	movff	i2memset@s,fsr2l
  9751  001700  C036  FFDA         	movff	i2memset@s+1,fsr2h
  9752  001704  C02D  FFDF         	movff	i2memset@c,indf2
  9753  001708  502F               	movf	i2memset@n^0,w,c
  9754  00170A  2435               	addwf	i2memset@s^0,w,c
  9755  00170C  6E31               	movwf	??i2_memset^0,c
  9756  00170E  5030               	movf	(i2memset@n+1)^0,w,c
  9757  001710  2036               	addwfc	(i2memset@s+1)^0,w,c
  9758  001712  6E32               	movwf	(??i2_memset+1)^0,c
  9759  001714  0EFF               	movlw	255
  9760  001716  2431               	addwf	??i2_memset^0,w,c
  9761  001718  6ED9               	movwf	fsr2l,c
  9762  00171A  0EFF               	movlw	255
  9763  00171C  2032               	addwfc	(??i2_memset+1)^0,w,c
  9764  00171E  6EDA               	movwf	fsr2h,c
  9765  001720  C02D  FFDF         	movff	i2memset@c,indf2
  9766  001724  5030               	movf	(i2memset@n+1)^0,w,c
  9767  001726  E107               	bnz	i2u305_41
  9768  001728  0E03               	movlw	3
  9769  00172A  5C2F               	subwf	i2memset@n^0,w,c
  9770  00172C  B0D8               	btfsc	status,0,c
  9771  00172E  EF9B  F00B         	goto	i2u305_41
  9772  001732  EF9D  F00B         	goto	i2u305_40
  9773  001736                     i2u305_41:
  9774  001736  EF9F  F00B         	goto	i2l4123
  9775  00173A                     i2u305_40:
  9776  00173A  EF29  F00C         	goto	i2l1325
  9777  00173E                     i2l4123:
  9778  00173E  EE20 F001          	lfsr	2,1
  9779  001742  5035               	movf	i2memset@s^0,w,c
  9780  001744  26D9               	addwf	fsr2l,f,c
  9781  001746  5036               	movf	(i2memset@s+1)^0,w,c
  9782  001748  22DA               	addwfc	fsr2h,f,c
  9783  00174A  C02D  FFDF         	movff	i2memset@c,indf2
  9784  00174E  EE20 F002          	lfsr	2,2
  9785  001752  5035               	movf	i2memset@s^0,w,c
  9786  001754  26D9               	addwf	fsr2l,f,c
  9787  001756  5036               	movf	(i2memset@s+1)^0,w,c
  9788  001758  22DA               	addwfc	fsr2h,f,c
  9789  00175A  C02D  FFDF         	movff	i2memset@c,indf2
  9790  00175E  502F               	movf	i2memset@n^0,w,c
  9791  001760  2435               	addwf	i2memset@s^0,w,c
  9792  001762  6E31               	movwf	??i2_memset^0,c
  9793  001764  5030               	movf	(i2memset@n+1)^0,w,c
  9794  001766  2036               	addwfc	(i2memset@s+1)^0,w,c
  9795  001768  6E32               	movwf	(??i2_memset+1)^0,c
  9796  00176A  0EFE               	movlw	254
  9797  00176C  2431               	addwf	??i2_memset^0,w,c
  9798  00176E  6ED9               	movwf	fsr2l,c
  9799  001770  0EFF               	movlw	255
  9800  001772  2032               	addwfc	(??i2_memset+1)^0,w,c
  9801  001774  6EDA               	movwf	fsr2h,c
  9802  001776  C02D  FFDF         	movff	i2memset@c,indf2
  9803  00177A  502F               	movf	i2memset@n^0,w,c
  9804  00177C  2435               	addwf	i2memset@s^0,w,c
  9805  00177E  6E31               	movwf	??i2_memset^0,c
  9806  001780  5030               	movf	(i2memset@n+1)^0,w,c
  9807  001782  2036               	addwfc	(i2memset@s+1)^0,w,c
  9808  001784  6E32               	movwf	(??i2_memset+1)^0,c
  9809  001786  0EFD               	movlw	253
  9810  001788  2431               	addwf	??i2_memset^0,w,c
  9811  00178A  6ED9               	movwf	fsr2l,c
  9812  00178C  0EFF               	movlw	255
  9813  00178E  2032               	addwfc	(??i2_memset+1)^0,w,c
  9814  001790  6EDA               	movwf	fsr2h,c
  9815  001792  C02D  FFDF         	movff	i2memset@c,indf2
  9816  001796  5030               	movf	(i2memset@n+1)^0,w,c
  9817  001798  E107               	bnz	i2u306_41
  9818  00179A  0E07               	movlw	7
  9819  00179C  5C2F               	subwf	i2memset@n^0,w,c
  9820  00179E  B0D8               	btfsc	status,0,c
  9821  0017A0  EFD4  F00B         	goto	i2u306_41
  9822  0017A4  EFD6  F00B         	goto	i2u306_40
  9823  0017A8                     i2u306_41:
  9824  0017A8  EFD8  F00B         	goto	i2l4129
  9825  0017AC                     i2u306_40:
  9826  0017AC  EF29  F00C         	goto	i2l1325
  9827  0017B0                     i2l4129:
  9828  0017B0  EE20 F003          	lfsr	2,3
  9829  0017B4  5035               	movf	i2memset@s^0,w,c
  9830  0017B6  26D9               	addwf	fsr2l,f,c
  9831  0017B8  5036               	movf	(i2memset@s+1)^0,w,c
  9832  0017BA  22DA               	addwfc	fsr2h,f,c
  9833  0017BC  C02D  FFDF         	movff	i2memset@c,indf2
  9834  0017C0  502F               	movf	i2memset@n^0,w,c
  9835  0017C2  2435               	addwf	i2memset@s^0,w,c
  9836  0017C4  6E31               	movwf	??i2_memset^0,c
  9837  0017C6  5030               	movf	(i2memset@n+1)^0,w,c
  9838  0017C8  2036               	addwfc	(i2memset@s+1)^0,w,c
  9839  0017CA  6E32               	movwf	(??i2_memset+1)^0,c
  9840  0017CC  0EFC               	movlw	252
  9841  0017CE  2431               	addwf	??i2_memset^0,w,c
  9842  0017D0  6ED9               	movwf	fsr2l,c
  9843  0017D2  0EFF               	movlw	255
  9844  0017D4  2032               	addwfc	(??i2_memset+1)^0,w,c
  9845  0017D6  6EDA               	movwf	fsr2h,c
  9846  0017D8  C02D  FFDF         	movff	i2memset@c,indf2
  9847  0017DC  5030               	movf	(i2memset@n+1)^0,w,c
  9848  0017DE  E107               	bnz	i2u307_41
  9849  0017E0  0E09               	movlw	9
  9850  0017E2  5C2F               	subwf	i2memset@n^0,w,c
  9851  0017E4  B0D8               	btfsc	status,0,c
  9852  0017E6  EFF7  F00B         	goto	i2u307_41
  9853  0017EA  EFF9  F00B         	goto	i2u307_40
  9854  0017EE                     i2u307_41:
  9855  0017EE  EFFB  F00B         	goto	i2l4135
  9856  0017F2                     i2u307_40:
  9857  0017F2  EF29  F00C         	goto	i2l1325
  9858  0017F6                     i2l4135:
  9859  0017F6  C035  F031         	movff	i2memset@s,??i2_memset
  9860  0017FA  C036  F032         	movff	i2memset@s+1,??i2_memset+1
  9861  0017FE  1E31               	comf	??i2_memset^0,f,c
  9862  001800  1E32               	comf	(??i2_memset+1)^0,f,c
  9863  001802  4A31               	infsnz	??i2_memset^0,f,c
  9864  001804  2A32               	incf	(??i2_memset+1)^0,f,c
  9865  001806  0E03               	movlw	3
  9866  001808  1431               	andwf	??i2_memset^0,w,c
  9867  00180A  6E33               	movwf	i2memset@k^0,c
  9868  00180C  6A34               	clrf	(i2memset@k+1)^0,c
  9869  00180E  5033               	movf	i2memset@k^0,w,c
  9870  001810  2635               	addwf	i2memset@s^0,f,c
  9871  001812  5034               	movf	(i2memset@k+1)^0,w,c
  9872  001814  2236               	addwfc	(i2memset@s+1)^0,f,c
  9873  001816  5033               	movf	i2memset@k^0,w,c
  9874  001818  5E2F               	subwf	i2memset@n^0,f,c
  9875  00181A  5034               	movf	(i2memset@k+1)^0,w,c
  9876  00181C  5A30               	subwfb	(i2memset@n+1)^0,f,c
  9877  00181E  0EFC               	movlw	252
  9878  001820  162F               	andwf	i2memset@n^0,f,c
  9879  001822  0EFF               	movlw	255
  9880  001824  1630               	andwf	(i2memset@n+1)^0,f,c
  9881  001826  EF20  F00C         	goto	i2l4143
  9882  00182A                     i2l4137:
  9883  00182A  C035  FFD9         	movff	i2memset@s,fsr2l
  9884  00182E  C036  FFDA         	movff	i2memset@s+1,fsr2h
  9885  001832  C02D  FFDF         	movff	i2memset@c,indf2
  9886  001836  062F               	decf	i2memset@n^0,f,c
  9887  001838  A0D8               	btfss	status,0,c
  9888  00183A  0630               	decf	(i2memset@n+1)^0,f,c
  9889  00183C  4A35               	infsnz	i2memset@s^0,f,c
  9890  00183E  2A36               	incf	(i2memset@s+1)^0,f,c
  9891  001840                     i2l4143:
  9892  001840  502F               	movf	i2memset@n^0,w,c
  9893  001842  1030               	iorwf	(i2memset@n+1)^0,w,c
  9894  001844  A4D8               	btfss	status,2,c
  9895  001846  EF27  F00C         	goto	i2u308_41
  9896  00184A  EF29  F00C         	goto	i2u308_40
  9897  00184E                     i2u308_41:
  9898  00184E  EF15  F00C         	goto	i2l4137
  9899  001852                     i2u308_40:
  9900  001852                     i2l1325:
  9901  001852  0012               	return		;funcret
  9902  001854                     __end_ofi2_memset:
  9903                           	opt callstack 0
  9904                           
  9905 ;; *************** function i2_USBStdGetStatusHandler *****************
  9906 ;; Defined at:
  9907 ;;		line 2135 in file "usb_device.c"
  9908 ;; Parameters:    Size  Location     Type
  9909 ;;		None
  9910 ;; Auto vars:     Size  Location     Type
  9911 ;;  USBStdGetSta    2    2[COMRAM] PTR struct __BDT
  9912 ;;		 -> RAM(2047), NULL(0), BDT(48), 
  9913 ;; Return value:  Size  Location     Type
  9914 ;;                  1    wreg      void 
  9915 ;; Registers used:
  9916 ;;		wreg, fsr2l, fsr2h, status,2, status,0, prodl, prodh
  9917 ;; Tracked objects:
  9918 ;;		On entry : 0/0
  9919 ;;		On exit  : 0/0
  9920 ;;		Unchanged: 0/0
  9921 ;; Data sizes:     COMRAM   BANK0   BANK1   BANK2   BANK3  BANK4h  BANK4l   BANK5   BANK6   BANK7
  9922 ;;      Params:         0       0       0       0       0       0       0       0       0       0
  9923 ;;      Locals:         2       0       0       0       0       0       0       0       0       0
  9924 ;;      Temps:          2       0       0       0       0       0       0       0       0       0
  9925 ;;      Totals:         4       0       0       0       0       0       0       0       0       0
  9926 ;;Total ram usage:        4 bytes
  9927 ;; Hardware stack levels used:    1
  9928 ;; This function calls:
  9929 ;;		Nothing
  9930 ;; This function is called by:
  9931 ;;		i2_USBCheckStdRequest
  9932 ;; This function uses a non-reentrant model
  9933 ;;
  9934                           
  9935                           	psect	text53
  9936  002DBE                     __ptext53:
  9937                           	opt callstack 0
  9938  002DBE                     i2_USBStdGetStatusHandler:
  9939                           	opt callstack 15
  9940  002DBE                     
  9941                           ;usb_device.c: 2137:     CtrlTrfData[0] = 0;
  9942  002DBE  0E00               	movlw	0
  9943  002DC0  0104               	movlb	4	; () banked
  9944  002DC2  6F50               	movwf	80,b	;volatile
  9945                           
  9946                           ;usb_device.c: 2138:     CtrlTrfData[1] = 0;
  9947  002DC4  0E00               	movlw	0
  9948  002DC6  6F51               	movwf	81,b	;volatile
  9949                           
  9950                           ;usb_device.c: 2140:     switch(SetupPkt.Recipient)
  9951  002DC8  EF37  F017         	goto	i2l4391
  9952  002DCC                     i2l394:
  9953                           
  9954                           ; BSR set to: 4
  9955                           ;usb_device.c: 2143:             inPipes[0].info.bits.busy = 1;
  9956  002DCC  8E0C               	bsf	(_inPipes+3)^0,7,c	;volatile
  9957  002DCE                     
  9958                           ; BSR set to: 4
  9959                           ;usb_device.c: 2153:             if(RemoteWakeup == 1)
  9960  002DCE  0426               	decf	_RemoteWakeup^0,w,c	;volatile
  9961  002DD0  A4D8               	btfss	status,2,c
  9962  002DD2  EFED  F016         	goto	i2u336_41
  9963  002DD6  EFEF  F016         	goto	i2u336_40
  9964  002DDA                     i2u336_41:
  9965  002DDA  EF51  F017         	goto	i2l397
  9966  002DDE                     i2u336_40:
  9967  002DDE                     
  9968                           ; BSR set to: 4
  9969                           ;usb_device.c: 2154:             {;usb_device.c: 2155:                 CtrlTrfData[0]|=0
      +                          x02;
  9970  002DDE  8350               	bsf	80,1,b	;volatile
  9971  002DE0  EF51  F017         	goto	i2l397
  9972  002DE4                     i2l398:
  9973                           
  9974                           ; BSR set to: 4
  9975                           ;usb_device.c: 2159:             inPipes[0].info.bits.busy = 1;
  9976  002DE4  8E0C               	bsf	(_inPipes+3)^0,7,c	;volatile
  9977                           
  9978                           ;usb_device.c: 2160:             break;
  9979  002DE6  EF51  F017         	goto	i2l397
  9980  002DEA                     i2l399:
  9981                           
  9982                           ; BSR set to: 4
  9983                           ;usb_device.c: 2162:             inPipes[0].info.bits.busy = 1;
  9984  002DEA  8E0C               	bsf	(_inPipes+3)^0,7,c	;volatile
  9985                           
  9986                           ;usb_device.c: 2166:             {;usb_device.c: 2167:                 BDT_ENTRY *p;;usb
      +                          _device.c: 2169:                 if(SetupPkt.EPDir == 0)
  9987  002DEC  BF34               	btfsc	52,7,b	;volatile
  9988  002DEE  EFFB  F016         	goto	i2u337_41
  9989  002DF2  EFFD  F016         	goto	i2u337_40
  9990  002DF6                     i2u337_41:
  9991  002DF6  EF0E  F017         	goto	i2l4381
  9992  002DFA                     i2u337_40:
  9993  002DFA                     
  9994                           ; BSR set to: 4
  9995                           ;usb_device.c: 2170:                 {;usb_device.c: 2171:                     p = (BDT_
      +                          ENTRY*)pBDTEntryOut[SetupPkt.EPNum];
  9996  002DFA  5134               	movf	52,w,b	;volatile
  9997  002DFC  0B0F               	andlw	15
  9998  002DFE  6E2B               	movwf	??i2_USBStdGetStatusHandler^0,c
  9999  002E00  502B               	movf	??i2_USBStdGetStatusHandler^0,w,c
 10000  002E02  0D02               	mullw	2
 10001  002E04  0EAA               	movlw	low _pBDTEntryOut
 10002  002E06  24F3               	addwf	243,w,c
 10003  002E08  6ED9               	movwf	fsr2l,c
 10004  002E0A  0E00               	movlw	high _pBDTEntryOut
 10005  002E0C  20F4               	addwfc	prodh,w,c
 10006  002E0E  6EDA               	movwf	fsr2h,c
 10007  002E10  CFDE F02D          	movff	postinc2,i2USBStdGetStatusHandler@p
 10008  002E14  CFDD F02E          	movff	postdec2,i2USBStdGetStatusHandler@p+1
 10009                           
 10010                           ;usb_device.c: 2172:                 }
 10011  002E18  EF1D  F017         	goto	i2l4383
 10012  002E1C                     i2l4381:
 10013                           
 10014                           ; BSR set to: 4
 10015                           ;usb_device.c: 2174:                 {;usb_device.c: 2175:                     p = (BDT_
      +                          ENTRY*)pBDTEntryIn[SetupPkt.EPNum];
 10016  002E1C  5134               	movf	52,w,b	;volatile
 10017  002E1E  0B0F               	andlw	15
 10018  002E20  6E2B               	movwf	??i2_USBStdGetStatusHandler^0,c
 10019  002E22  502B               	movf	??i2_USBStdGetStatusHandler^0,w,c
 10020  002E24  0D02               	mullw	2
 10021  002E26  0E0F               	movlw	low _pBDTEntryIn
 10022  002E28  24F3               	addwf	243,w,c
 10023  002E2A  6ED9               	movwf	fsr2l,c
 10024  002E2C  0E00               	movlw	high _pBDTEntryIn
 10025  002E2E  20F4               	addwfc	prodh,w,c
 10026  002E30  6EDA               	movwf	fsr2h,c
 10027  002E32  CFDE F02D          	movff	postinc2,i2USBStdGetStatusHandler@p
 10028  002E36  CFDD F02E          	movff	postdec2,i2USBStdGetStatusHandler@p+1
 10029  002E3A                     i2l4383:
 10030                           
 10031                           ; BSR set to: 4
 10032                           ;usb_device.c: 2178:                 if((p->STAT.UOWN == 1) && (p->STAT.BSTALL == 1))
 10033  002E3A  C02D  FFD9         	movff	i2USBStdGetStatusHandler@p,fsr2l
 10034  002E3E  C02E  FFDA         	movff	i2USBStdGetStatusHandler@p+1,fsr2h
 10035  002E42  AEDF               	btfss	indf2,7,c
 10036  002E44  EF26  F017         	goto	i2u338_41
 10037  002E48  EF28  F017         	goto	i2u338_40
 10038  002E4C                     i2u338_41:
 10039  002E4C  EF51  F017         	goto	i2l397
 10040  002E50                     i2u338_40:
 10041  002E50                     
 10042                           ; BSR set to: 4
 10043  002E50  C02D  FFD9         	movff	i2USBStdGetStatusHandler@p,fsr2l
 10044  002E54  C02E  FFDA         	movff	i2USBStdGetStatusHandler@p+1,fsr2h
 10045  002E58  A4DF               	btfss	indf2,2,c
 10046  002E5A  EF31  F017         	goto	i2u339_41
 10047  002E5E  EF33  F017         	goto	i2u339_40
 10048  002E62                     i2u339_41:
 10049  002E62  EF51  F017         	goto	i2l397
 10050  002E66                     i2u339_40:
 10051  002E66                     
 10052                           ; BSR set to: 4
 10053                           ;usb_device.c: 2179:                     CtrlTrfData[0]=0x01;
 10054  002E66  0E01               	movlw	1
 10055  002E68  6F50               	movwf	80,b	;volatile
 10056  002E6A  EF51  F017         	goto	i2l397
 10057  002E6E                     i2l4391:
 10058                           
 10059                           ; BSR set to: 4
 10060  002E6E  5130               	movf	48,w,b	;volatile
 10061  002E70  0B1F               	andlw	31
 10062  002E72  6E2B               	movwf	??i2_USBStdGetStatusHandler^0,c
 10063  002E74  6A2C               	clrf	(??i2_USBStdGetStatusHandler+1)^0,c
 10064                           
 10065                           ; Switch on 2 bytes has been partitioned into a top level switch of size 1, and 1 sub-sw
      +                          itches
 10066                           ; Switch size 1, requested type "simple"
 10067                           ; Number of cases is 1, Range of values is 0 to 0
 10068                           ; switch strategies available:
 10069                           ; Name         Instructions Cycles
 10070                           ; simple_byte            4     3 (average)
 10071                           ;	Chosen strategy is simple_byte
 10072  002E76  502C               	movf	(??i2_USBStdGetStatusHandler+1)^0,w,c
 10073  002E78  0A00               	xorlw	0	; case 0
 10074  002E7A  B4D8               	btfsc	status,2,c
 10075  002E7C  EF42  F017         	goto	i2l7751
 10076  002E80  EF51  F017         	goto	i2l397
 10077  002E84                     i2l7751:
 10078                           
 10079                           ; BSR set to: 4
 10080                           ; Switch size 1, requested type "simple"
 10081                           ; Number of cases is 3, Range of values is 0 to 2
 10082                           ; switch strategies available:
 10083                           ; Name         Instructions Cycles
 10084                           ; simple_byte           10     6 (average)
 10085                           ;	Chosen strategy is simple_byte
 10086  002E84  502B               	movf	??i2_USBStdGetStatusHandler^0,w,c
 10087  002E86  0A00               	xorlw	0	; case 0
 10088  002E88  B4D8               	btfsc	status,2,c
 10089  002E8A  EFE6  F016         	goto	i2l394
 10090  002E8E  0A01               	xorlw	1	; case 1
 10091  002E90  B4D8               	btfsc	status,2,c
 10092  002E92  EFF2  F016         	goto	i2l398
 10093  002E96  0A03               	xorlw	3	; case 2
 10094  002E98  B4D8               	btfsc	status,2,c
 10095  002E9A  EFF5  F016         	goto	i2l399
 10096  002E9E  EF51  F017         	goto	i2l397
 10097  002EA2                     i2l397:
 10098                           
 10099                           ; BSR set to: 4
 10100                           ;usb_device.c: 2184:     if(inPipes[0].info.bits.busy == 1)
 10101  002EA2  AE0C               	btfss	(_inPipes+3)^0,7,c	;volatile
 10102  002EA4  EF56  F017         	goto	i2u340_41
 10103  002EA8  EF58  F017         	goto	i2u340_40
 10104  002EAC                     i2u340_41:
 10105  002EAC  EF5F  F017         	goto	i2l404
 10106  002EB0                     i2u340_40:
 10107  002EB0                     
 10108                           ; BSR set to: 4
 10109                           ;usb_device.c: 2185:     {;usb_device.c: 2186:         inPipes[0].pSrc.bRam = (uint8_t*)
      +                          &CtrlTrfData;
 10110  002EB0  0E50               	movlw	80
 10111  002EB2  6E09               	movwf	_inPipes^0,c	;volatile
 10112  002EB4  0E04               	movlw	4
 10113  002EB6  6E0A               	movwf	(_inPipes+1)^0,c	;volatile
 10114  002EB8                     
 10115                           ; BSR set to: 4
 10116                           ;usb_device.c: 2187:         inPipes[0].info.bits.ctrl_trf_mem = 0x01;
 10117  002EB8  800C               	bsf	(_inPipes+3)^0,0,c	;volatile
 10118  002EBA                     
 10119                           ; BSR set to: 4
 10120                           ;usb_device.c: 2188:         inPipes[0].wCount.v[0] = 2;
 10121  002EBA  0E02               	movlw	2
 10122  002EBC  6E0D               	movwf	(_inPipes+4)^0,c	;volatile
 10123  002EBE                     i2l404:
 10124                           
 10125                           ; BSR set to: 4
 10126  002EBE  0012               	return		;funcret
 10127  002EC0                     __end_ofi2_USBStdGetStatusHandler:
 10128                           	opt callstack 0
 10129                           
 10130 ;; *************** function i2_USBStdGetDscHandler *****************
 10131 ;; Defined at:
 10132 ;;		line 2049 in file "usb_device.c"
 10133 ;; Parameters:    Size  Location     Type
 10134 ;;		None
 10135 ;; Auto vars:     Size  Location     Type
 10136 ;;		None
 10137 ;; Return value:  Size  Location     Type
 10138 ;;                  1    wreg      void 
 10139 ;; Registers used:
 10140 ;;		wreg, fsr1l, fsr1h, status,2, status,0, tblptrl, tblptrh, tblptru, prodl, prodh
 10141 ;; Tracked objects:
 10142 ;;		On entry : 0/0
 10143 ;;		On exit  : 0/0
 10144 ;;		Unchanged: 0/0
 10145 ;; Data sizes:     COMRAM   BANK0   BANK1   BANK2   BANK3  BANK4h  BANK4l   BANK5   BANK6   BANK7
 10146 ;;      Params:         0       0       0       0       0       0       0       0       0       0
 10147 ;;      Locals:         0       0       0       0       0       0       0       0       0       0
 10148 ;;      Temps:          2       0       0       0       0       0       0       0       0       0
 10149 ;;      Totals:         2       0       0       0       0       0       0       0       0       0
 10150 ;;Total ram usage:        2 bytes
 10151 ;; Hardware stack levels used:    1
 10152 ;; This function calls:
 10153 ;;		Nothing
 10154 ;; This function is called by:
 10155 ;;		i2_USBCheckStdRequest
 10156 ;; This function uses a non-reentrant model
 10157 ;;
 10158                           
 10159                           	psect	text54
 10160  0019C0                     __ptext54:
 10161                           	opt callstack 0
 10162  0019C0                     i2_USBStdGetDscHandler:
 10163                           	opt callstack 15
 10164  0019C0                     
 10165                           ;usb_device.c: 2051:     if(SetupPkt.bmRequestType == 0x80)
 10166  0019C0  0E80               	movlw	128
 10167  0019C2  0104               	movlb	4	; () banked
 10168  0019C4  1930               	xorwf	48,w,b	;volatile
 10169  0019C6  A4D8               	btfss	status,2,c
 10170  0019C8  EFE8  F00C         	goto	i2u330_41
 10171  0019CC  EFEA  F00C         	goto	i2u330_40
 10172  0019D0                     i2u330_41:
 10173  0019D0  EF8F  F00D         	goto	i2l390
 10174  0019D4                     i2u330_40:
 10175  0019D4                     
 10176                           ; BSR set to: 4
 10177                           ;usb_device.c: 2052:     {;usb_device.c: 2053:         inPipes[0].info.Val = 0x00 | 0x80
      +                           | 0x40;
 10178  0019D4  0EC0               	movlw	192
 10179  0019D6  6E0C               	movwf	(_inPipes+3)^0,c	;volatile
 10180                           
 10181                           ;usb_device.c: 2055:         switch(SetupPkt.bDescriptorType)
 10182  0019D8  EF76  F00D         	goto	i2l4363
 10183  0019DC                     i2l4337:
 10184                           
 10185                           ; BSR set to: 4
 10186                           ;usb_device.c: 2061:                     inPipes[0].pSrc.bRom = (const uint8_t*)&device_
      +                          dsc;
 10187  0019DC  0E92               	movlw	low _device_dsc
 10188  0019DE  6E09               	movwf	_inPipes^0,c	;volatile
 10189  0019E0  0E08               	movlw	high _device_dsc
 10190  0019E2  6E0A               	movwf	(_inPipes+1)^0,c	;volatile
 10191  0019E4                     
 10192                           ; BSR set to: 4
 10193                           ;usb_device.c: 2063:                 inPipes[0].wCount.Val = sizeof(device_dsc);
 10194  0019E4  0E00               	movlw	0
 10195  0019E6  6E0E               	movwf	(_inPipes+5)^0,c	;volatile
 10196  0019E8  0E12               	movlw	18
 10197  0019EA  6E0D               	movwf	(_inPipes+4)^0,c	;volatile
 10198                           
 10199                           ;usb_device.c: 2064:                 break;
 10200  0019EC  EF8F  F00D         	goto	i2l390
 10201  0019F0                     i2l4341:
 10202                           
 10203                           ; BSR set to: 4
 10204                           ;usb_device.c: 2069:                 if(SetupPkt.bDscIndex < 1)
 10205  0019F0  5132               	movf	50,w,b	;volatile
 10206  0019F2  A4D8               	btfss	status,2,c
 10207  0019F4  EFFE  F00C         	goto	i2u331_41
 10208  0019F8  EF00  F00D         	goto	i2u331_40
 10209  0019FC                     i2u331_41:
 10210  0019FC  EF3E  F00D         	goto	i2l4349
 10211  001A00                     i2u331_40:
 10212  001A00                     
 10213                           ; BSR set to: 4
 10214                           ;usb_device.c: 2070:                 {;usb_device.c: 2074:                         inPip
      +                          es[0].pSrc.bRom = *(USB_CD_Ptr+SetupPkt.bDscIndex);
 10215  001A00  5132               	movf	50,w,b	;volatile
 10216  001A02  0D02               	mullw	2
 10217  001A04  0E07               	movlw	low _USB_CD_Ptr
 10218  001A06  24F3               	addwf	243,w,c
 10219  001A08  6EF6               	movwf	tblptrl,c
 10220  001A0A  0E08               	movlw	high _USB_CD_Ptr
 10221  001A0C  20F4               	addwfc	244,w,c
 10222  001A0E  6EF7               	movwf	tblptrh,c
 10223  001A10                     	if	0	;There are less than 3 active tblptr bytes
 10224  001A10                     	endif
 10225  001A10  0009               	tblrd		*+
 10226  001A12  CFF5 F009          	movff	tablat,_inPipes	;volatile
 10227  001A16  000A               	tblrd		*-
 10228  001A18  CFF5 F00A          	movff	tablat,_inPipes+1	;volatile
 10229  001A1C                     
 10230                           ; BSR set to: 4
 10231                           ;usb_device.c: 2080:                     inPipes[0].wCount.byte.LB = *(inPipes[0].pSrc.b
      +                          Rom+2);
 10232  001A1C  0E02               	movlw	2
 10233  001A1E  2409               	addwf	_inPipes^0,w,c	;volatile
 10234  001A20  6E2B               	movwf	??i2_USBStdGetDscHandler^0,c
 10235  001A22  0E00               	movlw	0
 10236  001A24  200A               	addwfc	(_inPipes+1)^0,w,c	;volatile
 10237  001A26  6E2C               	movwf	(??i2_USBStdGetDscHandler+1)^0,c
 10238  001A28  C02B  FFF6         	movff	??i2_USBStdGetDscHandler,tblptrl
 10239  001A2C  C02C  FFF7         	movff	??i2_USBStdGetDscHandler+1,tblptrh
 10240  001A30  6AF8               	clrf	tblptru,c
 10241  001A32  0E07               	movlw	(high __ramtop+-1)
 10242  001A34  64F7               	cpfsgt	tblptrh,c
 10243  001A36  D003               	bra	i2u332_47
 10244  001A38  0008               	tblrd		*
 10245  001A3A  50F5               	movf	tablat,w,c
 10246  001A3C  D005               	bra	i2u332_40
 10247  001A3E                     i2u332_47:
 10248  001A3E  CFF6 FFE1          	movff	tblptrl,fsr1l
 10249  001A42  CFF7 FFE2          	movff	tblptrh,fsr1h
 10250  001A46  50E7               	movf	indf1,w,c
 10251  001A48                     i2u332_40:
 10252  001A48  6E0D               	movwf	(_inPipes+4)^0,c	;volatile
 10253  001A4A                     
 10254                           ;usb_device.c: 2081:                     inPipes[0].wCount.byte.HB = *(inPipes[0].pSrc.b
      +                          Rom+3);
 10255  001A4A  0E03               	movlw	3
 10256  001A4C  2409               	addwf	_inPipes^0,w,c	;volatile
 10257  001A4E  6E2B               	movwf	??i2_USBStdGetDscHandler^0,c
 10258  001A50  0E00               	movlw	0
 10259  001A52  200A               	addwfc	(_inPipes+1)^0,w,c	;volatile
 10260  001A54  6E2C               	movwf	(??i2_USBStdGetDscHandler+1)^0,c
 10261  001A56  C02B  FFF6         	movff	??i2_USBStdGetDscHandler,tblptrl
 10262  001A5A  C02C  FFF7         	movff	??i2_USBStdGetDscHandler+1,tblptrh
 10263  001A5E  6AF8               	clrf	tblptru,c
 10264  001A60  0E07               	movlw	(high __ramtop+-1)
 10265  001A62  64F7               	cpfsgt	tblptrh,c
 10266  001A64  D003               	bra	i2u333_47
 10267  001A66  0008               	tblrd		*
 10268  001A68  50F5               	movf	tablat,w,c
 10269  001A6A  D005               	bra	i2u333_40
 10270  001A6C                     i2u333_47:
 10271  001A6C  CFF6 FFE1          	movff	tblptrl,fsr1l
 10272  001A70  CFF7 FFE2          	movff	tblptrh,fsr1h
 10273  001A74  50E7               	movf	indf1,w,c
 10274  001A76                     i2u333_40:
 10275  001A76  6E0E               	movwf	(_inPipes+5)^0,c	;volatile
 10276                           
 10277                           ;usb_device.c: 2082:                 }
 10278  001A78  EF8F  F00D         	goto	i2l390
 10279  001A7C                     i2l4349:
 10280                           
 10281                           ; BSR set to: 4
 10282                           ;usb_device.c: 2084:     {;usb_device.c: 2085:      inPipes[0].info.Val = 0;
 10283  001A7C  0E00               	movlw	0
 10284  001A7E  6E0C               	movwf	(_inPipes+3)^0,c	;volatile
 10285  001A80  EF8F  F00D         	goto	i2l390
 10286  001A84                     i2l4351:
 10287                           
 10288                           ; BSR set to: 4
 10289                           ;usb_device.c: 2092:                 if(SetupPkt.bDscIndex<3)
 10290  001A84  0E03               	movlw	3
 10291  001A86  6132               	cpfslt	50,b	;volatile
 10292  001A88  EF48  F00D         	goto	i2u334_41
 10293  001A8C  EF4A  F00D         	goto	i2u334_40
 10294  001A90                     i2u334_41:
 10295  001A90  EF6E  F00D         	goto	i2l4357
 10296  001A94                     i2u334_40:
 10297  001A94                     
 10298                           ; BSR set to: 4
 10299                           ;usb_device.c: 2093:                 {;usb_device.c: 2095:                     inPipes[0
      +                          ].pSrc.bRom = *(USB_SD_Ptr+SetupPkt.bDscIndex);
 10300  001A94  5132               	movf	50,w,b	;volatile
 10301  001A96  0D02               	mullw	2
 10302  001A98  0E01               	movlw	low _USB_SD_Ptr
 10303  001A9A  24F3               	addwf	243,w,c
 10304  001A9C  6EF6               	movwf	tblptrl,c
 10305  001A9E  0E08               	movlw	high _USB_SD_Ptr
 10306  001AA0  20F4               	addwfc	244,w,c
 10307  001AA2  6EF7               	movwf	tblptrh,c
 10308  001AA4                     	if	0	;There are less than 3 active tblptr bytes
 10309  001AA4                     	endif
 10310  001AA4  0009               	tblrd		*+
 10311  001AA6  CFF5 F009          	movff	tablat,_inPipes	;volatile
 10312  001AAA  000A               	tblrd		*-
 10313  001AAC  CFF5 F00A          	movff	tablat,_inPipes+1	;volatile
 10314  001AB0                     
 10315                           ; BSR set to: 4
 10316                           ;usb_device.c: 2097:                     inPipes[0].wCount.Val = *inPipes[0].pSrc.bRom;
 10317  001AB0  C009  FFF6         	movff	_inPipes,tblptrl	;volatile
 10318  001AB4  C00A  FFF7         	movff	_inPipes+1,tblptrh	;volatile
 10319  001AB8  6AF8               	clrf	tblptru,c
 10320  001ABA  0E07               	movlw	(high __ramtop+-1)
 10321  001ABC  64F7               	cpfsgt	tblptrh,c
 10322  001ABE  D003               	bra	i2u335_47
 10323  001AC0  0008               	tblrd		*
 10324  001AC2  50F5               	movf	tablat,w,c
 10325  001AC4  D005               	bra	i2u335_40
 10326  001AC6                     i2u335_47:
 10327  001AC6  CFF6 FFE1          	movff	tblptrl,fsr1l
 10328  001ACA  CFF7 FFE2          	movff	tblptrh,fsr1h
 10329  001ACE  50E7               	movf	indf1,w,c
 10330  001AD0                     i2u335_40:
 10331  001AD0  6E2B               	movwf	??i2_USBStdGetDscHandler^0,c
 10332  001AD2  502B               	movf	??i2_USBStdGetDscHandler^0,w,c
 10333  001AD4  6E0D               	movwf	(_inPipes+4)^0,c	;volatile
 10334  001AD6  6A0E               	clrf	(_inPipes+5)^0,c	;volatile
 10335                           
 10336                           ;usb_device.c: 2098:                 }
 10337  001AD8  EF8F  F00D         	goto	i2l390
 10338  001ADC                     i2l4357:
 10339                           
 10340                           ; BSR set to: 4
 10341                           ;usb_device.c: 2109:                 {;usb_device.c: 2110:                     inPipes[0
      +                          ].info.Val = 0;
 10342  001ADC  0E00               	movlw	0
 10343  001ADE  6E0C               	movwf	(_inPipes+3)^0,c	;volatile
 10344  001AE0  EF8F  F00D         	goto	i2l390
 10345  001AE4                     i2l4359:
 10346                           
 10347                           ; BSR set to: 4
 10348                           ;usb_device.c: 2114:                 inPipes[0].info.Val = 0;
 10349  001AE4  0E00               	movlw	0
 10350  001AE6  6E0C               	movwf	(_inPipes+3)^0,c	;volatile
 10351                           
 10352                           ;usb_device.c: 2115:                 break;
 10353  001AE8  EF8F  F00D         	goto	i2l390
 10354  001AEC                     i2l4363:
 10355                           
 10356                           ; BSR set to: 4
 10357  001AEC  5133               	movf	51,w,b	;volatile
 10358  001AEE  6E2B               	movwf	??i2_USBStdGetDscHandler^0,c
 10359  001AF0  6A2C               	clrf	(??i2_USBStdGetDscHandler+1)^0,c
 10360                           
 10361                           ; Switch on 2 bytes has been partitioned into a top level switch of size 1, and 1 sub-sw
      +                          itches
 10362                           ; Switch size 1, requested type "simple"
 10363                           ; Number of cases is 1, Range of values is 0 to 0
 10364                           ; switch strategies available:
 10365                           ; Name         Instructions Cycles
 10366                           ; simple_byte            4     3 (average)
 10367                           ;	Chosen strategy is simple_byte
 10368  001AF2  502C               	movf	(??i2_USBStdGetDscHandler+1)^0,w,c
 10369  001AF4  0A00               	xorlw	0	; case 0
 10370  001AF6  B4D8               	btfsc	status,2,c
 10371  001AF8  EF80  F00D         	goto	i2l7753
 10372  001AFC  EF72  F00D         	goto	i2l4359
 10373  001B00                     i2l7753:
 10374                           
 10375                           ; BSR set to: 4
 10376                           ; Switch size 1, requested type "simple"
 10377                           ; Number of cases is 3, Range of values is 1 to 3
 10378                           ; switch strategies available:
 10379                           ; Name         Instructions Cycles
 10380                           ; simple_byte           10     6 (average)
 10381                           ;	Chosen strategy is simple_byte
 10382  001B00  502B               	movf	??i2_USBStdGetDscHandler^0,w,c
 10383  001B02  0A01               	xorlw	1	; case 1
 10384  001B04  B4D8               	btfsc	status,2,c
 10385  001B06  EFEE  F00C         	goto	i2l4337
 10386  001B0A  0A03               	xorlw	3	; case 2
 10387  001B0C  B4D8               	btfsc	status,2,c
 10388  001B0E  EFF8  F00C         	goto	i2l4341
 10389  001B12  0A01               	xorlw	1	; case 3
 10390  001B14  B4D8               	btfsc	status,2,c
 10391  001B16  EF42  F00D         	goto	i2l4351
 10392  001B1A  EF72  F00D         	goto	i2l4359
 10393  001B1E                     i2l390:
 10394  001B1E  0012               	return		;funcret
 10395  001B20                     __end_ofi2_USBStdGetDscHandler:
 10396                           	opt callstack 0
 10397                           
 10398 ;; *************** function i2_USBStdFeatureReqHandler *****************
 10399 ;; Defined at:
 10400 ;;		line 2760 in file "usb_device.c"
 10401 ;; Parameters:    Size  Location     Type
 10402 ;;		None
 10403 ;; Auto vars:     Size  Location     Type
 10404 ;;  USBStdFeatur    2   25[COMRAM] PTR struct __BDT
 10405 ;;		 -> RAM(2047), NULL(0), BDT(48), 
 10406 ;;  USBStdFeatur    2   22[COMRAM] PTR unsigned char 
 10407 ;;		 -> UEP0(1), 
 10408 ;;  USBStdFeatur    1   24[COMRAM] struct .
 10409 ;; Return value:  Size  Location     Type
 10410 ;;                  1    wreg      void 
 10411 ;; Registers used:
 10412 ;;		wreg, fsr2l, fsr2h, status,2, status,0, prodl, prodh, cstack
 10413 ;; Tracked objects:
 10414 ;;		On entry : 0/0
 10415 ;;		On exit  : 0/0
 10416 ;;		Unchanged: 0/0
 10417 ;; Data sizes:     COMRAM   BANK0   BANK1   BANK2   BANK3  BANK4h  BANK4l   BANK5   BANK6   BANK7
 10418 ;;      Params:         0       0       0       0       0       0       0       0       0       0
 10419 ;;      Locals:         5       0       0       0       0       0       0       0       0       0
 10420 ;;      Temps:          2       0       0       0       0       0       0       0       0       0
 10421 ;;      Totals:         7       0       0       0       0       0       0       0       0       0
 10422 ;;Total ram usage:        7 bytes
 10423 ;; Hardware stack levels used:    1
 10424 ;; Hardware stack levels required when called:    4
 10425 ;; This function calls:
 10426 ;;		i2_USER_USB_CALLBACK_EVENT_HANDLER
 10427 ;; This function is called by:
 10428 ;;		i2_USBCheckStdRequest
 10429 ;; This function uses a non-reentrant model
 10430 ;;
 10431                           
 10432                           	psect	text55
 10433  000C2C                     __ptext55:
 10434                           	opt callstack 0
 10435  000C2C                     i2_USBStdFeatureReqHandler:
 10436                           	opt callstack 11
 10437  000C2C                     
 10438                           ;usb_device.c: 2762:     BDT_ENTRY *p;;usb_device.c: 2763:     EP_STATUS current_ep_data
      +                          ;;usb_device.c: 2767:         unsigned char* pUEP;;usb_device.c: 2805:     if((SetupPkt.
      +                          bFeature == 1)&&
 10439  000C2C  0104               	movlb	4	; () banked
 10440  000C2E  0532               	decf	50,w,b	;volatile
 10441  000C30  A4D8               	btfss	status,2,c
 10442  000C32  EF1D  F006         	goto	i2u341_41
 10443  000C36  EF1F  F006         	goto	i2u341_40
 10444  000C3A                     i2u341_41:
 10445  000C3A  EF39  F006         	goto	i2l471
 10446  000C3E                     i2u341_40:
 10447  000C3E                     
 10448                           ; BSR set to: 4
 10449  000C3E  5130               	movf	48,w,b	;volatile
 10450  000C40  0B1F               	andlw	31
 10451  000C42  0900               	iorlw	0
 10452  000C44  A4D8               	btfss	status,2,c
 10453  000C46  EF27  F006         	goto	i2u342_41
 10454  000C4A  EF29  F006         	goto	i2u342_40
 10455  000C4E                     i2u342_41:
 10456  000C4E  EF39  F006         	goto	i2l471
 10457  000C52                     i2u342_40:
 10458  000C52                     
 10459                           ; BSR set to: 4
 10460                           ;usb_device.c: 2807:     {;usb_device.c: 2808:         inPipes[0].info.bits.busy = 1;
 10461  000C52  8E0C               	bsf	(_inPipes+3)^0,7,c	;volatile
 10462  000C54                     
 10463                           ; BSR set to: 4
 10464                           ;usb_device.c: 2809:         if(SetupPkt.bRequest == 3)
 10465  000C54  0E03               	movlw	3
 10466  000C56  1931               	xorwf	49,w,b	;volatile
 10467  000C58  A4D8               	btfss	status,2,c
 10468  000C5A  EF31  F006         	goto	i2u343_41
 10469  000C5E  EF33  F006         	goto	i2u343_40
 10470  000C62                     i2u343_41:
 10471  000C62  EF37  F006         	goto	i2l4415
 10472  000C66                     i2u343_40:
 10473  000C66                     
 10474                           ; BSR set to: 4
 10475                           ;usb_device.c: 2810:             RemoteWakeup = 1;
 10476  000C66  0E01               	movlw	1
 10477  000C68  6E26               	movwf	_RemoteWakeup^0,c	;volatile
 10478  000C6A  EF39  F006         	goto	i2l471
 10479  000C6E                     i2l4415:
 10480                           
 10481                           ; BSR set to: 4
 10482                           ;usb_device.c: 2812:             RemoteWakeup = 0;
 10483  000C6E  0E00               	movlw	0
 10484  000C70  6E26               	movwf	_RemoteWakeup^0,c	;volatile
 10485  000C72                     i2l471:
 10486                           
 10487                           ; BSR set to: 4
 10488                           ;usb_device.c: 2816:     if((SetupPkt.bFeature == 0)&&
 10489  000C72  5132               	movf	50,w,b	;volatile
 10490  000C74  A4D8               	btfss	status,2,c
 10491  000C76  EF3F  F006         	goto	i2u344_41
 10492  000C7A  EF41  F006         	goto	i2u344_40
 10493  000C7E                     i2u344_41:
 10494  000C7E  EFBB  F007         	goto	i2l494
 10495  000C82                     i2u344_40:
 10496  000C82                     
 10497                           ; BSR set to: 4
 10498  000C82  5130               	movf	48,w,b	;volatile
 10499  000C84  0B1F               	andlw	31
 10500  000C86  0A02               	xorlw	2
 10501  000C88  A4D8               	btfss	status,2,c
 10502  000C8A  EF49  F006         	goto	i2u345_41
 10503  000C8E  EF4B  F006         	goto	i2u345_40
 10504  000C92                     i2u345_41:
 10505  000C92  EFBB  F007         	goto	i2l494
 10506  000C96                     i2u345_40:
 10507  000C96                     
 10508                           ; BSR set to: 4
 10509  000C96  5134               	movf	52,w,b	;volatile
 10510  000C98  0B0F               	andlw	15
 10511  000C9A  0900               	iorlw	0
 10512  000C9C  B4D8               	btfsc	status,2,c
 10513  000C9E  EF53  F006         	goto	i2u346_41
 10514  000CA2  EF55  F006         	goto	i2u346_40
 10515  000CA6                     i2u346_41:
 10516  000CA6  EFBB  F007         	goto	i2l494
 10517  000CAA                     i2u346_40:
 10518  000CAA                     
 10519                           ; BSR set to: 4
 10520  000CAA  5134               	movf	52,w,b	;volatile
 10521  000CAC  0B0F               	andlw	15
 10522  000CAE  6E3F               	movwf	??i2_USBStdFeatureReqHandler^0,c
 10523  000CB0  0E03               	movlw	3
 10524  000CB2  603F               	cpfslt	??i2_USBStdFeatureReqHandler^0,c
 10525  000CB4  EF5E  F006         	goto	i2u347_41
 10526  000CB8  EF60  F006         	goto	i2u347_40
 10527  000CBC                     i2u347_41:
 10528  000CBC  EFBB  F007         	goto	i2l494
 10529  000CC0                     i2u347_40:
 10530  000CC0                     
 10531                           ; BSR set to: 4
 10532  000CC0  0E20               	movlw	32
 10533  000CC2  1829               	xorwf	_USBDeviceState^0,w,c	;volatile
 10534  000CC4  A4D8               	btfss	status,2,c
 10535  000CC6  EF67  F006         	goto	i2u348_41
 10536  000CCA  EF69  F006         	goto	i2u348_40
 10537  000CCE                     i2u348_41:
 10538  000CCE  EFBB  F007         	goto	i2l494
 10539  000CD2                     i2u348_40:
 10540  000CD2                     
 10541                           ; BSR set to: 4
 10542                           ;usb_device.c: 2820:     {;usb_device.c: 2823:   inPipes[0].info.bits.busy = 1;
 10543  000CD2  8E0C               	bsf	(_inPipes+3)^0,7,c	;volatile
 10544                           
 10545                           ;usb_device.c: 2826:         if(SetupPkt.EPDir == 0)
 10546  000CD4  BF34               	btfsc	52,7,b	;volatile
 10547  000CD6  EF6F  F006         	goto	i2u349_41
 10548  000CDA  EF71  F006         	goto	i2u349_40
 10549  000CDE                     i2u349_41:
 10550  000CDE  EF8E  F006         	goto	i2l4431
 10551  000CE2                     i2u349_40:
 10552  000CE2                     
 10553                           ; BSR set to: 4
 10554                           ;usb_device.c: 2827:         {;usb_device.c: 2828:             p = (BDT_ENTRY*)pBDTEntry
      +                          Out[SetupPkt.EPNum];
 10555  000CE2  5134               	movf	52,w,b	;volatile
 10556  000CE4  0B0F               	andlw	15
 10557  000CE6  6E3F               	movwf	??i2_USBStdFeatureReqHandler^0,c
 10558  000CE8  503F               	movf	??i2_USBStdFeatureReqHandler^0,w,c
 10559  000CEA  0D02               	mullw	2
 10560  000CEC  0EAA               	movlw	low _pBDTEntryOut
 10561  000CEE  24F3               	addwf	243,w,c
 10562  000CF0  6ED9               	movwf	fsr2l,c
 10563  000CF2  0E00               	movlw	high _pBDTEntryOut
 10564  000CF4  20F4               	addwfc	prodh,w,c
 10565  000CF6  6EDA               	movwf	fsr2h,c
 10566  000CF8  CFDE F044          	movff	postinc2,i2USBStdFeatureReqHandler@p
 10567  000CFC  CFDD F045          	movff	postdec2,i2USBStdFeatureReqHandler@p+1
 10568  000D00                     
 10569                           ; BSR set to: 4
 10570                           ;usb_device.c: 2829:             current_ep_data.Val = ep_data_out[SetupPkt.EPNum].Val;
 10571  000D00  5134               	movf	52,w,b	;volatile
 10572  000D02  0B0F               	andlw	15
 10573  000D04  6E3F               	movwf	??i2_USBStdFeatureReqHandler^0,c
 10574  000D06  6A40               	clrf	(??i2_USBStdFeatureReqHandler+1)^0,c
 10575  000D08  0E15               	movlw	low _ep_data_out
 10576  000D0A  243F               	addwf	??i2_USBStdFeatureReqHandler^0,w,c
 10577  000D0C  6ED9               	movwf	fsr2l,c
 10578  000D0E  0E00               	movlw	high _ep_data_out
 10579  000D10  2040               	addwfc	(??i2_USBStdFeatureReqHandler+1)^0,w,c
 10580  000D12  6EDA               	movwf	fsr2h,c
 10581  000D14  50DF               	movf	indf2,w,c
 10582  000D16  6E43               	movwf	i2USBStdFeatureReqHandler@current_ep_data^0,c
 10583                           
 10584                           ;usb_device.c: 2830:         }
 10585  000D18  EFA9  F006         	goto	i2l4435
 10586  000D1C                     i2l4431:
 10587                           
 10588                           ; BSR set to: 4
 10589                           ;usb_device.c: 2832:         {;usb_device.c: 2833:             p = (BDT_ENTRY*)pBDTEntry
      +                          In[SetupPkt.EPNum];
 10590  000D1C  5134               	movf	52,w,b	;volatile
 10591  000D1E  0B0F               	andlw	15
 10592  000D20  6E3F               	movwf	??i2_USBStdFeatureReqHandler^0,c
 10593  000D22  503F               	movf	??i2_USBStdFeatureReqHandler^0,w,c
 10594  000D24  0D02               	mullw	2
 10595  000D26  0E0F               	movlw	low _pBDTEntryIn
 10596  000D28  24F3               	addwf	243,w,c
 10597  000D2A  6ED9               	movwf	fsr2l,c
 10598  000D2C  0E00               	movlw	high _pBDTEntryIn
 10599  000D2E  20F4               	addwfc	prodh,w,c
 10600  000D30  6EDA               	movwf	fsr2h,c
 10601  000D32  CFDE F044          	movff	postinc2,i2USBStdFeatureReqHandler@p
 10602  000D36  CFDD F045          	movff	postdec2,i2USBStdFeatureReqHandler@p+1
 10603  000D3A                     
 10604                           ; BSR set to: 4
 10605                           ;usb_device.c: 2834:             current_ep_data.Val = ep_data_in[SetupPkt.EPNum].Val;
 10606  000D3A  5134               	movf	52,w,b	;volatile
 10607  000D3C  0B0F               	andlw	15
 10608  000D3E  6E3F               	movwf	??i2_USBStdFeatureReqHandler^0,c
 10609  000D40  6A40               	clrf	(??i2_USBStdFeatureReqHandler+1)^0,c
 10610  000D42  0E18               	movlw	low _ep_data_in
 10611  000D44  243F               	addwf	??i2_USBStdFeatureReqHandler^0,w,c
 10612  000D46  6ED9               	movwf	fsr2l,c
 10613  000D48  0E00               	movlw	high _ep_data_in
 10614  000D4A  2040               	addwfc	(??i2_USBStdFeatureReqHandler+1)^0,w,c
 10615  000D4C  6EDA               	movwf	fsr2h,c
 10616  000D4E  50DF               	movf	indf2,w,c
 10617  000D50  6E43               	movwf	i2USBStdFeatureReqHandler@current_ep_data^0,c
 10618  000D52                     i2l4435:
 10619                           
 10620                           ; BSR set to: 4
 10621                           ;usb_device.c: 2841:             if(current_ep_data.bits.ping_pong_state == 0)
 10622  000D52  B043               	btfsc	i2USBStdFeatureReqHandler@current_ep_data^0,0,c
 10623  000D54  EFAE  F006         	goto	i2u350_41
 10624  000D58  EFB0  F006         	goto	i2u350_40
 10625  000D5C                     i2u350_41:
 10626  000D5C  EFB8  F006         	goto	i2l4439
 10627  000D60                     i2u350_40:
 10628  000D60                     
 10629                           ; BSR set to: 4
 10630                           ;usb_device.c: 2842:             {;usb_device.c: 2843:                 p = (BDT_ENTRY*)(
      +                          ((uint16_t)p) & (~0x0004));
 10631  000D60  0EFB               	movlw	251
 10632  000D62  1444               	andwf	i2USBStdFeatureReqHandler@p^0,w,c
 10633  000D64  6E44               	movwf	i2USBStdFeatureReqHandler@p^0,c
 10634  000D66  0EFF               	movlw	255
 10635  000D68  1445               	andwf	(i2USBStdFeatureReqHandler@p+1)^0,w,c
 10636  000D6A  6E45               	movwf	(i2USBStdFeatureReqHandler@p+1)^0,c
 10637                           
 10638                           ;usb_device.c: 2844:             }
 10639  000D6C  EFBD  F006         	goto	i2l4441
 10640  000D70                     i2l4439:
 10641                           
 10642                           ; BSR set to: 4
 10643                           ;usb_device.c: 2846:             {;usb_device.c: 2847:                 p = (BDT_ENTRY*)(
      +                          ((uint16_t)p) | 0x0004);
 10644  000D70  0E04               	movlw	4
 10645  000D72  1044               	iorwf	i2USBStdFeatureReqHandler@p^0,w,c
 10646  000D74  6E44               	movwf	i2USBStdFeatureReqHandler@p^0,c
 10647  000D76  5045               	movf	(i2USBStdFeatureReqHandler@p+1)^0,w,c
 10648  000D78  6E45               	movwf	(i2USBStdFeatureReqHandler@p+1)^0,c
 10649  000D7A                     i2l4441:
 10650                           
 10651                           ; BSR set to: 4
 10652                           ;usb_device.c: 2853:         if(SetupPkt.EPDir == 0)
 10653  000D7A  BF34               	btfsc	52,7,b	;volatile
 10654  000D7C  EFC2  F006         	goto	i2u351_41
 10655  000D80  EFC4  F006         	goto	i2u351_40
 10656  000D84                     i2u351_41:
 10657  000D84  EFD5  F006         	goto	i2l4445
 10658  000D88                     i2u351_40:
 10659  000D88                     
 10660                           ; BSR set to: 4
 10661                           ;usb_device.c: 2854:         {;usb_device.c: 2855:             pBDTEntryOut[SetupPkt.EPN
      +                          um] = (volatile BDT_ENTRY *)p;
 10662  000D88  5134               	movf	52,w,b	;volatile
 10663  000D8A  0B0F               	andlw	15
 10664  000D8C  6E3F               	movwf	??i2_USBStdFeatureReqHandler^0,c
 10665  000D8E  503F               	movf	??i2_USBStdFeatureReqHandler^0,w,c
 10666  000D90  0D02               	mullw	2
 10667  000D92  0EAA               	movlw	low _pBDTEntryOut
 10668  000D94  24F3               	addwf	243,w,c
 10669  000D96  6ED9               	movwf	fsr2l,c
 10670  000D98  0E00               	movlw	high _pBDTEntryOut
 10671  000D9A  20F4               	addwfc	prodh,w,c
 10672  000D9C  6EDA               	movwf	fsr2h,c
 10673  000D9E  C044  FFDE         	movff	i2USBStdFeatureReqHandler@p,postinc2
 10674  000DA2  C045  FFDD         	movff	i2USBStdFeatureReqHandler@p+1,postdec2
 10675                           
 10676                           ;usb_device.c: 2856:         }
 10677  000DA6  EFE4  F006         	goto	i2l4447
 10678  000DAA                     i2l4445:
 10679                           
 10680                           ; BSR set to: 4
 10681                           ;usb_device.c: 2858:         {;usb_device.c: 2859:             pBDTEntryIn[SetupPkt.EPNu
      +                          m] = (volatile BDT_ENTRY *)p;
 10682  000DAA  5134               	movf	52,w,b	;volatile
 10683  000DAC  0B0F               	andlw	15
 10684  000DAE  6E3F               	movwf	??i2_USBStdFeatureReqHandler^0,c
 10685  000DB0  503F               	movf	??i2_USBStdFeatureReqHandler^0,w,c
 10686  000DB2  0D02               	mullw	2
 10687  000DB4  0E0F               	movlw	low _pBDTEntryIn
 10688  000DB6  24F3               	addwf	243,w,c
 10689  000DB8  6ED9               	movwf	fsr2l,c
 10690  000DBA  0E00               	movlw	high _pBDTEntryIn
 10691  000DBC  20F4               	addwfc	prodh,w,c
 10692  000DBE  6EDA               	movwf	fsr2h,c
 10693  000DC0  C044  FFDE         	movff	i2USBStdFeatureReqHandler@p,postinc2
 10694  000DC4  C045  FFDD         	movff	i2USBStdFeatureReqHandler@p+1,postdec2
 10695  000DC8                     i2l4447:
 10696                           
 10697                           ; BSR set to: 4
 10698                           ;usb_device.c: 2863:         if(SetupPkt.bRequest == 3)
 10699  000DC8  0E03               	movlw	3
 10700  000DCA  1931               	xorwf	49,w,b	;volatile
 10701  000DCC  A4D8               	btfss	status,2,c
 10702  000DCE  EFEB  F006         	goto	i2u352_41
 10703  000DD2  EFED  F006         	goto	i2u352_40
 10704  000DD6                     i2u352_41:
 10705  000DD6  EF25  F007         	goto	i2l4457
 10706  000DDA                     i2u352_40:
 10707  000DDA                     
 10708                           ; BSR set to: 4
 10709                           ;usb_device.c: 2864:         {;usb_device.c: 2865:             if(p->STAT.UOWN == 1)
 10710  000DDA  C044  FFD9         	movff	i2USBStdFeatureReqHandler@p,fsr2l
 10711  000DDE  C045  FFDA         	movff	i2USBStdFeatureReqHandler@p+1,fsr2h
 10712  000DE2  AEDF               	btfss	indf2,7,c
 10713  000DE4  EFF6  F006         	goto	i2u353_41
 10714  000DE8  EFF8  F006         	goto	i2u353_40
 10715  000DEC                     i2u353_41:
 10716  000DEC  EF17  F007         	goto	i2l482
 10717  000DF0                     i2u353_40:
 10718  000DF0                     
 10719                           ; BSR set to: 4
 10720                           ;usb_device.c: 2866:             {;usb_device.c: 2869:                 if(SetupPkt.EPDir
      +                           == 0)
 10721  000DF0  BF34               	btfsc	52,7,b	;volatile
 10722  000DF2  EFFD  F006         	goto	i2u354_41
 10723  000DF6  EFFF  F006         	goto	i2u354_40
 10724  000DFA                     i2u354_41:
 10725  000DFA  EF0C  F007         	goto	i2l4455
 10726  000DFE                     i2u354_40:
 10727  000DFE                     
 10728                           ; BSR set to: 4
 10729                           ;usb_device.c: 2870:                 {;usb_device.c: 2871:                     ep_data_o
      +                          ut[SetupPkt.EPNum].bits.transfer_terminated = 1;
 10730  000DFE  5134               	movf	52,w,b	;volatile
 10731  000E00  0B0F               	andlw	15
 10732  000E02  6E3F               	movwf	??i2_USBStdFeatureReqHandler^0,c
 10733  000E04  6A40               	clrf	(??i2_USBStdFeatureReqHandler+1)^0,c
 10734  000E06  0E15               	movlw	low _ep_data_out
 10735  000E08  243F               	addwf	??i2_USBStdFeatureReqHandler^0,w,c
 10736  000E0A  6ED9               	movwf	fsr2l,c
 10737  000E0C  0E00               	movlw	high _ep_data_out
 10738  000E0E  2040               	addwfc	(??i2_USBStdFeatureReqHandler+1)^0,w,c
 10739  000E10  6EDA               	movwf	fsr2h,c
 10740  000E12  82DF               	bsf	indf2,1,c
 10741                           
 10742                           ;usb_device.c: 2872:                 }
 10743  000E14  EF17  F007         	goto	i2l482
 10744  000E18                     i2l4455:
 10745                           
 10746                           ; BSR set to: 4
 10747                           ;usb_device.c: 2874:                 {;usb_device.c: 2875:                     ep_data_i
      +                          n[SetupPkt.EPNum].bits.transfer_terminated = 1;
 10748  000E18  5134               	movf	52,w,b	;volatile
 10749  000E1A  0B0F               	andlw	15
 10750  000E1C  6E3F               	movwf	??i2_USBStdFeatureReqHandler^0,c
 10751  000E1E  6A40               	clrf	(??i2_USBStdFeatureReqHandler+1)^0,c
 10752  000E20  0E18               	movlw	low _ep_data_in
 10753  000E22  243F               	addwf	??i2_USBStdFeatureReqHandler^0,w,c
 10754  000E24  6ED9               	movwf	fsr2l,c
 10755  000E26  0E00               	movlw	high _ep_data_in
 10756  000E28  2040               	addwfc	(??i2_USBStdFeatureReqHandler+1)^0,w,c
 10757  000E2A  6EDA               	movwf	fsr2h,c
 10758  000E2C  82DF               	bsf	indf2,1,c
 10759  000E2E                     i2l482:
 10760                           
 10761                           ; BSR set to: 4
 10762                           ;usb_device.c: 2880:             p->STAT.Val |= 0x04;
 10763  000E2E  C044  FFD9         	movff	i2USBStdFeatureReqHandler@p,fsr2l
 10764  000E32  C045  FFDA         	movff	i2USBStdFeatureReqHandler@p+1,fsr2h
 10765  000E36  0E00               	movlw	0
 10766  000E38  84DB               	bsf	plusw2,2,c
 10767                           
 10768                           ;usb_device.c: 2881:             p->STAT.Val |= 0x80;
 10769  000E3A  C044  FFD9         	movff	i2USBStdFeatureReqHandler@p,fsr2l
 10770  000E3E  C045  FFDA         	movff	i2USBStdFeatureReqHandler@p+1,fsr2h
 10771  000E42  0E00               	movlw	0
 10772  000E44  8EDB               	bsf	plusw2,7,c
 10773                           
 10774                           ;usb_device.c: 2882:         }
 10775  000E46  EFBB  F007         	goto	i2l494
 10776  000E4A                     i2l4457:
 10777                           
 10778                           ; BSR set to: 4
 10779                           ;usb_device.c: 2884:         {;usb_device.c: 2888:                 p = (BDT_ENTRY*)(((ui
      +                          nt16_t)p) ^ 0x0004);
 10780  000E4A  0E04               	movlw	4
 10781  000E4C  1844               	xorwf	i2USBStdFeatureReqHandler@p^0,w,c
 10782  000E4E  6E44               	movwf	i2USBStdFeatureReqHandler@p^0,c
 10783  000E50  5045               	movf	(i2USBStdFeatureReqHandler@p+1)^0,w,c
 10784  000E52  6E45               	movwf	(i2USBStdFeatureReqHandler@p+1)^0,c
 10785  000E54                     
 10786                           ; BSR set to: 4
 10787                           ;usb_device.c: 2890:                 if(p->STAT.UOWN == 1)
 10788  000E54  C044  FFD9         	movff	i2USBStdFeatureReqHandler@p,fsr2l
 10789  000E58  C045  FFDA         	movff	i2USBStdFeatureReqHandler@p+1,fsr2h
 10790  000E5C  AEDF               	btfss	indf2,7,c
 10791  000E5E  EF33  F007         	goto	i2u355_41
 10792  000E62  EF35  F007         	goto	i2u355_40
 10793  000E66                     i2u355_41:
 10794  000E66  EF51  F007         	goto	i2l4467
 10795  000E6A                     i2u355_40:
 10796  000E6A                     
 10797                           ; BSR set to: 4
 10798                           ;usb_device.c: 2891:                 {;usb_device.c: 2894:                     p->STAT.V
      +                          al &= (~0x80);
 10799  000E6A  C044  FFD9         	movff	i2USBStdFeatureReqHandler@p,fsr2l
 10800  000E6E  C045  FFDA         	movff	i2USBStdFeatureReqHandler@p+1,fsr2h
 10801  000E72  0E7F               	movlw	127
 10802  000E74  16DF               	andwf	indf2,f,c
 10803  000E76                     
 10804                           ; BSR set to: 4
 10805                           ;usb_device.c: 2895:                     p->STAT.Val |= 0x40;
 10806  000E76  C044  FFD9         	movff	i2USBStdFeatureReqHandler@p,fsr2l
 10807  000E7A  C045  FFDA         	movff	i2USBStdFeatureReqHandler@p+1,fsr2h
 10808  000E7E  0E00               	movlw	0
 10809  000E80  8CDB               	bsf	plusw2,6,c
 10810  000E82                     
 10811                           ; BSR set to: 4
 10812                           ;usb_device.c: 2896:                     USER_USB_CALLBACK_EVENT_HANDLER((USB_EVENT)EVEN
      +                          T_TRANSFER_TERMINATED,p,sizeof(p));
 10813  000E82  0E00               	movlw	0
 10814  000E84  6E38               	movwf	(i2USER_USB_CALLBACK_EVENT_HANDLER@event+1)^0,c
 10815  000E86  0E05               	movlw	5
 10816  000E88  6E37               	movwf	i2USER_USB_CALLBACK_EVENT_HANDLER@event^0,c
 10817  000E8A  C044  F039         	movff	i2USBStdFeatureReqHandler@p,i2USER_USB_CALLBACK_EVENT_HANDLER@pdata
 10818  000E8E  C045  F03A         	movff	i2USBStdFeatureReqHandler@p+1,i2USER_USB_CALLBACK_EVENT_HANDLER@pdata+1
 10819  000E92  0E00               	movlw	0
 10820  000E94  6E3C               	movwf	(i2USER_USB_CALLBACK_EVENT_HANDLER@size+1)^0,c
 10821  000E96  0E02               	movlw	2
 10822  000E98  6E3B               	movwf	i2USER_USB_CALLBACK_EVENT_HANDLER@size^0,c
 10823  000E9A  ECA7  F01C         	call	i2_USER_USB_CALLBACK_EVENT_HANDLER	;wreg free
 10824                           
 10825                           ;usb_device.c: 2897:                 }
 10826  000E9E  EF57  F007         	goto	i2l4469
 10827  000EA2                     i2l4467:
 10828                           
 10829                           ; BSR set to: 4
 10830                           ;usb_device.c: 2899:                 {;usb_device.c: 2901:      p->STAT.Val |= 0x40;
 10831  000EA2  C044  FFD9         	movff	i2USBStdFeatureReqHandler@p,fsr2l
 10832  000EA6  C045  FFDA         	movff	i2USBStdFeatureReqHandler@p+1,fsr2h
 10833  000EAA  0E00               	movlw	0
 10834  000EAC  8CDB               	bsf	plusw2,6,c
 10835  000EAE                     i2l4469:
 10836                           
 10837                           ;usb_device.c: 2906:                 p = (BDT_ENTRY*)(((uint16_t)p) ^ 0x0004);
 10838  000EAE  0E04               	movlw	4
 10839  000EB0  1844               	xorwf	i2USBStdFeatureReqHandler@p^0,w,c
 10840  000EB2  6E44               	movwf	i2USBStdFeatureReqHandler@p^0,c
 10841  000EB4  5045               	movf	(i2USBStdFeatureReqHandler@p+1)^0,w,c
 10842  000EB6  6E45               	movwf	(i2USBStdFeatureReqHandler@p+1)^0,c
 10843  000EB8                     
 10844                           ;usb_device.c: 2912:                 if((current_ep_data.bits.transfer_terminated != 0) 
      +                          || (p->STAT.UOWN == 1))
 10845  000EB8  B243               	btfsc	i2USBStdFeatureReqHandler@current_ep_data^0,1,c
 10846  000EBA  EF61  F007         	goto	i2u356_41
 10847  000EBE  EF63  F007         	goto	i2u356_40
 10848  000EC2                     i2u356_41:
 10849  000EC2  EF6E  F007         	goto	i2l490
 10850  000EC6                     i2u356_40:
 10851  000EC6  C044  FFD9         	movff	i2USBStdFeatureReqHandler@p,fsr2l
 10852  000ECA  C045  FFDA         	movff	i2USBStdFeatureReqHandler@p+1,fsr2h
 10853  000ECE  AEDF               	btfss	indf2,7,c
 10854  000ED0  EF6C  F007         	goto	i2u357_41
 10855  000ED4  EF6E  F007         	goto	i2u357_40
 10856  000ED8                     i2u357_41:
 10857  000ED8  EFA4  F007         	goto	i2l4483
 10858  000EDC                     i2u357_40:
 10859  000EDC                     i2l490:
 10860                           
 10861                           ;usb_device.c: 2913:                 {;usb_device.c: 2914:                     if(SetupP
      +                          kt.EPDir == 0)
 10862  000EDC  0104               	movlb	4	; () banked
 10863  000EDE  BF34               	btfsc	52,7,b	;volatile
 10864  000EE0  EF74  F007         	goto	i2u358_41
 10865  000EE4  EF76  F007         	goto	i2u358_40
 10866  000EE8                     i2u358_41:
 10867  000EE8  EF83  F007         	goto	i2l4477
 10868  000EEC                     i2u358_40:
 10869  000EEC                     
 10870                           ; BSR set to: 4
 10871                           ;usb_device.c: 2915:                     {;usb_device.c: 2916:                         e
      +                          p_data_out[SetupPkt.EPNum].bits.transfer_terminated = 0;
 10872  000EEC  5134               	movf	52,w,b	;volatile
 10873  000EEE  0B0F               	andlw	15
 10874  000EF0  6E3F               	movwf	??i2_USBStdFeatureReqHandler^0,c
 10875  000EF2  6A40               	clrf	(??i2_USBStdFeatureReqHandler+1)^0,c
 10876  000EF4  0E15               	movlw	low _ep_data_out
 10877  000EF6  243F               	addwf	??i2_USBStdFeatureReqHandler^0,w,c
 10878  000EF8  6ED9               	movwf	fsr2l,c
 10879  000EFA  0E00               	movlw	high _ep_data_out
 10880  000EFC  2040               	addwfc	(??i2_USBStdFeatureReqHandler+1)^0,w,c
 10881  000EFE  6EDA               	movwf	fsr2h,c
 10882  000F00  92DF               	bcf	indf2,1,c
 10883                           
 10884                           ;usb_device.c: 2917:                     }
 10885  000F02  EF8E  F007         	goto	i2l4479
 10886  000F06                     i2l4477:
 10887                           
 10888                           ; BSR set to: 4
 10889                           ;usb_device.c: 2919:                     {;usb_device.c: 2920:                         e
      +                          p_data_in[SetupPkt.EPNum].bits.transfer_terminated = 0;
 10890  000F06  5134               	movf	52,w,b	;volatile
 10891  000F08  0B0F               	andlw	15
 10892  000F0A  6E3F               	movwf	??i2_USBStdFeatureReqHandler^0,c
 10893  000F0C  6A40               	clrf	(??i2_USBStdFeatureReqHandler+1)^0,c
 10894  000F0E  0E18               	movlw	low _ep_data_in
 10895  000F10  243F               	addwf	??i2_USBStdFeatureReqHandler^0,w,c
 10896  000F12  6ED9               	movwf	fsr2l,c
 10897  000F14  0E00               	movlw	high _ep_data_in
 10898  000F16  2040               	addwfc	(??i2_USBStdFeatureReqHandler+1)^0,w,c
 10899  000F18  6EDA               	movwf	fsr2h,c
 10900  000F1A  92DF               	bcf	indf2,1,c
 10901  000F1C                     i2l4479:
 10902                           
 10903                           ; BSR set to: 4
 10904                           ;usb_device.c: 2923:                     p->STAT.Val &= ~(0x80 | 0x40 | 0x04);
 10905  000F1C  C044  FFD9         	movff	i2USBStdFeatureReqHandler@p,fsr2l
 10906  000F20  C045  FFDA         	movff	i2USBStdFeatureReqHandler@p+1,fsr2h
 10907  000F24  0E3B               	movlw	59
 10908  000F26  16DF               	andwf	indf2,f,c
 10909  000F28                     
 10910                           ; BSR set to: 4
 10911                           ;usb_device.c: 2926:                     USER_USB_CALLBACK_EVENT_HANDLER((USB_EVENT)EVEN
      +                          T_TRANSFER_TERMINATED,p,sizeof(p));
 10912  000F28  0E00               	movlw	0
 10913  000F2A  6E38               	movwf	(i2USER_USB_CALLBACK_EVENT_HANDLER@event+1)^0,c
 10914  000F2C  0E05               	movlw	5
 10915  000F2E  6E37               	movwf	i2USER_USB_CALLBACK_EVENT_HANDLER@event^0,c
 10916  000F30  C044  F039         	movff	i2USBStdFeatureReqHandler@p,i2USER_USB_CALLBACK_EVENT_HANDLER@pdata
 10917  000F34  C045  F03A         	movff	i2USBStdFeatureReqHandler@p+1,i2USER_USB_CALLBACK_EVENT_HANDLER@pdata+1
 10918  000F38  0E00               	movlw	0
 10919  000F3A  6E3C               	movwf	(i2USER_USB_CALLBACK_EVENT_HANDLER@size+1)^0,c
 10920  000F3C  0E02               	movlw	2
 10921  000F3E  6E3B               	movwf	i2USER_USB_CALLBACK_EVENT_HANDLER@size^0,c
 10922  000F40  ECA7  F01C         	call	i2_USER_USB_CALLBACK_EVENT_HANDLER	;wreg free
 10923                           
 10924                           ;usb_device.c: 2927:                 }
 10925  000F44  EFAA  F007         	goto	i2l4485
 10926  000F48                     i2l4483:
 10927                           
 10928                           ;usb_device.c: 2929:                 {;usb_device.c: 2931:                     p->STAT.V
      +                          al &= ~(0x80 | 0x40 | 0x04);
 10929  000F48  C044  FFD9         	movff	i2USBStdFeatureReqHandler@p,fsr2l
 10930  000F4C  C045  FFDA         	movff	i2USBStdFeatureReqHandler@p+1,fsr2h
 10931  000F50  0E3B               	movlw	59
 10932  000F52  16DF               	andwf	indf2,f,c
 10933  000F54                     i2l4485:
 10934                           
 10935                           ;usb_device.c: 2979:                 pUEP = (unsigned char*)(&UEP0+SetupPkt.EPNum);
 10936  000F54  0104               	movlb	4	; () banked
 10937  000F56  5134               	movf	52,w,b	;volatile
 10938  000F58  0B0F               	andlw	15
 10939  000F5A  6E3F               	movwf	??i2_USBStdFeatureReqHandler^0,c
 10940  000F5C  6A40               	clrf	(??i2_USBStdFeatureReqHandler+1)^0,c
 10941  000F5E  0E70               	movlw	112
 10942  000F60  243F               	addwf	??i2_USBStdFeatureReqHandler^0,w,c
 10943  000F62  6E41               	movwf	i2USBStdFeatureReqHandler@pUEP^0,c
 10944  000F64  0E0F               	movlw	15
 10945  000F66  2040               	addwfc	(??i2_USBStdFeatureReqHandler+1)^0,w,c
 10946  000F68  6E42               	movwf	(i2USBStdFeatureReqHandler@pUEP+1)^0,c
 10947  000F6A                     
 10948                           ; BSR set to: 4
 10949                           ;usb_device.c: 2983:             *pUEP &= ~0x0001;
 10950  000F6A  C041  FFD9         	movff	i2USBStdFeatureReqHandler@pUEP,fsr2l
 10951  000F6E  C042  FFDA         	movff	i2USBStdFeatureReqHandler@pUEP+1,fsr2h
 10952  000F72  0EFE               	movlw	254
 10953  000F74  16DF               	andwf	indf2,f,c
 10954  000F76                     i2l494:
 10955                           
 10956                           ; BSR set to: 4
 10957  000F76  0012               	return		;funcret
 10958  000F78                     __end_ofi2_USBStdFeatureReqHandler:
 10959                           	opt callstack 0
 10960                           
 10961 ;; *************** function i2_USER_USB_CALLBACK_EVENT_HANDLER *****************
 10962 ;; Defined at:
 10963 ;;		line 49 in file "usb_device_events.c"
 10964 ;; Parameters:    Size  Location     Type
 10965 ;;  event           2   12[COMRAM] enum E44
 10966 ;;  pdata           2   14[COMRAM] PTR void 
 10967 ;;		 -> RAM(2047), USTATcopy(1), USBActiveConfiguration(1), NULL(0), 
 10968 ;;		 -> BDT(48), 
 10969 ;;  size            2   16[COMRAM] unsigned short 
 10970 ;; Auto vars:     Size  Location     Type
 10971 ;;		None
 10972 ;; Return value:  Size  Location     Type
 10973 ;;                  1    wreg      _Bool 
 10974 ;; Registers used:
 10975 ;;		wreg, fsr2l, fsr2h, status,2, status,0, prodl, prodh, cstack
 10976 ;; Tracked objects:
 10977 ;;		On entry : 0/0
 10978 ;;		On exit  : 0/0
 10979 ;;		Unchanged: 0/0
 10980 ;; Data sizes:     COMRAM   BANK0   BANK1   BANK2   BANK3  BANK4h  BANK4l   BANK5   BANK6   BANK7
 10981 ;;      Params:         6       0       0       0       0       0       0       0       0       0
 10982 ;;      Locals:         0       0       0       0       0       0       0       0       0       0
 10983 ;;      Temps:          2       0       0       0       0       0       0       0       0       0
 10984 ;;      Totals:         8       0       0       0       0       0       0       0       0       0
 10985 ;;Total ram usage:        8 bytes
 10986 ;; Hardware stack levels used:    1
 10987 ;; Hardware stack levels required when called:    3
 10988 ;; This function calls:
 10989 ;;		i2_CDCInitEP
 10990 ;;		i2_USBCheckCDCRequest
 10991 ;; This function is called by:
 10992 ;;		i2_USBDeviceTasks
 10993 ;;		i2_USBStdSetCfgHandler
 10994 ;;		i2_USBSuspend
 10995 ;;		i2_USBWakeFromSuspend
 10996 ;;		i2_USBCtrlTrfSetupHandler
 10997 ;;		i2_USBCheckStdRequest
 10998 ;;		i2_USBStdFeatureReqHandler
 10999 ;; This function uses a non-reentrant model
 11000 ;;
 11001                           
 11002                           	psect	text56
 11003  00394E                     __ptext56:
 11004                           	opt callstack 0
 11005  00394E                     i2_USER_USB_CALLBACK_EVENT_HANDLER:
 11006                           	opt callstack 15
 11007  00394E                     
 11008                           ;usb_device_events.c: 49: _Bool USER_USB_CALLBACK_EVENT_HANDLER(USB_EVENT event, void *p
      +                          data, uint16_t size);usb_device_events.c: 50: {;usb_device_events.c: 51:     switch( (in
      +                          t) event )
 11009  00394E  EFB1  F01C         	goto	i2l4103
 11010  003952                     i2l4097:
 11011                           
 11012                           ;usb_device_events.c: 76:             CDCInitEP();
 11013  003952  ECC6  F01D         	call	i2_CDCInitEP	;wreg free
 11014                           
 11015                           ;usb_device_events.c: 77:             break;
 11016  003956  EFEA  F01C         	goto	i2l641
 11017  00395A                     i2l4099:
 11018                           
 11019                           ;usb_device_events.c: 85:             USBCheckCDCRequest();
 11020  00395A  EC60  F017         	call	i2_USBCheckCDCRequest	;wreg free
 11021                           
 11022                           ;usb_device_events.c: 86:             break;
 11023  00395E  EFEA  F01C         	goto	i2l641
 11024  003962                     i2l4103:
 11025  003962  C037  F03D         	movff	i2USER_USB_CALLBACK_EVENT_HANDLER@event,??i2_USER_USB_CALLBACK_EVENT_HANDLER
 11026  003966  C038  F03E         	movff	i2USER_USB_CALLBACK_EVENT_HANDLER@event+1,??i2_USER_USB_CALLBACK_EVENT_HANDLER+1
 11027                           
 11028                           ; Switch on 2 bytes has been partitioned into a top level switch of size 1, and 2 sub-sw
      +                          itches
 11029                           ; Switch size 1, requested type "simple"
 11030                           ; Number of cases is 2, Range of values is 0 to 127
 11031                           ; switch strategies available:
 11032                           ; Name         Instructions Cycles
 11033                           ; simple_byte            7     4 (average)
 11034                           ;	Chosen strategy is simple_byte
 11035  00396A  503E               	movf	(??i2_USER_USB_CALLBACK_EVENT_HANDLER+1)^0,w,c
 11036  00396C  0A00               	xorlw	0	; case 0
 11037  00396E  B4D8               	btfsc	status,2,c
 11038  003970  EFC0  F01C         	goto	i2l7755
 11039  003974  0A7F               	xorlw	127	; case 127
 11040  003976  B4D8               	btfsc	status,2,c
 11041  003978  EFE3  F01C         	goto	i2l7757
 11042  00397C  EFEA  F01C         	goto	i2l641
 11043  003980                     i2l7755:
 11044                           
 11045                           ; Switch size 1, requested type "simple"
 11046                           ; Number of cases is 8, Range of values is 1 to 117
 11047                           ; switch strategies available:
 11048                           ; Name         Instructions Cycles
 11049                           ; simple_byte           25    13 (average)
 11050                           ;	Chosen strategy is simple_byte
 11051  003980  503D               	movf	??i2_USER_USB_CALLBACK_EVENT_HANDLER^0,w,c
 11052  003982  0A01               	xorlw	1	; case 1
 11053  003984  B4D8               	btfsc	status,2,c
 11054  003986  EFA9  F01C         	goto	i2l4097
 11055  00398A  0A03               	xorlw	3	; case 2
 11056  00398C  B4D8               	btfsc	status,2,c
 11057  00398E  EFEA  F01C         	goto	i2l641
 11058  003992  0A01               	xorlw	1	; case 3
 11059  003994  B4D8               	btfsc	status,2,c
 11060  003996  EFAD  F01C         	goto	i2l4099
 11061  00399A  0A06               	xorlw	6	; case 5
 11062  00399C  B4D8               	btfsc	status,2,c
 11063  00399E  EFEA  F01C         	goto	i2l641
 11064  0039A2  0A77               	xorlw	119	; case 114
 11065  0039A4  B4D8               	btfsc	status,2,c
 11066  0039A6  EFEA  F01C         	goto	i2l641
 11067  0039AA  0A01               	xorlw	1	; case 115
 11068  0039AC  B4D8               	btfsc	status,2,c
 11069  0039AE  EFEA  F01C         	goto	i2l641
 11070  0039B2  0A07               	xorlw	7	; case 116
 11071  0039B4  B4D8               	btfsc	status,2,c
 11072  0039B6  EFEA  F01C         	goto	i2l641
 11073  0039BA  0A01               	xorlw	1	; case 117
 11074  0039BC  B4D8               	btfsc	status,2,c
 11075  0039BE  EFEA  F01C         	goto	i2l641
 11076  0039C2  EFEA  F01C         	goto	i2l641
 11077  0039C6                     i2l7757:
 11078                           
 11079                           ; Switch size 1, requested type "simple"
 11080                           ; Number of cases is 1, Range of values is 255 to 255
 11081                           ; switch strategies available:
 11082                           ; Name         Instructions Cycles
 11083                           ; simple_byte            4     3 (average)
 11084                           ;	Chosen strategy is simple_byte
 11085  0039C6  503D               	movf	??i2_USER_USB_CALLBACK_EVENT_HANDLER^0,w,c
 11086  0039C8  0AFF               	xorlw	255	; case 255
 11087  0039CA  B4D8               	btfsc	status,2,c
 11088  0039CC  EFEA  F01C         	goto	i2l641
 11089  0039D0  EFEA  F01C         	goto	i2l641
 11090  0039D4                     i2l641:
 11091  0039D4  0012               	return		;funcret
 11092  0039D6                     __end_ofi2_USER_USB_CALLBACK_EVENT_HANDLER:
 11093                           	opt callstack 0
 11094                           
 11095 ;; *************** function i2_USBCheckCDCRequest *****************
 11096 ;; Defined at:
 11097 ;;		line 147 in file "usb_device_cdc.c"
 11098 ;; Parameters:    Size  Location     Type
 11099 ;;		None
 11100 ;; Auto vars:     Size  Location     Type
 11101 ;;		None
 11102 ;; Return value:  Size  Location     Type
 11103 ;;                  1    wreg      void 
 11104 ;; Registers used:
 11105 ;;		wreg, status,2, status,0
 11106 ;; Tracked objects:
 11107 ;;		On entry : 0/0
 11108 ;;		On exit  : 0/0
 11109 ;;		Unchanged: 0/0
 11110 ;; Data sizes:     COMRAM   BANK0   BANK1   BANK2   BANK3  BANK4h  BANK4l   BANK5   BANK6   BANK7
 11111 ;;      Params:         0       0       0       0       0       0       0       0       0       0
 11112 ;;      Locals:         0       0       0       0       0       0       0       0       0       0
 11113 ;;      Temps:          2       0       0       0       0       0       0       0       0       0
 11114 ;;      Totals:         2       0       0       0       0       0       0       0       0       0
 11115 ;;Total ram usage:        2 bytes
 11116 ;; Hardware stack levels used:    1
 11117 ;; This function calls:
 11118 ;;		Nothing
 11119 ;; This function is called by:
 11120 ;;		i2_USER_USB_CALLBACK_EVENT_HANDLER
 11121 ;; This function uses a non-reentrant model
 11122 ;;
 11123                           
 11124                           	psect	text57
 11125  002EC0                     __ptext57:
 11126                           	opt callstack 0
 11127  002EC0                     i2_USBCheckCDCRequest:
 11128                           	opt callstack 17
 11129  002EC0                     
 11130                           ;usb_device_cdc.c: 152:     if(SetupPkt.Recipient != (0x01)) return;
 11131  002EC0  0104               	movlb	4	; () banked
 11132  002EC2  5130               	movf	48,w,b	;volatile
 11133  002EC4  0B1F               	andlw	31
 11134  002EC6  06E8               	decf	wreg,f,c
 11135  002EC8  B4D8               	btfsc	status,2,c
 11136  002ECA  EF69  F017         	goto	i2u288_41
 11137  002ECE  EF6B  F017         	goto	i2u288_40
 11138  002ED2                     i2u288_41:
 11139  002ED2  EF6D  F017         	goto	i2l3939
 11140  002ED6                     i2u288_40:
 11141  002ED6  EFE0  F017         	goto	i2l550
 11142  002EDA                     i2l3939:
 11143                           
 11144                           ; BSR set to: 4
 11145                           ;usb_device_cdc.c: 157:     if(SetupPkt.RequestType != (0x20>>5)) return;
 11146  002EDA  3930               	swapf	48,w,b	;volatile
 11147  002EDC  32E8               	rrcf	wreg,f,c
 11148  002EDE  0B03               	andlw	3
 11149  002EE0  06E8               	decf	wreg,f,c
 11150  002EE2  B4D8               	btfsc	status,2,c
 11151  002EE4  EF76  F017         	goto	i2u289_41
 11152  002EE8  EF78  F017         	goto	i2u289_40
 11153  002EEC                     i2u289_41:
 11154  002EEC  EF7A  F017         	goto	i2l3943
 11155  002EF0                     i2u289_40:
 11156  002EF0  EFE0  F017         	goto	i2l550
 11157  002EF4                     i2l3943:
 11158                           
 11159                           ; BSR set to: 4
 11160                           ;usb_device_cdc.c: 163:     if((SetupPkt.bIntfID != 0x0)&&
 11161  002EF4  5134               	movf	52,w,b	;volatile
 11162  002EF6  B4D8               	btfsc	status,2,c
 11163  002EF8  EF80  F017         	goto	i2u290_41
 11164  002EFC  EF82  F017         	goto	i2u290_40
 11165  002F00                     i2u290_41:
 11166  002F00  EFBF  F017         	goto	i2l3973
 11167  002F04                     i2u290_40:
 11168  002F04                     
 11169                           ; BSR set to: 4
 11170  002F04  0534               	decf	52,w,b	;volatile
 11171  002F06  B4D8               	btfsc	status,2,c
 11172  002F08  EF88  F017         	goto	i2u291_41
 11173  002F0C  EF8A  F017         	goto	i2u291_40
 11174  002F10                     i2u291_41:
 11175  002F10  EFBF  F017         	goto	i2l3973
 11176  002F14                     i2u291_40:
 11177  002F14  EFE0  F017         	goto	i2l550
 11178  002F18                     i2l3949:
 11179                           
 11180                           ; BSR set to: 4
 11181                           ;usb_device_cdc.c: 171:             inPipes[0].pSrc.bRam = (uint8_t*)&dummy_encapsulated
      +                          _cmd_response;
 11182  002F18  0ECD               	movlw	low _dummy_encapsulated_cmd_response
 11183  002F1A  6E09               	movwf	_inPipes^0,c	;volatile
 11184  002F1C  0E00               	movlw	high _dummy_encapsulated_cmd_response
 11185  002F1E  6E0A               	movwf	(_inPipes+1)^0,c	;volatile
 11186  002F20                     
 11187                           ; BSR set to: 4
 11188                           ;usb_device_cdc.c: 172:             inPipes[0].wCount.Val = 0x08;
 11189  002F20  0E00               	movlw	0
 11190  002F22  6E0E               	movwf	(_inPipes+5)^0,c	;volatile
 11191  002F24  0E08               	movlw	8
 11192  002F26  6E0D               	movwf	(_inPipes+4)^0,c	;volatile
 11193  002F28                     
 11194                           ; BSR set to: 4
 11195                           ;usb_device_cdc.c: 173:             inPipes[0].info.bits.ctrl_trf_mem = 0x01;
 11196  002F28  800C               	bsf	(_inPipes+3)^0,0,c	;volatile
 11197  002F2A                     
 11198                           ; BSR set to: 4
 11199                           ;usb_device_cdc.c: 174:             inPipes[0].info.bits.busy = 1;
 11200  002F2A  8E0C               	bsf	(_inPipes+3)^0,7,c	;volatile
 11201                           
 11202                           ;usb_device_cdc.c: 175:             break;
 11203  002F2C  EFE0  F017         	goto	i2l550
 11204  002F30                     i2l3957:
 11205                           
 11206                           ; BSR set to: 4
 11207                           ;usb_device_cdc.c: 178:             inPipes[0].pSrc.bRam = (uint8_t*)&dummy_encapsulated
      +                          _cmd_response;
 11208  002F30  0ECD               	movlw	low _dummy_encapsulated_cmd_response
 11209  002F32  6E09               	movwf	_inPipes^0,c	;volatile
 11210  002F34  0E00               	movlw	high _dummy_encapsulated_cmd_response
 11211  002F36  6E0A               	movwf	(_inPipes+1)^0,c	;volatile
 11212  002F38                     
 11213                           ; BSR set to: 4
 11214                           ;usb_device_cdc.c: 179:             inPipes[0].info.bits.busy = 1;
 11215  002F38  8E0C               	bsf	(_inPipes+3)^0,7,c	;volatile
 11216                           
 11217                           ;usb_device_cdc.c: 180:             break;
 11218  002F3A  EFE0  F017         	goto	i2l550
 11219  002F3E                     i2l557:
 11220                           
 11221                           ; BSR set to: 4
 11222                           ;usb_device_cdc.c: 185:             outPipes[0].wCount.Val = SetupPkt.wLength;
 11223  002F3E  C436 F005          	movff	1078,_outPipes+4	;volatile
 11224  002F42  C437 F006          	movff	1079,_outPipes+5	;volatile
 11225  002F46                     
 11226                           ; BSR set to: 4
 11227                           ;usb_device_cdc.c: 186:             outPipes[0].pDst.bRam = (uint8_t*)&line_coding._byte
      +                          [0];
 11228  002F46  0ED5               	movlw	low _line_coding
 11229  002F48  6E01               	movwf	_outPipes^0,c	;volatile
 11230  002F4A  0E00               	movlw	high _line_coding
 11231  002F4C  6E02               	movwf	(_outPipes+1)^0,c	;volatile
 11232                           
 11233                           ;usb_device_cdc.c: 187:             outPipes[0].pFunc = ((void*)0);
 11234  002F4E  0E00               	movlw	0
 11235  002F50  6E07               	movwf	(_outPipes+6)^0,c	;volatile
 11236  002F52  0E00               	movlw	0
 11237  002F54  6E08               	movwf	(_outPipes+7)^0,c	;volatile
 11238  002F56                     
 11239                           ; BSR set to: 4
 11240                           ;usb_device_cdc.c: 188:             outPipes[0].info.bits.busy = 1;
 11241  002F56  8E04               	bsf	(_outPipes+3)^0,7,c	;volatile
 11242                           
 11243                           ;usb_device_cdc.c: 189:             break;
 11244  002F58  EFE0  F017         	goto	i2l550
 11245  002F5C                     i2l3965:
 11246                           
 11247                           ; BSR set to: 4
 11248                           ;usb_device_cdc.c: 192:             { inPipes[0].pSrc.bRam = (uint8_t*)&line_coding; inP
      +                          ipes[0].wCount.Val = 0x07; inPipes[0].info.Val = 0x40 | 0x80 | 0x01; };
 11249  002F5C  0ED5               	movlw	low _line_coding
 11250  002F5E  6E09               	movwf	_inPipes^0,c	;volatile
 11251  002F60  0E00               	movlw	high _line_coding
 11252  002F62  6E0A               	movwf	(_inPipes+1)^0,c	;volatile
 11253  002F64                     
 11254                           ; BSR set to: 4
 11255  002F64  0E00               	movlw	0
 11256  002F66  6E0E               	movwf	(_inPipes+5)^0,c	;volatile
 11257  002F68  0E07               	movlw	7
 11258  002F6A  6E0D               	movwf	(_inPipes+4)^0,c	;volatile
 11259  002F6C                     
 11260                           ; BSR set to: 4
 11261  002F6C  0EC1               	movlw	193
 11262  002F6E  6E0C               	movwf	(_inPipes+3)^0,c	;volatile
 11263                           
 11264                           ;usb_device_cdc.c: 196:             break;
 11265  002F70  EFE0  F017         	goto	i2l550
 11266  002F74                     i2l559:
 11267                           
 11268                           ; BSR set to: 4
 11269                           ;usb_device_cdc.c: 199:             control_signal_bitmap._byte = (uint8_t)SetupPkt.wVal
      +                          ue;
 11270  002F74  C432 F0C4          	movff	1074,_control_signal_bitmap	;volatile
 11271                           
 11272                           ;usb_device_cdc.c: 231:             inPipes[0].info.bits.busy = 1;
 11273  002F78  8E0C               	bsf	(_inPipes+3)^0,7,c	;volatile
 11274                           
 11275                           ;usb_device_cdc.c: 232:             break;
 11276  002F7A  EFE0  F017         	goto	i2l550
 11277  002F7E                     i2l3973:
 11278                           
 11279                           ; BSR set to: 4
 11280  002F7E  5131               	movf	49,w,b	;volatile
 11281  002F80  6E2B               	movwf	??i2_USBCheckCDCRequest^0,c
 11282  002F82  6A2C               	clrf	(??i2_USBCheckCDCRequest+1)^0,c
 11283                           
 11284                           ; Switch on 2 bytes has been partitioned into a top level switch of size 1, and 1 sub-sw
      +                          itches
 11285                           ; Switch size 1, requested type "simple"
 11286                           ; Number of cases is 1, Range of values is 0 to 0
 11287                           ; switch strategies available:
 11288                           ; Name         Instructions Cycles
 11289                           ; simple_byte            4     3 (average)
 11290                           ;	Chosen strategy is simple_byte
 11291  002F84  502C               	movf	(??i2_USBCheckCDCRequest+1)^0,w,c
 11292  002F86  0A00               	xorlw	0	; case 0
 11293  002F88  B4D8               	btfsc	status,2,c
 11294  002F8A  EFC9  F017         	goto	i2l7759
 11295  002F8E  EFE0  F017         	goto	i2l550
 11296  002F92                     i2l7759:
 11297                           
 11298                           ; BSR set to: 4
 11299                           ; Switch size 1, requested type "simple"
 11300                           ; Number of cases is 5, Range of values is 0 to 34
 11301                           ; switch strategies available:
 11302                           ; Name         Instructions Cycles
 11303                           ; simple_byte           16     9 (average)
 11304                           ;	Chosen strategy is simple_byte
 11305  002F92  502B               	movf	??i2_USBCheckCDCRequest^0,w,c
 11306  002F94  0A00               	xorlw	0	; case 0
 11307  002F96  B4D8               	btfsc	status,2,c
 11308  002F98  EF8C  F017         	goto	i2l3949
 11309  002F9C  0A01               	xorlw	1	; case 1
 11310  002F9E  B4D8               	btfsc	status,2,c
 11311  002FA0  EF98  F017         	goto	i2l3957
 11312  002FA4  0A21               	xorlw	33	; case 32
 11313  002FA6  B4D8               	btfsc	status,2,c
 11314  002FA8  EF9F  F017         	goto	i2l557
 11315  002FAC  0A01               	xorlw	1	; case 33
 11316  002FAE  B4D8               	btfsc	status,2,c
 11317  002FB0  EFAE  F017         	goto	i2l3965
 11318  002FB4  0A03               	xorlw	3	; case 34
 11319  002FB6  B4D8               	btfsc	status,2,c
 11320  002FB8  EFBA  F017         	goto	i2l559
 11321  002FBC  EFE0  F017         	goto	i2l550
 11322  002FC0                     i2l550:
 11323                           
 11324                           ; BSR set to: 4
 11325  002FC0  0012               	return		;funcret
 11326  002FC2                     __end_ofi2_USBCheckCDCRequest:
 11327                           	opt callstack 0
 11328                           
 11329 ;; *************** function i2_CDCInitEP *****************
 11330 ;; Defined at:
 11331 ;;		line 294 in file "usb_device_cdc.c"
 11332 ;; Parameters:    Size  Location     Type
 11333 ;;		None
 11334 ;; Auto vars:     Size  Location     Type
 11335 ;;		None
 11336 ;; Return value:  Size  Location     Type
 11337 ;;                  1    wreg      void 
 11338 ;; Registers used:
 11339 ;;		wreg, fsr2l, fsr2h, status,2, status,0, prodl, prodh, cstack
 11340 ;; Tracked objects:
 11341 ;;		On entry : 0/0
 11342 ;;		On exit  : 0/0
 11343 ;;		Unchanged: 0/0
 11344 ;; Data sizes:     COMRAM   BANK0   BANK1   BANK2   BANK3  BANK4h  BANK4l   BANK5   BANK6   BANK7
 11345 ;;      Params:         0       0       0       0       0       0       0       0       0       0
 11346 ;;      Locals:         0       0       0       0       0       0       0       0       0       0
 11347 ;;      Temps:          0       0       0       0       0       0       0       0       0       0
 11348 ;;      Totals:         0       0       0       0       0       0       0       0       0       0
 11349 ;;Total ram usage:        0 bytes
 11350 ;; Hardware stack levels used:    1
 11351 ;; Hardware stack levels required when called:    2
 11352 ;; This function calls:
 11353 ;;		i2_USBEnableEndpoint
 11354 ;;		i2_USBTransferOnePacket
 11355 ;; This function is called by:
 11356 ;;		i2_USER_USB_CALLBACK_EVENT_HANDLER
 11357 ;; This function uses a non-reentrant model
 11358 ;;
 11359                           
 11360                           	psect	text58
 11361  003B8C                     __ptext58:
 11362                           	opt callstack 0
 11363  003B8C                     i2_CDCInitEP:
 11364                           	opt callstack 15
 11365  003B8C                     
 11366                           ;usb_device_cdc.c: 297:     line_coding.dwDTERate = 19200;
 11367  003B8C  0E00               	movlw	0
 11368  003B8E  0100               	movlb	0	; () banked
 11369  003B90  6FD5               	movwf	_line_coding& (0+255),b
 11370  003B92  0E4B               	movlw	75
 11371  003B94  6FD6               	movwf	(_line_coding+1)& (0+255),b
 11372  003B96  0E00               	movlw	0
 11373  003B98  6FD7               	movwf	(_line_coding+2)& (0+255),b
 11374  003B9A  0E00               	movlw	0
 11375  003B9C  6FD8               	movwf	(_line_coding+3)& (0+255),b
 11376                           
 11377                           ;usb_device_cdc.c: 298:     line_coding.bCharFormat = 0x00;
 11378  003B9E  0E00               	movlw	0
 11379  003BA0  6FD9               	movwf	(_line_coding+4)& (0+255),b
 11380                           
 11381                           ;usb_device_cdc.c: 299:     line_coding.bParityType = 0x00;
 11382  003BA2  0E00               	movlw	0
 11383  003BA4  6FDA               	movwf	(_line_coding+5)& (0+255),b
 11384                           
 11385                           ;usb_device_cdc.c: 300:     line_coding.bDataBits = 0x08;
 11386  003BA6  0E08               	movlw	8
 11387  003BA8  6FDB               	movwf	(_line_coding+6)& (0+255),b
 11388                           
 11389                           ;usb_device_cdc.c: 302:     cdc_rx_len = 0;
 11390  003BAA  0E00               	movlw	0
 11391  003BAC  6FC7               	movwf	_cdc_rx_len& (0+255),b
 11392  003BAE                     
 11393                           ; BSR set to: 0
 11394                           ;usb_device_cdc.c: 315:     USBEnableEndpoint(1,0x02|0x10|0x08);
 11395  003BAE  0E1A               	movlw	26
 11396  003BB0  6E33               	movwf	i2USBEnableEndpoint@options^0,c
 11397  003BB2  0E01               	movlw	1
 11398  003BB4  EC30  F01F         	call	i2_USBEnableEndpoint
 11399  003BB8                     
 11400                           ;usb_device_cdc.c: 316:     USBEnableEndpoint(2,0x02|0x04|0x10|0x08);
 11401  003BB8  0E1E               	movlw	30
 11402  003BBA  6E33               	movwf	i2USBEnableEndpoint@options^0,c
 11403  003BBC  0E02               	movlw	2
 11404  003BBE  EC30  F01F         	call	i2_USBEnableEndpoint
 11405  003BC2                     
 11406                           ;usb_device_cdc.c: 318:     CDCDataOutHandle = USBTransferOnePacket(2,0,(uint8_t*)&cdc_d
      +                          ata_rx,sizeof(cdc_data_rx));
 11407  003BC2  0E00               	movlw	0
 11408  003BC4  6E2B               	movwf	i2USBTransferOnePacket@dir^0,c
 11409  003BC6  0E40               	movlw	64
 11410  003BC8  6E2C               	movwf	i2USBTransferOnePacket@data^0,c
 11411  003BCA  0E05               	movlw	5
 11412  003BCC  6E2D               	movwf	(i2USBTransferOnePacket@data+1)^0,c
 11413  003BCE  0E40               	movlw	64
 11414  003BD0  6E2E               	movwf	i2USBTransferOnePacket@len^0,c
 11415  003BD2  0E02               	movlw	2
 11416  003BD4  EC02  F012         	call	i2_USBTransferOnePacket
 11417  003BD8  C02B  F0C0         	movff	?i2_USBTransferOnePacket,_CDCDataOutHandle
 11418  003BDC  C02C  F0C1         	movff	?i2_USBTransferOnePacket+1,_CDCDataOutHandle+1
 11419  003BE0                     
 11420                           ;usb_device_cdc.c: 319:     CDCDataInHandle = ((void*)0);
 11421  003BE0  0E00               	movlw	0
 11422  003BE2  0100               	movlb	0	; () banked
 11423  003BE4  6FBE               	movwf	_CDCDataInHandle& (0+255),b
 11424  003BE6  0E00               	movlw	0
 11425  003BE8  6FBF               	movwf	(_CDCDataInHandle+1)& (0+255),b
 11426  003BEA                     
 11427                           ; BSR set to: 0
 11428                           ;usb_device_cdc.c: 346:     cdc_trf_state = 0;
 11429  003BEA  0E00               	movlw	0
 11430  003BEC  6E1F               	movwf	_cdc_trf_state^0,c
 11431  003BEE                     
 11432                           ; BSR set to: 0
 11433  003BEE  0012               	return		;funcret
 11434  003BF0                     __end_ofi2_CDCInitEP:
 11435                           	opt callstack 0
 11436                           
 11437 ;; *************** function i2_USBTransferOnePacket *****************
 11438 ;; Defined at:
 11439 ;;		line 1001 in file "usb_device.c"
 11440 ;; Parameters:    Size  Location     Type
 11441 ;;  ep              1    wreg     unsigned char 
 11442 ;;  dir             1    0[COMRAM] unsigned char 
 11443 ;;  data            2    1[COMRAM] PTR unsigned char 
 11444 ;;		 -> cdc_data_tx(64), cdc_data_rx(64), NULL(0), 
 11445 ;;  len             1    3[COMRAM] unsigned char 
 11446 ;; Auto vars:     Size  Location     Type
 11447 ;;  ep              1    8[COMRAM] unsigned char 
 11448 ;;  USBTransferO    2    9[COMRAM] PTR volatile struct __BD
 11449 ;;		 -> RAM(2047), NULL(0), BDT(48), 
 11450 ;; Return value:  Size  Location     Type
 11451 ;;                  2    0[COMRAM] PTR void 
 11452 ;; Registers used:
 11453 ;;		wreg, fsr2l, fsr2h, status,2, status,0, prodl, prodh
 11454 ;; Tracked objects:
 11455 ;;		On entry : 0/0
 11456 ;;		On exit  : 0/0
 11457 ;;		Unchanged: 0/0
 11458 ;; Data sizes:     COMRAM   BANK0   BANK1   BANK2   BANK3  BANK4h  BANK4l   BANK5   BANK6   BANK7
 11459 ;;      Params:         4       0       0       0       0       0       0       0       0       0
 11460 ;;      Locals:         3       0       0       0       0       0       0       0       0       0
 11461 ;;      Temps:          4       0       0       0       0       0       0       0       0       0
 11462 ;;      Totals:        11       0       0       0       0       0       0       0       0       0
 11463 ;;Total ram usage:       11 bytes
 11464 ;; Hardware stack levels used:    1
 11465 ;; This function calls:
 11466 ;;		Nothing
 11467 ;; This function is called by:
 11468 ;;		i2_CDCInitEP
 11469 ;; This function uses a non-reentrant model
 11470 ;;
 11471                           
 11472                           	psect	text59
 11473  002404                     __ptext59:
 11474                           	opt callstack 0
 11475  002404                     i2_USBTransferOnePacket:
 11476                           	opt callstack 16
 11477                           
 11478                           ; BSR set to: 0
 11479                           ;incstack = 0
 11480                           ;i2USBTransferOnePacket@ep stored from wreg
 11481  002404  6E33               	movwf	i2USBTransferOnePacket@ep^0,c
 11482  002406                     
 11483                           ;usb_device.c: 1001: void* USBTransferOnePacket(uint8_t ep,uint8_t dir,uint8_t* data,uin
      +                          t8_t len);usb_device.c: 1002: {;usb_device.c: 1003:     volatile BDT_ENTRY* handle;;usb_
      +                          device.c: 1006:     if(dir != 0)
 11484  002406  502B               	movf	i2USBTransferOnePacket@dir^0,w,c
 11485  002408  B4D8               	btfsc	status,2,c
 11486  00240A  EF09  F012         	goto	i2u280_41
 11487  00240E  EF0B  F012         	goto	i2u280_40
 11488  002412                     i2u280_41:
 11489  002412  EF19  F012         	goto	i2l3867
 11490  002416                     i2u280_40:
 11491  002416                     
 11492                           ;usb_device.c: 1007:     {;usb_device.c: 1009:         handle = pBDTEntryIn[ep];
 11493  002416  5033               	movf	i2USBTransferOnePacket@ep^0,w,c
 11494  002418  0D02               	mullw	2
 11495  00241A  0E0F               	movlw	low _pBDTEntryIn
 11496  00241C  24F3               	addwf	243,w,c
 11497  00241E  6ED9               	movwf	fsr2l,c
 11498  002420  0E00               	movlw	high _pBDTEntryIn
 11499  002422  20F4               	addwfc	prodh,w,c
 11500  002424  6EDA               	movwf	fsr2h,c
 11501  002426  CFDE F034          	movff	postinc2,i2USBTransferOnePacket@handle
 11502  00242A  CFDD F035          	movff	postdec2,i2USBTransferOnePacket@handle+1
 11503                           
 11504                           ;usb_device.c: 1010:     }
 11505  00242E  EF25  F012         	goto	i2l3869
 11506  002432                     i2l3867:
 11507                           
 11508                           ;usb_device.c: 1012:     {;usb_device.c: 1014:         handle = pBDTEntryOut[ep];
 11509  002432  5033               	movf	i2USBTransferOnePacket@ep^0,w,c
 11510  002434  0D02               	mullw	2
 11511  002436  0EAA               	movlw	low _pBDTEntryOut
 11512  002438  24F3               	addwf	243,w,c
 11513  00243A  6ED9               	movwf	fsr2l,c
 11514  00243C  0E00               	movlw	high _pBDTEntryOut
 11515  00243E  20F4               	addwfc	prodh,w,c
 11516  002440  6EDA               	movwf	fsr2h,c
 11517  002442  CFDE F034          	movff	postinc2,i2USBTransferOnePacket@handle
 11518  002446  CFDD F035          	movff	postdec2,i2USBTransferOnePacket@handle+1
 11519  00244A                     i2l3869:
 11520                           
 11521                           ;usb_device.c: 1019:     if(handle == 0)
 11522  00244A  5034               	movf	i2USBTransferOnePacket@handle^0,w,c
 11523  00244C  1035               	iorwf	(i2USBTransferOnePacket@handle+1)^0,w,c
 11524  00244E  A4D8               	btfss	status,2,c
 11525  002450  EF2C  F012         	goto	i2u281_41
 11526  002454  EF2E  F012         	goto	i2u281_40
 11527  002458                     i2u281_41:
 11528  002458  EF34  F012         	goto	i2l3875
 11529  00245C                     i2u281_40:
 11530  00245C                     
 11531                           ;usb_device.c: 1020:     {;usb_device.c: 1021:         return 0;
 11532  00245C  0E00               	movlw	0
 11533  00245E  6E2B               	movwf	?i2_USBTransferOnePacket^0,c
 11534  002460  0E00               	movlw	0
 11535  002462  6E2C               	movwf	(?i2_USBTransferOnePacket+1)^0,c
 11536  002464  EFA0  F012         	goto	i2l287
 11537  002468                     i2l3875:
 11538                           
 11539                           ;usb_device.c: 1035:     handle->ADR = ((uint16_t)(data));
 11540  002468  EE20 F002          	lfsr	2,2
 11541  00246C  5034               	movf	i2USBTransferOnePacket@handle^0,w,c
 11542  00246E  26D9               	addwf	fsr2l,f,c
 11543  002470  5035               	movf	(i2USBTransferOnePacket@handle+1)^0,w,c
 11544  002472  22DA               	addwfc	fsr2h,f,c
 11545  002474  C02C  FFDE         	movff	i2USBTransferOnePacket@data,postinc2
 11546  002478  C02D  FFDD         	movff	i2USBTransferOnePacket@data+1,postdec2
 11547                           
 11548                           ;usb_device.c: 1036:     handle->CNT = len;
 11549  00247C  EE20 F001          	lfsr	2,1
 11550  002480  5034               	movf	i2USBTransferOnePacket@handle^0,w,c
 11551  002482  26D9               	addwf	fsr2l,f,c
 11552  002484  5035               	movf	(i2USBTransferOnePacket@handle+1)^0,w,c
 11553  002486  22DA               	addwfc	fsr2h,f,c
 11554  002488  C02E  FFDF         	movff	i2USBTransferOnePacket@len,indf2
 11555  00248C                     
 11556                           ;usb_device.c: 1037:     handle->STAT.Val &= 0x40;
 11557  00248C  C034  FFD9         	movff	i2USBTransferOnePacket@handle,fsr2l
 11558  002490  C035  FFDA         	movff	i2USBTransferOnePacket@handle+1,fsr2h
 11559  002494  0E40               	movlw	64
 11560  002496  16DF               	andwf	indf2,f,c
 11561  002498                     
 11562                           ;usb_device.c: 1038:     handle->STAT.Val |= (0x08 & 0x08);
 11563  002498  C034  FFD9         	movff	i2USBTransferOnePacket@handle,fsr2l
 11564  00249C  C035  FFDA         	movff	i2USBTransferOnePacket@handle+1,fsr2h
 11565  0024A0  0E00               	movlw	0
 11566  0024A2  86DB               	bsf	plusw2,3,c
 11567  0024A4                     
 11568                           ;usb_device.c: 1039:     handle->STAT.Val |= 0x80;
 11569  0024A4  C034  FFD9         	movff	i2USBTransferOnePacket@handle,fsr2l
 11570  0024A8  C035  FFDA         	movff	i2USBTransferOnePacket@handle+1,fsr2h
 11571  0024AC  0E00               	movlw	0
 11572  0024AE  8EDB               	bsf	plusw2,7,c
 11573  0024B0                     
 11574                           ;usb_device.c: 1042:     if(dir != 0)
 11575  0024B0  502B               	movf	i2USBTransferOnePacket@dir^0,w,c
 11576  0024B2  B4D8               	btfsc	status,2,c
 11577  0024B4  EF5E  F012         	goto	i2u282_41
 11578  0024B8  EF60  F012         	goto	i2u282_40
 11579  0024BC                     i2u282_41:
 11580  0024BC  EF7F  F012         	goto	i2l3887
 11581  0024C0                     i2u282_40:
 11582  0024C0                     
 11583                           ;usb_device.c: 1043:     {;usb_device.c: 1045:         pBDTEntryIn[ep] = (BDT_ENTRY*)(((
      +                          uint16_t)pBDTEntryIn[ep]) ^ 0x0004);
 11584  0024C0  5033               	movf	i2USBTransferOnePacket@ep^0,w,c
 11585  0024C2  0D02               	mullw	2
 11586  0024C4  0E0F               	movlw	low _pBDTEntryIn
 11587  0024C6  24F3               	addwf	243,w,c
 11588  0024C8  6ED9               	movwf	fsr2l,c
 11589  0024CA  0E00               	movlw	high _pBDTEntryIn
 11590  0024CC  20F4               	addwfc	prodh,w,c
 11591  0024CE  6EDA               	movwf	fsr2h,c
 11592  0024D0  CFDE F02F          	movff	postinc2,??i2_USBTransferOnePacket
 11593  0024D4  CFDD F030          	movff	postdec2,??i2_USBTransferOnePacket+1
 11594  0024D8  0E04               	movlw	4
 11595  0024DA  182F               	xorwf	??i2_USBTransferOnePacket^0,w,c
 11596  0024DC  6E31               	movwf	(??i2_USBTransferOnePacket+2)^0,c
 11597  0024DE  5030               	movf	(??i2_USBTransferOnePacket+1)^0,w,c
 11598  0024E0  6E32               	movwf	(??i2_USBTransferOnePacket+3)^0,c
 11599  0024E2  5033               	movf	i2USBTransferOnePacket@ep^0,w,c
 11600  0024E4  0D02               	mullw	2
 11601  0024E6  0E0F               	movlw	low _pBDTEntryIn
 11602  0024E8  24F3               	addwf	243,w,c
 11603  0024EA  6ED9               	movwf	fsr2l,c
 11604  0024EC  0E00               	movlw	high _pBDTEntryIn
 11605  0024EE  20F4               	addwfc	prodh,w,c
 11606  0024F0  6EDA               	movwf	fsr2h,c
 11607  0024F2  C031  FFDE         	movff	??i2_USBTransferOnePacket+2,postinc2
 11608  0024F6  C032  FFDD         	movff	??i2_USBTransferOnePacket+3,postdec2
 11609                           
 11610                           ;usb_device.c: 1046:     }
 11611  0024FA  EF9C  F012         	goto	i2l3889
 11612  0024FE                     i2l3887:
 11613                           
 11614                           ;usb_device.c: 1048:     {;usb_device.c: 1050:         pBDTEntryOut[ep] = (BDT_ENTRY*)((
      +                          (uint16_t)pBDTEntryOut[ep]) ^ 0x0004);
 11615  0024FE  5033               	movf	i2USBTransferOnePacket@ep^0,w,c
 11616  002500  0D02               	mullw	2
 11617  002502  0EAA               	movlw	low _pBDTEntryOut
 11618  002504  24F3               	addwf	243,w,c
 11619  002506  6ED9               	movwf	fsr2l,c
 11620  002508  0E00               	movlw	high _pBDTEntryOut
 11621  00250A  20F4               	addwfc	prodh,w,c
 11622  00250C  6EDA               	movwf	fsr2h,c
 11623  00250E  CFDE F02F          	movff	postinc2,??i2_USBTransferOnePacket
 11624  002512  CFDD F030          	movff	postdec2,??i2_USBTransferOnePacket+1
 11625  002516  0E04               	movlw	4
 11626  002518  182F               	xorwf	??i2_USBTransferOnePacket^0,w,c
 11627  00251A  6E31               	movwf	(??i2_USBTransferOnePacket+2)^0,c
 11628  00251C  5030               	movf	(??i2_USBTransferOnePacket+1)^0,w,c
 11629  00251E  6E32               	movwf	(??i2_USBTransferOnePacket+3)^0,c
 11630  002520  5033               	movf	i2USBTransferOnePacket@ep^0,w,c
 11631  002522  0D02               	mullw	2
 11632  002524  0EAA               	movlw	low _pBDTEntryOut
 11633  002526  24F3               	addwf	243,w,c
 11634  002528  6ED9               	movwf	fsr2l,c
 11635  00252A  0E00               	movlw	high _pBDTEntryOut
 11636  00252C  20F4               	addwfc	prodh,w,c
 11637  00252E  6EDA               	movwf	fsr2h,c
 11638  002530  C031  FFDE         	movff	??i2_USBTransferOnePacket+2,postinc2
 11639  002534  C032  FFDD         	movff	??i2_USBTransferOnePacket+3,postdec2
 11640  002538                     i2l3889:
 11641                           
 11642                           ;usb_device.c: 1052:     return (void*)handle;
 11643  002538  C034  F02B         	movff	i2USBTransferOnePacket@handle,?i2_USBTransferOnePacket
 11644  00253C  C035  F02C         	movff	i2USBTransferOnePacket@handle+1,?i2_USBTransferOnePacket+1
 11645  002540                     i2l287:
 11646  002540  0012               	return		;funcret
 11647  002542                     __end_ofi2_USBTransferOnePacket:
 11648                           	opt callstack 0
 11649                           
 11650 ;; *************** function i2_USBEnableEndpoint *****************
 11651 ;; Defined at:
 11652 ;;		line 884 in file "usb_device.c"
 11653 ;; Parameters:    Size  Location     Type
 11654 ;;  ep              1    wreg     unsigned char 
 11655 ;;  options         1    8[COMRAM] unsigned char 
 11656 ;; Auto vars:     Size  Location     Type
 11657 ;;  ep              1   11[COMRAM] unsigned char 
 11658 ;;  USBEnableEnd    2    9[COMRAM] PTR unsigned char 
 11659 ;;		 -> UEP0(1), 
 11660 ;; Return value:  Size  Location     Type
 11661 ;;                  1    wreg      void 
 11662 ;; Registers used:
 11663 ;;		wreg, fsr2l, fsr2h, status,2, status,0, prodl, prodh, cstack
 11664 ;; Tracked objects:
 11665 ;;		On entry : 0/0
 11666 ;;		On exit  : 0/0
 11667 ;;		Unchanged: 0/0
 11668 ;; Data sizes:     COMRAM   BANK0   BANK1   BANK2   BANK3  BANK4h  BANK4l   BANK5   BANK6   BANK7
 11669 ;;      Params:         1       0       0       0       0       0       0       0       0       0
 11670 ;;      Locals:         3       0       0       0       0       0       0       0       0       0
 11671 ;;      Temps:          0       0       0       0       0       0       0       0       0       0
 11672 ;;      Totals:         4       0       0       0       0       0       0       0       0       0
 11673 ;;Total ram usage:        4 bytes
 11674 ;; Hardware stack levels used:    1
 11675 ;; Hardware stack levels required when called:    1
 11676 ;; This function calls:
 11677 ;;		i2_USBConfigureEndpoint
 11678 ;; This function is called by:
 11679 ;;		i2_CDCInitEP
 11680 ;; This function uses a non-reentrant model
 11681 ;;
 11682                           
 11683                           	psect	text60
 11684  003E60                     __ptext60:
 11685                           	opt callstack 0
 11686  003E60                     i2_USBEnableEndpoint:
 11687                           	opt callstack 15
 11688                           
 11689                           ;incstack = 0
 11690                           ;i2USBEnableEndpoint@ep stored from wreg
 11691  003E60  6E36               	movwf	i2USBEnableEndpoint@ep^0,c
 11692  003E62                     
 11693                           ;usb_device.c: 884: void USBEnableEndpoint(uint8_t ep, uint8_t options);usb_device.c: 88
      +                          5: {;usb_device.c: 886:     unsigned char* p;;usb_device.c: 890:     if(options & 0x04)
 11694  003E62  A433               	btfss	i2USBEnableEndpoint@options^0,2,c
 11695  003E64  EF36  F01F         	goto	i2u278_41
 11696  003E68  EF38  F01F         	goto	i2u278_40
 11697  003E6C                     i2u278_41:
 11698  003E6C  EF3D  F01F         	goto	i2l3855
 11699  003E70                     i2u278_40:
 11700  003E70                     
 11701                           ;usb_device.c: 891:     {;usb_device.c: 892:         USBConfigureEndpoint(ep, 0);
 11702  003E70  0E00               	movlw	0
 11703  003E72  6E2B               	movwf	i2USBConfigureEndpoint@direction^0,c
 11704  003E74  5036               	movf	i2USBEnableEndpoint@ep^0,w,c
 11705  003E76  EC7B  F01B         	call	i2_USBConfigureEndpoint
 11706  003E7A                     i2l3855:
 11707                           
 11708                           ;usb_device.c: 894:     if(options & 0x02)
 11709  003E7A  A233               	btfss	i2USBEnableEndpoint@options^0,1,c
 11710  003E7C  EF42  F01F         	goto	i2u279_41
 11711  003E80  EF44  F01F         	goto	i2u279_40
 11712  003E84                     i2u279_41:
 11713  003E84  EF49  F01F         	goto	i2l3859
 11714  003E88                     i2u279_40:
 11715  003E88                     
 11716                           ;usb_device.c: 895:     {;usb_device.c: 896:         USBConfigureEndpoint(ep, 1);
 11717  003E88  0E01               	movlw	1
 11718  003E8A  6E2B               	movwf	i2USBConfigureEndpoint@direction^0,c
 11719  003E8C  5036               	movf	i2USBEnableEndpoint@ep^0,w,c
 11720  003E8E  EC7B  F01B         	call	i2_USBConfigureEndpoint
 11721  003E92                     i2l3859:
 11722                           
 11723                           ;usb_device.c: 905:         p = (unsigned char*)(&UEP0+ep);
 11724  003E92  0E70               	movlw	112
 11725  003E94  2436               	addwf	i2USBEnableEndpoint@ep^0,w,c
 11726  003E96  6E34               	movwf	i2USBEnableEndpoint@p^0,c
 11727  003E98  6A35               	clrf	(i2USBEnableEndpoint@p+1)^0,c
 11728  003E9A  0E0F               	movlw	15
 11729  003E9C  2235               	addwfc	(i2USBEnableEndpoint@p+1)^0,f,c
 11730  003E9E                     
 11731                           ;usb_device.c: 907:     *p = options;
 11732  003E9E  C034  FFD9         	movff	i2USBEnableEndpoint@p,fsr2l
 11733  003EA2  C035  FFDA         	movff	i2USBEnableEndpoint@p+1,fsr2h
 11734  003EA6  C033  FFDF         	movff	i2USBEnableEndpoint@options,indf2
 11735  003EAA  0012               	return		;funcret
 11736  003EAC                     __end_ofi2_USBEnableEndpoint:
 11737                           	opt callstack 0
 11738                           
 11739 ;; *************** function i2_USBConfigureEndpoint *****************
 11740 ;; Defined at:
 11741 ;;		line 1549 in file "usb_device.c"
 11742 ;; Parameters:    Size  Location     Type
 11743 ;;  EPNum           1    wreg     unsigned char 
 11744 ;;  direction       1    0[COMRAM] unsigned char 
 11745 ;; Auto vars:     Size  Location     Type
 11746 ;;  EPNum           1    5[COMRAM] unsigned char 
 11747 ;;  USBConfigure    2    6[COMRAM] PTR volatile struct __BD
 11748 ;;		 -> BDT(48), 
 11749 ;; Return value:  Size  Location     Type
 11750 ;;                  1    wreg      void 
 11751 ;; Registers used:
 11752 ;;		wreg, fsr2l, fsr2h, status,2, status,0, prodl, prodh
 11753 ;; Tracked objects:
 11754 ;;		On entry : 0/0
 11755 ;;		On exit  : 0/0
 11756 ;;		Unchanged: 0/0
 11757 ;; Data sizes:     COMRAM   BANK0   BANK1   BANK2   BANK3  BANK4h  BANK4l   BANK5   BANK6   BANK7
 11758 ;;      Params:         1       0       0       0       0       0       0       0       0       0
 11759 ;;      Locals:         3       0       0       0       0       0       0       0       0       0
 11760 ;;      Temps:          4       0       0       0       0       0       0       0       0       0
 11761 ;;      Totals:         8       0       0       0       0       0       0       0       0       0
 11762 ;;Total ram usage:        8 bytes
 11763 ;; Hardware stack levels used:    1
 11764 ;; This function calls:
 11765 ;;		Nothing
 11766 ;; This function is called by:
 11767 ;;		i2_USBEnableEndpoint
 11768 ;; This function uses a non-reentrant model
 11769 ;;
 11770                           
 11771                           	psect	text61
 11772  0036F6                     __ptext61:
 11773                           	opt callstack 0
 11774  0036F6                     i2_USBConfigureEndpoint:
 11775                           	opt callstack 15
 11776                           
 11777                           ;incstack = 0
 11778                           ;i2USBConfigureEndpoint@EPNum stored from wreg
 11779  0036F6  6E30               	movwf	i2USBConfigureEndpoint@EPNum^0,c
 11780  0036F8                     
 11781                           ;usb_device.c: 1549: static void USBConfigureEndpoint(uint8_t EPNum, uint8_t direction);
      +                          usb_device.c: 1550: {;usb_device.c: 1551:     volatile BDT_ENTRY* handle;;usb_device.c: 
      +                          1555:     handle = (volatile BDT_ENTRY*)&BDT[0];
 11782  0036F8  0E00               	movlw	0
 11783  0036FA  6E31               	movwf	i2USBConfigureEndpoint@handle^0,c
 11784  0036FC  0E04               	movlw	4
 11785  0036FE  6E32               	movwf	(i2USBConfigureEndpoint@handle+1)^0,c
 11786  003700                     
 11787                           ;usb_device.c: 1556:     handle += (4*EPNum+2*direction+0u);
 11788  003700  502B               	movf	i2USBConfigureEndpoint@direction^0,w,c
 11789  003702  6E2C               	movwf	??i2_USBConfigureEndpoint^0,c
 11790  003704  6A2D               	clrf	(??i2_USBConfigureEndpoint+1)^0,c
 11791  003706  90D8               	bcf	status,0,c
 11792  003708  362C               	rlcf	??i2_USBConfigureEndpoint^0,f,c
 11793  00370A  362D               	rlcf	(??i2_USBConfigureEndpoint+1)^0,f,c
 11794  00370C  5030               	movf	i2USBConfigureEndpoint@EPNum^0,w,c
 11795  00370E  6E2E               	movwf	(??i2_USBConfigureEndpoint+2)^0,c
 11796  003710  6A2F               	clrf	(??i2_USBConfigureEndpoint+3)^0,c
 11797  003712  90D8               	bcf	status,0,c
 11798  003714  362E               	rlcf	(??i2_USBConfigureEndpoint+2)^0,f,c
 11799  003716  362F               	rlcf	(??i2_USBConfigureEndpoint+3)^0,f,c
 11800  003718  90D8               	bcf	status,0,c
 11801  00371A  362E               	rlcf	(??i2_USBConfigureEndpoint+2)^0,f,c
 11802  00371C  362F               	rlcf	(??i2_USBConfigureEndpoint+3)^0,f,c
 11803  00371E  502C               	movf	??i2_USBConfigureEndpoint^0,w,c
 11804  003720  262E               	addwf	(??i2_USBConfigureEndpoint+2)^0,f,c
 11805  003722  502D               	movf	(??i2_USBConfigureEndpoint+1)^0,w,c
 11806  003724  222F               	addwfc	(??i2_USBConfigureEndpoint+3)^0,f,c
 11807  003726  90D8               	bcf	status,0,c
 11808  003728  362E               	rlcf	(??i2_USBConfigureEndpoint+2)^0,f,c
 11809  00372A  362F               	rlcf	(??i2_USBConfigureEndpoint+3)^0,f,c
 11810  00372C  90D8               	bcf	status,0,c
 11811  00372E  362E               	rlcf	(??i2_USBConfigureEndpoint+2)^0,f,c
 11812  003730  362F               	rlcf	(??i2_USBConfigureEndpoint+3)^0,f,c
 11813  003732  502E               	movf	(??i2_USBConfigureEndpoint+2)^0,w,c
 11814  003734  2631               	addwf	i2USBConfigureEndpoint@handle^0,f,c
 11815  003736  502F               	movf	(??i2_USBConfigureEndpoint+3)^0,w,c
 11816  003738  2232               	addwfc	(i2USBConfigureEndpoint@handle+1)^0,f,c
 11817  00373A                     
 11818                           ;usb_device.c: 1558:     handle->STAT.UOWN = 0;
 11819  00373A  C031  FFD9         	movff	i2USBConfigureEndpoint@handle,fsr2l
 11820  00373E  C032  FFDA         	movff	i2USBConfigureEndpoint@handle+1,fsr2h
 11821  003742  9EDF               	bcf	indf2,7,c
 11822  003744                     
 11823                           ;usb_device.c: 1563:     if(direction == 0)
 11824  003744  502B               	movf	i2USBConfigureEndpoint@direction^0,w,c
 11825  003746  A4D8               	btfss	status,2,c
 11826  003748  EFA8  F01B         	goto	i2u276_41
 11827  00374C  EFAA  F01B         	goto	i2u276_40
 11828  003750                     i2u276_41:
 11829  003750  EFB8  F01B         	goto	i2l3829
 11830  003754                     i2u276_40:
 11831  003754                     
 11832                           ;usb_device.c: 1564:     {;usb_device.c: 1565:         pBDTEntryOut[EPNum] = handle;
 11833  003754  5030               	movf	i2USBConfigureEndpoint@EPNum^0,w,c
 11834  003756  0D02               	mullw	2
 11835  003758  0EAA               	movlw	low _pBDTEntryOut
 11836  00375A  24F3               	addwf	243,w,c
 11837  00375C  6ED9               	movwf	fsr2l,c
 11838  00375E  0E00               	movlw	high _pBDTEntryOut
 11839  003760  20F4               	addwfc	prodh,w,c
 11840  003762  6EDA               	movwf	fsr2h,c
 11841  003764  C031  FFDE         	movff	i2USBConfigureEndpoint@handle,postinc2
 11842  003768  C032  FFDD         	movff	i2USBConfigureEndpoint@handle+1,postdec2
 11843                           
 11844                           ;usb_device.c: 1566:     }
 11845  00376C  EFC4  F01B         	goto	i2l3831
 11846  003770                     i2l3829:
 11847                           
 11848                           ;usb_device.c: 1568:     {;usb_device.c: 1569:         pBDTEntryIn[EPNum] = handle;
 11849  003770  5030               	movf	i2USBConfigureEndpoint@EPNum^0,w,c
 11850  003772  0D02               	mullw	2
 11851  003774  0E0F               	movlw	low _pBDTEntryIn
 11852  003776  24F3               	addwf	243,w,c
 11853  003778  6ED9               	movwf	fsr2l,c
 11854  00377A  0E00               	movlw	high _pBDTEntryIn
 11855  00377C  20F4               	addwfc	prodh,w,c
 11856  00377E  6EDA               	movwf	fsr2h,c
 11857  003780  C031  FFDE         	movff	i2USBConfigureEndpoint@handle,postinc2
 11858  003784  C032  FFDD         	movff	i2USBConfigureEndpoint@handle+1,postdec2
 11859  003788                     i2l3831:
 11860                           
 11861                           ;usb_device.c: 1573:         handle->STAT.DTS = 0;
 11862  003788  C031  FFD9         	movff	i2USBConfigureEndpoint@handle,fsr2l
 11863  00378C  C032  FFDA         	movff	i2USBConfigureEndpoint@handle+1,fsr2h
 11864  003790  9CDF               	bcf	indf2,6,c
 11865  003792                     
 11866                           ;usb_device.c: 1574:         (handle+1)->STAT.DTS = 1;
 11867  003792  EE20 F004          	lfsr	2,4
 11868  003796  5031               	movf	i2USBConfigureEndpoint@handle^0,w,c
 11869  003798  26D9               	addwf	fsr2l,f,c
 11870  00379A  5032               	movf	(i2USBConfigureEndpoint@handle+1)^0,w,c
 11871  00379C  22DA               	addwfc	fsr2h,f,c
 11872  00379E  8CDF               	bsf	indf2,6,c
 11873  0037A0  0012               	return		;funcret
 11874  0037A2                     __end_ofi2_USBConfigureEndpoint:
 11875                           	opt callstack 0
 11876                           
 11877 ;; *************** function i2_USBCtrlTrfOutHandler *****************
 11878 ;; Defined at:
 11879 ;;		line 2544 in file "usb_device.c"
 11880 ;; Parameters:    Size  Location     Type
 11881 ;;		None
 11882 ;; Auto vars:     Size  Location     Type
 11883 ;;		None
 11884 ;; Return value:  Size  Location     Type
 11885 ;;                  1    wreg      void 
 11886 ;; Registers used:
 11887 ;;		wreg, fsr1l, fsr1h, fsr2l, fsr2h, status,2, status,0, cstack
 11888 ;; Tracked objects:
 11889 ;;		On entry : 0/0
 11890 ;;		On exit  : 0/0
 11891 ;;		Unchanged: 0/0
 11892 ;; Data sizes:     COMRAM   BANK0   BANK1   BANK2   BANK3  BANK4h  BANK4l   BANK5   BANK6   BANK7
 11893 ;;      Params:         0       0       0       0       0       0       0       0       0       0
 11894 ;;      Locals:         0       0       0       0       0       0       0       0       0       0
 11895 ;;      Temps:          0       0       0       0       0       0       0       0       0       0
 11896 ;;      Totals:         0       0       0       0       0       0       0       0       0       0
 11897 ;;Total ram usage:        0 bytes
 11898 ;; Hardware stack levels used:    1
 11899 ;; Hardware stack levels required when called:    2
 11900 ;; This function calls:
 11901 ;;		i2_USBCtrlTrfRxService
 11902 ;; This function is called by:
 11903 ;;		i2_USBCtrlEPService
 11904 ;; This function uses a non-reentrant model
 11905 ;;
 11906                           
 11907                           	psect	text62
 11908  003A4A                     __ptext62:
 11909                           	opt callstack 0
 11910  003A4A                     i2_USBCtrlTrfOutHandler:
 11911                           	opt callstack 15
 11912  003A4A                     
 11913                           ;usb_device.c: 2546:     if(controlTransferState == 2)
 11914  003A4A  0E02               	movlw	2
 11915  003A4C  1827               	xorwf	_controlTransferState^0,w,c	;volatile
 11916  003A4E  A4D8               	btfss	status,2,c
 11917  003A50  EF2C  F01D         	goto	i2u422_41
 11918  003A54  EF2E  F01D         	goto	i2u422_40
 11919  003A58                     i2u422_41:
 11920  003A58  EF32  F01D         	goto	i2l5045
 11921  003A5C                     i2u422_40:
 11922  003A5C                     
 11923                           ;usb_device.c: 2547:     {;usb_device.c: 2548:         USBCtrlTrfRxService();
 11924  003A5C  EC61  F011         	call	i2_USBCtrlTrfRxService	;wreg free
 11925                           
 11926                           ;usb_device.c: 2549:     }
 11927  003A60  EF5E  F01D         	goto	i2l436
 11928  003A64                     i2l5045:
 11929                           
 11930                           ;usb_device.c: 2551:     {;usb_device.c: 2554:         controlTransferState = 0;
 11931  003A64  0E00               	movlw	0
 11932  003A66  6E27               	movwf	_controlTransferState^0,c	;volatile
 11933                           
 11934                           ;usb_device.c: 2561:         if(BothEP0OutUOWNsSet == 0)
 11935  003A68  5024               	movf	_BothEP0OutUOWNsSet^0,w,c	;volatile
 11936  003A6A  A4D8               	btfss	status,2,c
 11937  003A6C  EF3A  F01D         	goto	i2u423_41
 11938  003A70  EF3C  F01D         	goto	i2u423_40
 11939  003A74                     i2u423_41:
 11940  003A74  EF5C  F01D         	goto	i2l5053
 11941  003A78                     i2u423_40:
 11942  003A78                     
 11943                           ;usb_device.c: 2562:         {;usb_device.c: 2563:             pBDTEntryEP0OutNext->CNT 
      +                          = 32;
 11944  003A78  EE20 F001          	lfsr	2,1
 11945  003A7C  501B               	movf	_pBDTEntryEP0OutNext^0,w,c
 11946  003A7E  26D9               	addwf	fsr2l,f,c
 11947  003A80  501C               	movf	(_pBDTEntryEP0OutNext+1)^0,w,c
 11948  003A82  22DA               	addwfc	fsr2h,f,c
 11949  003A84  0E20               	movlw	32
 11950  003A86  6EDF               	movwf	indf2,c
 11951                           
 11952                           ;usb_device.c: 2564:             pBDTEntryEP0OutNext->ADR = ((uint16_t)(&SetupPkt));
 11953  003A88  EE20 F002          	lfsr	2,2
 11954  003A8C  501B               	movf	_pBDTEntryEP0OutNext^0,w,c
 11955  003A8E  26D9               	addwf	fsr2l,f,c
 11956  003A90  501C               	movf	(_pBDTEntryEP0OutNext+1)^0,w,c
 11957  003A92  22DA               	addwfc	fsr2h,f,c
 11958  003A94  0E30               	movlw	48
 11959  003A96  6EDE               	movwf	postinc2,c
 11960  003A98  0E04               	movlw	4
 11961  003A9A  6EDD               	movwf	postdec2,c
 11962  003A9C                     
 11963                           ;usb_device.c: 2565:             pBDTEntryEP0OutNext->STAT.Val = 0x00|(0x08 & 0x08)|0x04
      +                          ;
 11964  003A9C  C01B  FFD9         	movff	_pBDTEntryEP0OutNext,fsr2l
 11965  003AA0  C01C  FFDA         	movff	_pBDTEntryEP0OutNext+1,fsr2h
 11966  003AA4  0E0C               	movlw	12
 11967  003AA6  6EDF               	movwf	indf2,c
 11968  003AA8                     
 11969                           ;usb_device.c: 2566:             pBDTEntryEP0OutNext->STAT.Val |= 0x80;
 11970  003AA8  C01B  FFD9         	movff	_pBDTEntryEP0OutNext,fsr2l
 11971  003AAC  C01C  FFDA         	movff	_pBDTEntryEP0OutNext+1,fsr2h
 11972  003AB0  0E00               	movlw	0
 11973  003AB2  8EDB               	bsf	plusw2,7,c
 11974                           
 11975                           ;usb_device.c: 2567:         }
 11976  003AB4  EF5E  F01D         	goto	i2l436
 11977  003AB8                     i2l5053:
 11978                           
 11979                           ;usb_device.c: 2569:         {;usb_device.c: 2570:                 BothEP0OutUOWNsSet = 
      +                          0;
 11980  003AB8  0E00               	movlw	0
 11981  003ABA  6E24               	movwf	_BothEP0OutUOWNsSet^0,c	;volatile
 11982  003ABC                     i2l436:
 11983  003ABC  0012               	return		;funcret
 11984  003ABE                     __end_ofi2_USBCtrlTrfOutHandler:
 11985                           	opt callstack 0
 11986                           
 11987 ;; *************** function i2_USBCtrlTrfRxService *****************
 11988 ;; Defined at:
 11989 ;;		line 1858 in file "usb_device.c"
 11990 ;; Parameters:    Size  Location     Type
 11991 ;;		None
 11992 ;; Auto vars:     Size  Location     Type
 11993 ;;  USBCtrlTrfRx    1    1[COMRAM] unsigned char 
 11994 ;;  USBCtrlTrfRx    1    0[COMRAM] unsigned char 
 11995 ;; Return value:  Size  Location     Type
 11996 ;;                  1    wreg      void 
 11997 ;; Registers used:
 11998 ;;		wreg, fsr1l, fsr1h, fsr2l, fsr2h, status,2, status,0, cstack
 11999 ;; Tracked objects:
 12000 ;;		On entry : 0/0
 12001 ;;		On exit  : 0/0
 12002 ;;		Unchanged: 0/0
 12003 ;; Data sizes:     COMRAM   BANK0   BANK1   BANK2   BANK3  BANK4h  BANK4l   BANK5   BANK6   BANK7
 12004 ;;      Params:         0       0       0       0       0       0       0       0       0       0
 12005 ;;      Locals:         2       0       0       0       0       0       0       0       0       0
 12006 ;;      Temps:          0       0       0       0       0       0       0       0       0       0
 12007 ;;      Totals:         2       0       0       0       0       0       0       0       0       0
 12008 ;;Total ram usage:        2 bytes
 12009 ;; Hardware stack levels used:    1
 12010 ;; Hardware stack levels required when called:    1
 12011 ;; This function calls:
 12012 ;;		i2_USBCtrlEPAllowStatusStage
 12013 ;; This function is called by:
 12014 ;;		i2_USBCtrlTrfOutHandler
 12015 ;; This function uses a non-reentrant model
 12016 ;;
 12017                           
 12018                           	psect	text63
 12019  0022C2                     __ptext63:
 12020                           	opt callstack 0
 12021  0022C2                     i2_USBCtrlTrfRxService:
 12022                           	opt callstack 15
 12023  0022C2                     
 12024                           ;usb_device.c: 1860:     uint8_t byteToRead;;usb_device.c: 1861:     uint8_t i;;usb_devi
      +                          ce.c: 1865:     byteToRead = pBDTEntryEP0OutCurrent->CNT;
 12025  0022C2  EE20 F001          	lfsr	2,1
 12026  0022C6  501D               	movf	_pBDTEntryEP0OutCurrent^0,w,c
 12027  0022C8  26D9               	addwf	fsr2l,f,c
 12028  0022CA  501E               	movf	(_pBDTEntryEP0OutCurrent+1)^0,w,c
 12029  0022CC  22DA               	addwfc	fsr2h,f,c
 12030  0022CE  50DF               	movf	indf2,w,c
 12031  0022D0  6E2C               	movwf	i2USBCtrlTrfRxService@byteToRead^0,c
 12032  0022D2                     
 12033                           ;usb_device.c: 1871:     if(byteToRead > outPipes[0].wCount.Val)
 12034  0022D2  502C               	movf	i2USBCtrlTrfRxService@byteToRead^0,w,c
 12035  0022D4  5C05               	subwf	(_outPipes+4)^0,w,c	;volatile
 12036  0022D6  0E00               	movlw	0
 12037  0022D8  5806               	subwfb	(_outPipes+5)^0,w,c	;volatile
 12038  0022DA  B0D8               	btfsc	status,0,c
 12039  0022DC  EF72  F011         	goto	i2u403_41
 12040  0022E0  EF74  F011         	goto	i2u403_40
 12041  0022E4                     i2u403_41:
 12042  0022E4  EF76  F011         	goto	i2l4795
 12043  0022E8                     i2u403_40:
 12044  0022E8                     
 12045                           ;usb_device.c: 1872:     {;usb_device.c: 1873:         byteToRead = outPipes[0].wCount.V
      +                          al;
 12046  0022E8  C005  F02C         	movff	_outPipes+4,i2USBCtrlTrfRxService@byteToRead	;volatile
 12047  0022EC                     i2l4795:
 12048                           
 12049                           ;usb_device.c: 1876:     outPipes[0].wCount.Val -= byteToRead;
 12050  0022EC  502C               	movf	i2USBCtrlTrfRxService@byteToRead^0,w,c
 12051  0022EE  5E05               	subwf	(_outPipes+4)^0,f,c	;volatile
 12052  0022F0  0E00               	movlw	0
 12053  0022F2  5A06               	subwfb	(_outPipes+5)^0,f,c	;volatile
 12054  0022F4                     
 12055                           ;usb_device.c: 1880:     for(i=0;i<byteToRead;i++)
 12056  0022F4  0E00               	movlw	0
 12057  0022F6  6E2B               	movwf	i2USBCtrlTrfRxService@i^0,c
 12058  0022F8  EF8D  F011         	goto	i2l4805
 12059  0022FC                     i2l4799:
 12060                           
 12061                           ;usb_device.c: 1881:     {;usb_device.c: 1882:         *outPipes[0].pDst.bRam++ = CtrlTr
      +                          fData[i];
 12062  0022FC  0E50               	movlw	80
 12063  0022FE  242B               	addwf	i2USBCtrlTrfRxService@i^0,w,c
 12064  002300  6ED9               	movwf	fsr2l,c
 12065  002302  6ADA               	clrf	fsr2h,c
 12066  002304  0E04               	movlw	4
 12067  002306  22DA               	addwfc	fsr2h,f,c
 12068  002308  C001  FFE1         	movff	_outPipes,fsr1l	;volatile
 12069  00230C  C002  FFE2         	movff	_outPipes+1,fsr1h	;volatile
 12070  002310  CFDF FFE7          	movff	indf2,indf1
 12071  002314  4A01               	infsnz	_outPipes^0,f,c	;volatile
 12072  002316  2A02               	incf	(_outPipes+1)^0,f,c	;volatile
 12073  002318                     
 12074                           ;usb_device.c: 1883:     }
 12075  002318  2A2B               	incf	i2USBCtrlTrfRxService@i^0,f,c
 12076  00231A                     i2l4805:
 12077  00231A  502C               	movf	i2USBCtrlTrfRxService@byteToRead^0,w,c
 12078  00231C  5C2B               	subwf	i2USBCtrlTrfRxService@i^0,w,c
 12079  00231E  A0D8               	btfss	status,0,c
 12080  002320  EF94  F011         	goto	i2u404_41
 12081  002324  EF96  F011         	goto	i2u404_40
 12082  002328                     i2u404_41:
 12083  002328  EF7E  F011         	goto	i2l4799
 12084  00232C                     i2u404_40:
 12085  00232C                     
 12086                           ;usb_device.c: 1887:     if(outPipes[0].wCount.Val > 0)
 12087  00232C  5005               	movf	(_outPipes+4)^0,w,c	;volatile
 12088  00232E  1006               	iorwf	(_outPipes+5)^0,w,c	;volatile
 12089  002330  B4D8               	btfsc	status,2,c
 12090  002332  EF9D  F011         	goto	i2u405_41
 12091  002336  EF9F  F011         	goto	i2u405_40
 12092  00233A                     i2u405_41:
 12093  00233A  EFD8  F011         	goto	i2l4821
 12094  00233E                     i2u405_40:
 12095  00233E                     
 12096                           ;usb_device.c: 1888:     {;usb_device.c: 1889:         pBDTEntryEP0OutNext->CNT = 32;
 12097  00233E  EE20 F001          	lfsr	2,1
 12098  002342  501B               	movf	_pBDTEntryEP0OutNext^0,w,c
 12099  002344  26D9               	addwf	fsr2l,f,c
 12100  002346  501C               	movf	(_pBDTEntryEP0OutNext+1)^0,w,c
 12101  002348  22DA               	addwfc	fsr2h,f,c
 12102  00234A  0E20               	movlw	32
 12103  00234C  6EDF               	movwf	indf2,c
 12104                           
 12105                           ;usb_device.c: 1890:         pBDTEntryEP0OutNext->ADR = ((uint16_t)(&CtrlTrfData));
 12106  00234E  EE20 F002          	lfsr	2,2
 12107  002352  501B               	movf	_pBDTEntryEP0OutNext^0,w,c
 12108  002354  26D9               	addwf	fsr2l,f,c
 12109  002356  501C               	movf	(_pBDTEntryEP0OutNext+1)^0,w,c
 12110  002358  22DA               	addwfc	fsr2h,f,c
 12111  00235A  0E50               	movlw	80
 12112  00235C  6EDE               	movwf	postinc2,c
 12113  00235E  0E04               	movlw	4
 12114  002360  6EDD               	movwf	postdec2,c
 12115  002362                     
 12116                           ;usb_device.c: 1891:         if(pBDTEntryEP0OutCurrent->STAT.DTS == 0)
 12117  002362  C01D  FFD9         	movff	_pBDTEntryEP0OutCurrent,fsr2l
 12118  002366  C01E  FFDA         	movff	_pBDTEntryEP0OutCurrent+1,fsr2h
 12119  00236A  BCDF               	btfsc	indf2,6,c
 12120  00236C  EFBA  F011         	goto	i2u406_41
 12121  002370  EFBC  F011         	goto	i2u406_40
 12122  002374                     i2u406_41:
 12123  002374  EFCA  F011         	goto	i2l4817
 12124  002378                     i2u406_40:
 12125  002378                     
 12126                           ;usb_device.c: 1892:         {;usb_device.c: 1893:             pBDTEntryEP0OutNext->STAT
      +                          .Val = 0x40|(0x08 & 0x08);
 12127  002378  C01B  FFD9         	movff	_pBDTEntryEP0OutNext,fsr2l
 12128  00237C  C01C  FFDA         	movff	_pBDTEntryEP0OutNext+1,fsr2h
 12129  002380  0E48               	movlw	72
 12130  002382  6EDF               	movwf	indf2,c
 12131  002384                     
 12132                           ;usb_device.c: 1894:             pBDTEntryEP0OutNext->STAT.Val |= 0x80;
 12133  002384  C01B  FFD9         	movff	_pBDTEntryEP0OutNext,fsr2l
 12134  002388  C01C  FFDA         	movff	_pBDTEntryEP0OutNext+1,fsr2h
 12135  00238C  0E00               	movlw	0
 12136  00238E  8EDB               	bsf	plusw2,7,c
 12137                           
 12138                           ;usb_device.c: 1895:         }
 12139  002390  EF01  F012         	goto	i2l369
 12140  002394                     i2l4817:
 12141                           
 12142                           ;usb_device.c: 1897:         {;usb_device.c: 1898:             pBDTEntryEP0OutNext->STAT
      +                          .Val = 0x00|(0x08 & 0x08);
 12143  002394  C01B  FFD9         	movff	_pBDTEntryEP0OutNext,fsr2l
 12144  002398  C01C  FFDA         	movff	_pBDTEntryEP0OutNext+1,fsr2h
 12145  00239C  0E08               	movlw	8
 12146  00239E  6EDF               	movwf	indf2,c
 12147  0023A0                     
 12148                           ;usb_device.c: 1899:             pBDTEntryEP0OutNext->STAT.Val |= 0x80;
 12149  0023A0  C01B  FFD9         	movff	_pBDTEntryEP0OutNext,fsr2l
 12150  0023A4  C01C  FFDA         	movff	_pBDTEntryEP0OutNext+1,fsr2h
 12151  0023A8  0E00               	movlw	0
 12152  0023AA  8EDB               	bsf	plusw2,7,c
 12153  0023AC  EF01  F012         	goto	i2l369
 12154  0023B0                     i2l4821:
 12155                           
 12156                           ;usb_device.c: 1903:     {;usb_device.c: 1907:         pBDTEntryEP0OutNext->CNT = 32;
 12157  0023B0  EE20 F001          	lfsr	2,1
 12158  0023B4  501B               	movf	_pBDTEntryEP0OutNext^0,w,c
 12159  0023B6  26D9               	addwf	fsr2l,f,c
 12160  0023B8  501C               	movf	(_pBDTEntryEP0OutNext+1)^0,w,c
 12161  0023BA  22DA               	addwfc	fsr2h,f,c
 12162  0023BC  0E20               	movlw	32
 12163  0023BE  6EDF               	movwf	indf2,c
 12164                           
 12165                           ;usb_device.c: 1908:         pBDTEntryEP0OutNext->ADR = ((uint16_t)(&SetupPkt));
 12166  0023C0  EE20 F002          	lfsr	2,2
 12167  0023C4  501B               	movf	_pBDTEntryEP0OutNext^0,w,c
 12168  0023C6  26D9               	addwf	fsr2l,f,c
 12169  0023C8  501C               	movf	(_pBDTEntryEP0OutNext+1)^0,w,c
 12170  0023CA  22DA               	addwfc	fsr2h,f,c
 12171  0023CC  0E30               	movlw	48
 12172  0023CE  6EDE               	movwf	postinc2,c
 12173  0023D0  0E04               	movlw	4
 12174  0023D2  6EDD               	movwf	postdec2,c
 12175  0023D4                     
 12176                           ;usb_device.c: 1912:         pBDTEntryEP0OutNext->STAT.Val = 0x04;
 12177  0023D4  C01B  FFD9         	movff	_pBDTEntryEP0OutNext,fsr2l
 12178  0023D8  C01C  FFDA         	movff	_pBDTEntryEP0OutNext+1,fsr2h
 12179  0023DC  0E04               	movlw	4
 12180  0023DE  6EDF               	movwf	indf2,c
 12181  0023E0                     
 12182                           ;usb_device.c: 1913:         pBDTEntryEP0OutNext->STAT.Val |= 0x80;
 12183  0023E0  C01B  FFD9         	movff	_pBDTEntryEP0OutNext,fsr2l
 12184  0023E4  C01C  FFDA         	movff	_pBDTEntryEP0OutNext+1,fsr2h
 12185  0023E8  0E00               	movlw	0
 12186  0023EA  8EDB               	bsf	plusw2,7,c
 12187  0023EC  9E04               	bcf	(_outPipes+3)^0,7,c	;volatile
 12188  0023EE                     
 12189                           ;usb_device.c: 1947:         if(USBDeferStatusStagePacket == 0)
 12190  0023EE  5023               	movf	_USBDeferStatusStagePacket^0,w,c	;volatile
 12191  0023F0  A4D8               	btfss	status,2,c
 12192  0023F2  EFFD  F011         	goto	i2u407_41
 12193  0023F6  EFFF  F011         	goto	i2u407_40
 12194  0023FA                     i2u407_41:
 12195  0023FA  EF01  F012         	goto	i2l369
 12196  0023FE                     i2u407_40:
 12197  0023FE                     
 12198                           ;usb_device.c: 1948:         {;usb_device.c: 1949:             USBCtrlEPAllowStatusStage
      +                          ();
 12199  0023FE  EC59  F018         	call	i2_USBCtrlEPAllowStatusStage	;wreg free
 12200  002402                     i2l369:
 12201  002402  0012               	return		;funcret
 12202  002404                     __end_ofi2_USBCtrlTrfRxService:
 12203                           	opt callstack 0
 12204                           
 12205 ;; *************** function i2_USBCtrlEPAllowStatusStage *****************
 12206 ;; Defined at:
 12207 ;;		line 1422 in file "usb_device.c"
 12208 ;; Parameters:    Size  Location     Type
 12209 ;;		None
 12210 ;; Auto vars:     Size  Location     Type
 12211 ;;		None
 12212 ;; Return value:  Size  Location     Type
 12213 ;;                  1    wreg      void 
 12214 ;; Registers used:
 12215 ;;		wreg, fsr2l, fsr2h, status,2, status,0
 12216 ;; Tracked objects:
 12217 ;;		On entry : 0/0
 12218 ;;		On exit  : 0/0
 12219 ;;		Unchanged: 0/0
 12220 ;; Data sizes:     COMRAM   BANK0   BANK1   BANK2   BANK3  BANK4h  BANK4l   BANK5   BANK6   BANK7
 12221 ;;      Params:         0       0       0       0       0       0       0       0       0       0
 12222 ;;      Locals:         0       0       0       0       0       0       0       0       0       0
 12223 ;;      Temps:          0       0       0       0       0       0       0       0       0       0
 12224 ;;      Totals:         0       0       0       0       0       0       0       0       0       0
 12225 ;;Total ram usage:        0 bytes
 12226 ;; Hardware stack levels used:    1
 12227 ;; This function calls:
 12228 ;;		Nothing
 12229 ;; This function is called by:
 12230 ;;		i2_USBDeviceTasks
 12231 ;;		i2_USBCtrlEPServiceComplete
 12232 ;;		i2_USBCtrlTrfRxService
 12233 ;; This function uses a non-reentrant model
 12234 ;;
 12235                           
 12236                           	psect	text64
 12237  0030B2                     __ptext64:
 12238                           	opt callstack 0
 12239  0030B2                     i2_USBCtrlEPAllowStatusStage:
 12240                           	opt callstack 15
 12241  0030B2                     
 12242                           ;usb_device.c: 1429:     if(USBStatusStageEnabledFlag1 == 0)
 12243  0030B2  5022               	movf	_USBStatusStageEnabledFlag1^0,w,c	;volatile
 12244  0030B4  A4D8               	btfss	status,2,c
 12245  0030B6  EF5F  F018         	goto	i2u322_41
 12246  0030BA  EF61  F018         	goto	i2u322_40
 12247  0030BE                     i2u322_41:
 12248  0030BE  EFD0  F018         	goto	i2l317
 12249  0030C2                     i2u322_40:
 12250  0030C2                     
 12251                           ;usb_device.c: 1430:     {;usb_device.c: 1431:         USBStatusStageEnabledFlag1 = 1;
 12252  0030C2  0E01               	movlw	1
 12253  0030C4  6E22               	movwf	_USBStatusStageEnabledFlag1^0,c	;volatile
 12254                           
 12255                           ;usb_device.c: 1432:         if(USBStatusStageEnabledFlag2 == 0)
 12256  0030C6  5021               	movf	_USBStatusStageEnabledFlag2^0,w,c	;volatile
 12257  0030C8  A4D8               	btfss	status,2,c
 12258  0030CA  EF69  F018         	goto	i2u323_41
 12259  0030CE  EF6B  F018         	goto	i2u323_40
 12260  0030D2                     i2u323_41:
 12261  0030D2  EFD0  F018         	goto	i2l317
 12262  0030D6                     i2u323_40:
 12263  0030D6                     
 12264                           ;usb_device.c: 1433:         {;usb_device.c: 1434:             USBStatusStageEnabledFlag
      +                          2 = 1;
 12265  0030D6  0E01               	movlw	1
 12266  0030D8  6E21               	movwf	_USBStatusStageEnabledFlag2^0,c	;volatile
 12267  0030DA                     
 12268                           ;usb_device.c: 1438:             if(controlTransferState == 2)
 12269  0030DA  0E02               	movlw	2
 12270  0030DC  1827               	xorwf	_controlTransferState^0,w,c	;volatile
 12271  0030DE  A4D8               	btfss	status,2,c
 12272  0030E0  EF74  F018         	goto	i2u324_41
 12273  0030E4  EF76  F018         	goto	i2u324_40
 12274  0030E8                     i2u324_41:
 12275  0030E8  EF8C  F018         	goto	i2l4253
 12276  0030EC                     i2u324_40:
 12277  0030EC                     
 12278                           ;usb_device.c: 1439:             {;usb_device.c: 1440:                 pBDTEntryIn[0]->C
      +                          NT = 0;
 12279  0030EC  EE20 F001          	lfsr	2,1
 12280  0030F0  500F               	movf	_pBDTEntryIn^0,w,c
 12281  0030F2  26D9               	addwf	fsr2l,f,c
 12282  0030F4  5010               	movf	(_pBDTEntryIn+1)^0,w,c
 12283  0030F6  22DA               	addwfc	fsr2h,f,c
 12284  0030F8  0E00               	movlw	0
 12285  0030FA  6EDF               	movwf	indf2,c
 12286  0030FC                     
 12287                           ;usb_device.c: 1441:                 pBDTEntryIn[0]->STAT.Val = 0x40|(0x08 & 0x08);
 12288  0030FC  C00F  FFD9         	movff	_pBDTEntryIn,fsr2l
 12289  003100  C010  FFDA         	movff	_pBDTEntryIn+1,fsr2h
 12290  003104  0E48               	movlw	72
 12291  003106  6EDF               	movwf	indf2,c
 12292  003108                     
 12293                           ;usb_device.c: 1442:                 pBDTEntryIn[0]->STAT.Val |= 0x80;
 12294  003108  C00F  FFD9         	movff	_pBDTEntryIn,fsr2l
 12295  00310C  C010  FFDA         	movff	_pBDTEntryIn+1,fsr2h
 12296  003110  0E00               	movlw	0
 12297  003112  8EDB               	bsf	plusw2,7,c
 12298                           
 12299                           ;usb_device.c: 1443:             }
 12300  003114  EFD0  F018         	goto	i2l317
 12301  003118                     i2l4253:
 12302  003118  0427               	decf	_controlTransferState^0,w,c	;volatile
 12303  00311A  A4D8               	btfss	status,2,c
 12304  00311C  EF92  F018         	goto	i2u325_41
 12305  003120  EF94  F018         	goto	i2u325_40
 12306  003124                     i2u325_41:
 12307  003124  EFD0  F018         	goto	i2l313
 12308  003128                     i2u325_40:
 12309  003128                     
 12310                           ;usb_device.c: 1445:             {;usb_device.c: 1446:                 BothEP0OutUOWNsSe
      +                          t = 0;
 12311  003128  0E00               	movlw	0
 12312  00312A  6E24               	movwf	_BothEP0OutUOWNsSet^0,c	;volatile
 12313  00312C                     
 12314                           ;usb_device.c: 1451:                     pBDTEntryEP0OutCurrent->CNT = 32;
 12315  00312C  EE20 F001          	lfsr	2,1
 12316  003130  501D               	movf	_pBDTEntryEP0OutCurrent^0,w,c
 12317  003132  26D9               	addwf	fsr2l,f,c
 12318  003134  501E               	movf	(_pBDTEntryEP0OutCurrent+1)^0,w,c
 12319  003136  22DA               	addwfc	fsr2h,f,c
 12320  003138  0E20               	movlw	32
 12321  00313A  6EDF               	movwf	indf2,c
 12322  00313C                     
 12323                           ;usb_device.c: 1452:                     pBDTEntryEP0OutCurrent->ADR = ((uint16_t)(&Setu
      +                          pPkt));
 12324  00313C  EE20 F002          	lfsr	2,2
 12325  003140  501D               	movf	_pBDTEntryEP0OutCurrent^0,w,c
 12326  003142  26D9               	addwf	fsr2l,f,c
 12327  003144  501E               	movf	(_pBDTEntryEP0OutCurrent+1)^0,w,c
 12328  003146  22DA               	addwfc	fsr2h,f,c
 12329  003148  0E30               	movlw	48
 12330  00314A  6EDE               	movwf	postinc2,c
 12331  00314C  0E04               	movlw	4
 12332  00314E  6EDD               	movwf	postdec2,c
 12333  003150                     
 12334                           ;usb_device.c: 1453:                     pBDTEntryEP0OutCurrent->STAT.Val = 0x04;
 12335  003150  C01D  FFD9         	movff	_pBDTEntryEP0OutCurrent,fsr2l
 12336  003154  C01E  FFDA         	movff	_pBDTEntryEP0OutCurrent+1,fsr2h
 12337  003158  0E04               	movlw	4
 12338  00315A  6EDF               	movwf	indf2,c
 12339  00315C                     
 12340                           ;usb_device.c: 1454:                     pBDTEntryEP0OutCurrent->STAT.Val |= 0x80;
 12341  00315C  C01D  FFD9         	movff	_pBDTEntryEP0OutCurrent,fsr2l
 12342  003160  C01E  FFDA         	movff	_pBDTEntryEP0OutCurrent+1,fsr2h
 12343  003164  0E00               	movlw	0
 12344  003166  8EDB               	bsf	plusw2,7,c
 12345  003168                     
 12346                           ;usb_device.c: 1455:                     BothEP0OutUOWNsSet = 1;
 12347  003168  0E01               	movlw	1
 12348  00316A  6E24               	movwf	_BothEP0OutUOWNsSet^0,c	;volatile
 12349  00316C                     
 12350                           ;usb_device.c: 1459:                 pBDTEntryEP0OutNext->CNT = 32;
 12351  00316C  EE20 F001          	lfsr	2,1
 12352  003170  501B               	movf	_pBDTEntryEP0OutNext^0,w,c
 12353  003172  26D9               	addwf	fsr2l,f,c
 12354  003174  501C               	movf	(_pBDTEntryEP0OutNext+1)^0,w,c
 12355  003176  22DA               	addwfc	fsr2h,f,c
 12356  003178  0E20               	movlw	32
 12357  00317A  6EDF               	movwf	indf2,c
 12358  00317C                     
 12359                           ;usb_device.c: 1460:                 pBDTEntryEP0OutNext->ADR = ((uint16_t)(&SetupPkt));
 12360  00317C  EE20 F002          	lfsr	2,2
 12361  003180  501B               	movf	_pBDTEntryEP0OutNext^0,w,c
 12362  003182  26D9               	addwf	fsr2l,f,c
 12363  003184  501C               	movf	(_pBDTEntryEP0OutNext+1)^0,w,c
 12364  003186  22DA               	addwfc	fsr2h,f,c
 12365  003188  0E30               	movlw	48
 12366  00318A  6EDE               	movwf	postinc2,c
 12367  00318C  0E04               	movlw	4
 12368  00318E  6EDD               	movwf	postdec2,c
 12369  003190                     
 12370                           ;usb_device.c: 1461:                 pBDTEntryEP0OutNext->STAT.Val = 0x80;
 12371  003190  C01B  FFD9         	movff	_pBDTEntryEP0OutNext,fsr2l
 12372  003194  C01C  FFDA         	movff	_pBDTEntryEP0OutNext+1,fsr2h
 12373  003198  0E80               	movlw	128
 12374  00319A  6EDF               	movwf	indf2,c
 12375  00319C  EFD0  F018         	goto	i2l317
 12376  0031A0                     i2l313:
 12377  0031A0                     i2l317:
 12378  0031A0  0012               	return		;funcret
 12379  0031A2                     __end_ofi2_USBCtrlEPAllowStatusStage:
 12380                           	opt callstack 0
 12381                           
 12382 ;; *************** function i2_USBCtrlTrfInHandler *****************
 12383 ;; Defined at:
 12384 ;;		line 2598 in file "usb_device.c"
 12385 ;; Parameters:    Size  Location     Type
 12386 ;;		None
 12387 ;; Auto vars:     Size  Location     Type
 12388 ;;  USBCtrlTrfIn    1    1[COMRAM] unsigned char 
 12389 ;; Return value:  Size  Location     Type
 12390 ;;                  1    wreg      void 
 12391 ;; Registers used:
 12392 ;;		wreg, fsr1l, fsr1h, fsr2l, fsr2h, status,2, status,0, tblptrl, tblptrh, tblptru, cstack
 12393 ;; Tracked objects:
 12394 ;;		On entry : 0/0
 12395 ;;		On exit  : 0/0
 12396 ;;		Unchanged: 0/0
 12397 ;; Data sizes:     COMRAM   BANK0   BANK1   BANK2   BANK3  BANK4h  BANK4l   BANK5   BANK6   BANK7
 12398 ;;      Params:         0       0       0       0       0       0       0       0       0       0
 12399 ;;      Locals:         1       0       0       0       0       0       0       0       0       0
 12400 ;;      Temps:          0       0       0       0       0       0       0       0       0       0
 12401 ;;      Totals:         1       0       0       0       0       0       0       0       0       0
 12402 ;;Total ram usage:        1 bytes
 12403 ;; Hardware stack levels used:    1
 12404 ;; Hardware stack levels required when called:    1
 12405 ;; This function calls:
 12406 ;;		i2_USBCtrlTrfTxService
 12407 ;; This function is called by:
 12408 ;;		i2_USBCtrlEPService
 12409 ;; This function uses a non-reentrant model
 12410 ;;
 12411                           
 12412                           	psect	text65
 12413  002CBA                     __ptext65:
 12414                           	opt callstack 0
 12415  002CBA                     i2_USBCtrlTrfInHandler:
 12416                           	opt callstack 16
 12417  002CBA                     
 12418                           ;usb_device.c: 2600:     uint8_t lastDTS;;usb_device.c: 2602:     lastDTS = pBDTEntryIn[
      +                          0]->STAT.DTS;
 12419  002CBA  C00F  FFD9         	movff	_pBDTEntryIn,fsr2l
 12420  002CBE  C010  FFDA         	movff	_pBDTEntryIn+1,fsr2h
 12421  002CC2  0E00               	movlw	0
 12422  002CC4  BCDF               	btfsc	indf2,6,c
 12423  002CC6  0E01               	movlw	1
 12424  002CC8  6E2C               	movwf	i2USBCtrlTrfInHandler@lastDTS^0,c
 12425  002CCA                     
 12426                           ;usb_device.c: 2605:     pBDTEntryIn[0] = (volatile BDT_ENTRY*)(((uint16_t)pBDTEntryIn[0
      +                          ]) ^ 0x0004);
 12427  002CCA  0E04               	movlw	4
 12428  002CCC  180F               	xorwf	_pBDTEntryIn^0,w,c
 12429  002CCE  6E0F               	movwf	_pBDTEntryIn^0,c
 12430  002CD0  5010               	movf	(_pBDTEntryIn+1)^0,w,c
 12431  002CD2  6E10               	movwf	(_pBDTEntryIn+1)^0,c
 12432  002CD4                     
 12433                           ;usb_device.c: 2610:     if(USBDeviceState == ADR_PENDING_STATE)
 12434  002CD4  0E08               	movlw	8
 12435  002CD6  1829               	xorwf	_USBDeviceState^0,w,c	;volatile
 12436  002CD8  A4D8               	btfss	status,2,c
 12437  002CDA  EF71  F016         	goto	i2u424_41
 12438  002CDE  EF73  F016         	goto	i2u424_40
 12439  002CE2                     i2u424_41:
 12440  002CE2  EF85  F016         	goto	i2l5069
 12441  002CE6                     i2u424_40:
 12442  002CE6                     
 12443                           ;usb_device.c: 2611:     {;usb_device.c: 2612:         UADDR = (SetupPkt.bDevADR & 0x7F)
      +                          ;
 12444  002CE6  0104               	movlb	4	; () banked
 12445  002CE8  5132               	movf	50,w,b	;volatile
 12446  002CEA  0B7F               	andlw	127
 12447  002CEC  6E6E               	movwf	110,c	;volatile
 12448  002CEE                     
 12449                           ; BSR set to: 4
 12450                           ;usb_device.c: 2613:         if(UADDR != 0u)
 12451  002CEE  506E               	movf	110,w,c	;volatile
 12452  002CF0  B4D8               	btfsc	status,2,c
 12453  002CF2  EF7D  F016         	goto	i2u425_41
 12454  002CF6  EF7F  F016         	goto	i2u425_40
 12455  002CFA                     i2u425_41:
 12456  002CFA  EF83  F016         	goto	i2l5067
 12457  002CFE                     i2u425_40:
 12458  002CFE                     
 12459                           ; BSR set to: 4
 12460                           ;usb_device.c: 2614:         {;usb_device.c: 2615:             USBDeviceState=ADDRESS_ST
      +                          ATE;
 12461  002CFE  0E10               	movlw	16
 12462  002D00  6E29               	movwf	_USBDeviceState^0,c	;volatile
 12463                           
 12464                           ;usb_device.c: 2616:         }
 12465  002D02  EF85  F016         	goto	i2l5069
 12466  002D06                     i2l5067:
 12467                           
 12468                           ; BSR set to: 4
 12469                           ;usb_device.c: 2618:         {;usb_device.c: 2619:             USBDeviceState=DEFAULT_ST
      +                          ATE;
 12470  002D06  0E04               	movlw	4
 12471  002D08  6E29               	movwf	_USBDeviceState^0,c	;volatile
 12472  002D0A                     i2l5069:
 12473                           
 12474                           ;usb_device.c: 2624:     if(controlTransferState == 1)
 12475  002D0A  0427               	decf	_controlTransferState^0,w,c	;volatile
 12476  002D0C  A4D8               	btfss	status,2,c
 12477  002D0E  EF8B  F016         	goto	i2u426_41
 12478  002D12  EF8D  F016         	goto	i2u426_40
 12479  002D16                     i2u426_41:
 12480  002D16  EFD4  F016         	goto	i2l442
 12481  002D1A                     i2u426_40:
 12482  002D1A                     
 12483                           ;usb_device.c: 2625:     {;usb_device.c: 2626:         pBDTEntryIn[0]->ADR = ((uint16_t)
      +                          (CtrlTrfData));
 12484  002D1A  EE20 F002          	lfsr	2,2
 12485  002D1E  500F               	movf	_pBDTEntryIn^0,w,c
 12486  002D20  26D9               	addwf	fsr2l,f,c
 12487  002D22  5010               	movf	(_pBDTEntryIn+1)^0,w,c
 12488  002D24  22DA               	addwfc	fsr2h,f,c
 12489  002D26  0E50               	movlw	80
 12490  002D28  6EDE               	movwf	postinc2,c
 12491  002D2A  0E04               	movlw	4
 12492  002D2C  6EDD               	movwf	postdec2,c
 12493  002D2E                     
 12494                           ;usb_device.c: 2627:         USBCtrlTrfTxService();
 12495  002D2E  EC48  F014         	call	i2_USBCtrlTrfTxService	;wreg free
 12496  002D32                     
 12497                           ;usb_device.c: 2633:         if(shortPacketStatus == 2)
 12498  002D32  0E02               	movlw	2
 12499  002D34  1828               	xorwf	_shortPacketStatus^0,w,c	;volatile
 12500  002D36  A4D8               	btfss	status,2,c
 12501  002D38  EFA0  F016         	goto	i2u427_41
 12502  002D3C  EFA2  F016         	goto	i2u427_40
 12503  002D40                     i2u427_41:
 12504  002D40  EFB0  F016         	goto	i2l5081
 12505  002D44                     i2u427_40:
 12506  002D44                     
 12507                           ;usb_device.c: 2634:         {;usb_device.c: 2637:             pBDTEntryIn[0]->STAT.Val 
      +                          = 0x04;
 12508  002D44  C00F  FFD9         	movff	_pBDTEntryIn,fsr2l
 12509  002D48  C010  FFDA         	movff	_pBDTEntryIn+1,fsr2h
 12510  002D4C  0E04               	movlw	4
 12511  002D4E  6EDF               	movwf	indf2,c
 12512  002D50                     
 12513                           ;usb_device.c: 2638:             pBDTEntryIn[0]->STAT.Val |= 0x80;
 12514  002D50  C00F  FFD9         	movff	_pBDTEntryIn,fsr2l
 12515  002D54  C010  FFDA         	movff	_pBDTEntryIn+1,fsr2h
 12516  002D58  0E00               	movlw	0
 12517  002D5A  8EDB               	bsf	plusw2,7,c
 12518                           
 12519                           ;usb_device.c: 2639:         }
 12520  002D5C  EFDE  F016         	goto	i2l450
 12521  002D60                     i2l5081:
 12522                           
 12523                           ;usb_device.c: 2641:         {;usb_device.c: 2642:             if(lastDTS == 0)
 12524  002D60  502C               	movf	i2USBCtrlTrfInHandler@lastDTS^0,w,c
 12525  002D62  A4D8               	btfss	status,2,c
 12526  002D64  EFB6  F016         	goto	i2u428_41
 12527  002D68  EFB8  F016         	goto	i2u428_40
 12528  002D6C                     i2u428_41:
 12529  002D6C  EFC6  F016         	goto	i2l5087
 12530  002D70                     i2u428_40:
 12531  002D70                     
 12532                           ;usb_device.c: 2643:             {;usb_device.c: 2644:                 pBDTEntryIn[0]->S
      +                          TAT.Val = 0x40|(0x08 & 0x08);
 12533  002D70  C00F  FFD9         	movff	_pBDTEntryIn,fsr2l
 12534  002D74  C010  FFDA         	movff	_pBDTEntryIn+1,fsr2h
 12535  002D78  0E48               	movlw	72
 12536  002D7A  6EDF               	movwf	indf2,c
 12537  002D7C                     
 12538                           ;usb_device.c: 2645:                 pBDTEntryIn[0]->STAT.Val |= 0x80;
 12539  002D7C  C00F  FFD9         	movff	_pBDTEntryIn,fsr2l
 12540  002D80  C010  FFDA         	movff	_pBDTEntryIn+1,fsr2h
 12541  002D84  0E00               	movlw	0
 12542  002D86  8EDB               	bsf	plusw2,7,c
 12543                           
 12544                           ;usb_device.c: 2646:             }
 12545  002D88  EFDE  F016         	goto	i2l450
 12546  002D8C                     i2l5087:
 12547                           
 12548                           ;usb_device.c: 2648:             {;usb_device.c: 2649:                 pBDTEntryIn[0]->S
      +                          TAT.Val = 0x00|(0x08 & 0x08);
 12549  002D8C  C00F  FFD9         	movff	_pBDTEntryIn,fsr2l
 12550  002D90  C010  FFDA         	movff	_pBDTEntryIn+1,fsr2h
 12551  002D94  0E08               	movlw	8
 12552  002D96  6EDF               	movwf	indf2,c
 12553  002D98                     
 12554                           ;usb_device.c: 2650:                 pBDTEntryIn[0]->STAT.Val |= 0x80;
 12555  002D98  C00F  FFD9         	movff	_pBDTEntryIn,fsr2l
 12556  002D9C  C010  FFDA         	movff	_pBDTEntryIn+1,fsr2h
 12557  002DA0  0E00               	movlw	0
 12558  002DA2  8EDB               	bsf	plusw2,7,c
 12559  002DA4  EFDE  F016         	goto	i2l450
 12560  002DA8                     i2l442:
 12561                           
 12562                           ;usb_device.c: 2655:  {;usb_device.c: 2659:         if(outPipes[0].info.bits.busy == 1)
 12563  002DA8  AE04               	btfss	(_outPipes+3)^0,7,c	;volatile
 12564  002DAA  EFD9  F016         	goto	i2u429_41
 12565  002DAE  EFDB  F016         	goto	i2u429_40
 12566  002DB2                     i2u429_41:
 12567  002DB2  EFDC  F016         	goto	i2l5093
 12568  002DB6                     i2u429_40:
 12569  002DB6                     
 12570                           ;usb_device.c: 2665:             outPipes[0].info.bits.busy = 0;
 12571  002DB6  9E04               	bcf	(_outPipes+3)^0,7,c	;volatile
 12572  002DB8                     i2l5093:
 12573                           
 12574                           ;usb_device.c: 2668:         controlTransferState = 0;
 12575  002DB8  0E00               	movlw	0
 12576  002DBA  6E27               	movwf	_controlTransferState^0,c	;volatile
 12577  002DBC                     i2l450:
 12578  002DBC  0012               	return		;funcret
 12579  002DBE                     __end_ofi2_USBCtrlTrfInHandler:
 12580                           	opt callstack 0
 12581                           
 12582 ;; *************** function i2_USBCtrlTrfTxService *****************
 12583 ;; Defined at:
 12584 ;;		line 1777 in file "usb_device.c"
 12585 ;; Parameters:    Size  Location     Type
 12586 ;;		None
 12587 ;; Auto vars:     Size  Location     Type
 12588 ;;  USBCtrlTrfTx    1    0[COMRAM] unsigned char 
 12589 ;; Return value:  Size  Location     Type
 12590 ;;                  1    wreg      void 
 12591 ;; Registers used:
 12592 ;;		wreg, fsr1l, fsr1h, fsr2l, fsr2h, status,2, status,0, tblptrl, tblptrh, tblptru
 12593 ;; Tracked objects:
 12594 ;;		On entry : 0/0
 12595 ;;		On exit  : 0/0
 12596 ;;		Unchanged: 0/0
 12597 ;; Data sizes:     COMRAM   BANK0   BANK1   BANK2   BANK3  BANK4h  BANK4l   BANK5   BANK6   BANK7
 12598 ;;      Params:         0       0       0       0       0       0       0       0       0       0
 12599 ;;      Locals:         1       0       0       0       0       0       0       0       0       0
 12600 ;;      Temps:          0       0       0       0       0       0       0       0       0       0
 12601 ;;      Totals:         1       0       0       0       0       0       0       0       0       0
 12602 ;;Total ram usage:        1 bytes
 12603 ;; Hardware stack levels used:    1
 12604 ;; This function calls:
 12605 ;;		Nothing
 12606 ;; This function is called by:
 12607 ;;		i2_USBCtrlEPAllowDataStage
 12608 ;;		i2_USBCtrlTrfInHandler
 12609 ;; This function uses a non-reentrant model
 12610 ;;
 12611                           
 12612                           	psect	text66
 12613  002890                     __ptext66:
 12614                           	opt callstack 0
 12615  002890                     i2_USBCtrlTrfTxService:
 12616                           	opt callstack 14
 12617  002890                     
 12618                           ;usb_device.c: 1779:     uint8_t byteToSend;;usb_device.c: 1783:     byteToSend = 32;
 12619  002890  0E20               	movlw	32
 12620  002892  6E2B               	movwf	i2USBCtrlTrfTxService@byteToSend^0,c
 12621  002894                     
 12622                           ;usb_device.c: 1784:     if(inPipes[0].wCount.Val < (uint8_t)32)
 12623  002894  500E               	movf	(_inPipes+5)^0,w,c	;volatile
 12624  002896  E107               	bnz	i2u296_41
 12625  002898  0E20               	movlw	32
 12626  00289A  5C0D               	subwf	(_inPipes+4)^0,w,c	;volatile
 12627  00289C  B0D8               	btfsc	status,0,c
 12628  00289E  EF53  F014         	goto	i2u296_41
 12629  0028A2  EF55  F014         	goto	i2u296_40
 12630  0028A6                     i2u296_41:
 12631  0028A6  EF6D  F014         	goto	i2l4065
 12632  0028AA                     i2u296_40:
 12633  0028AA                     
 12634                           ;usb_device.c: 1785:     {;usb_device.c: 1786:         byteToSend = inPipes[0].wCount.Va
      +                          l;
 12635  0028AA  C00D  F02B         	movff	_inPipes+4,i2USBCtrlTrfTxService@byteToSend	;volatile
 12636  0028AE                     
 12637                           ;usb_device.c: 1793:         if(shortPacketStatus == 0)
 12638  0028AE  5028               	movf	_shortPacketStatus^0,w,c	;volatile
 12639  0028B0  A4D8               	btfss	status,2,c
 12640  0028B2  EF5D  F014         	goto	i2u297_41
 12641  0028B6  EF5F  F014         	goto	i2u297_40
 12642  0028BA                     i2u297_41:
 12643  0028BA  EF63  F014         	goto	i2l4061
 12644  0028BE                     i2u297_40:
 12645  0028BE                     
 12646                           ;usb_device.c: 1794:         {;usb_device.c: 1795:             shortPacketStatus = 1;
 12647  0028BE  0E01               	movlw	1
 12648  0028C0  6E28               	movwf	_shortPacketStatus^0,c	;volatile
 12649                           
 12650                           ;usb_device.c: 1796:         }
 12651  0028C2  EF6D  F014         	goto	i2l4065
 12652  0028C6                     i2l4061:
 12653  0028C6  0428               	decf	_shortPacketStatus^0,w,c	;volatile
 12654  0028C8  A4D8               	btfss	status,2,c
 12655  0028CA  EF69  F014         	goto	i2u298_41
 12656  0028CE  EF6B  F014         	goto	i2u298_40
 12657  0028D2                     i2u298_41:
 12658  0028D2  EF6D  F014         	goto	i2l4065
 12659  0028D6                     i2u298_40:
 12660  0028D6                     
 12661                           ;usb_device.c: 1798:         {;usb_device.c: 1799:             shortPacketStatus = 2;
 12662  0028D6  0E02               	movlw	2
 12663  0028D8  6E28               	movwf	_shortPacketStatus^0,c	;volatile
 12664  0028DA                     i2l4065:
 12665                           
 12666                           ;usb_device.c: 1805:     inPipes[0].wCount.Val -= byteToSend;
 12667  0028DA  502B               	movf	i2USBCtrlTrfTxService@byteToSend^0,w,c
 12668  0028DC  5E0D               	subwf	(_inPipes+4)^0,f,c	;volatile
 12669  0028DE  0E00               	movlw	0
 12670  0028E0  5A0E               	subwfb	(_inPipes+5)^0,f,c	;volatile
 12671  0028E2                     
 12672                           ;usb_device.c: 1810:     pBDTEntryIn[0]->CNT = byteToSend;
 12673  0028E2  EE20 F001          	lfsr	2,1
 12674  0028E6  500F               	movf	_pBDTEntryIn^0,w,c
 12675  0028E8  26D9               	addwf	fsr2l,f,c
 12676  0028EA  5010               	movf	(_pBDTEntryIn+1)^0,w,c
 12677  0028EC  22DA               	addwfc	fsr2h,f,c
 12678  0028EE  C02B  FFDF         	movff	i2USBCtrlTrfTxService@byteToSend,indf2
 12679  0028F2                     
 12680                           ;usb_device.c: 1814:     pDst = (volatile uint8_t*)CtrlTrfData;
 12681  0028F2  0E50               	movlw	80
 12682  0028F4  0100               	movlb	0	; () banked
 12683  0028F6  6FC2               	movwf	_pDst& (0+255),b
 12684  0028F8  0E04               	movlw	4
 12685  0028FA  6FC3               	movwf	(_pDst+1)& (0+255),b
 12686  0028FC                     
 12687                           ; BSR set to: 0
 12688                           ;usb_device.c: 1815:     if(inPipes[0].info.bits.ctrl_trf_mem == 0x00)
 12689  0028FC  B00C               	btfsc	(_inPipes+3)^0,0,c	;volatile
 12690  0028FE  EF83  F014         	goto	i2u299_41
 12691  002902  EF85  F014         	goto	i2u299_40
 12692  002906                     i2u299_41:
 12693  002906  EFC7  F014         	goto	i2l4093
 12694  00290A                     i2u299_40:
 12695  00290A  EFA2  F014         	goto	i2l4083
 12696  00290E                     i2l4075:
 12697                           
 12698                           ; BSR set to: 0
 12699                           ;usb_device.c: 1818:         {;usb_device.c: 1819:             *pDst++ = *inPipes[0].pSr
      +                          c.bRom++;
 12700  00290E  C009  FFF6         	movff	_inPipes,tblptrl	;volatile
 12701  002912  C00A  FFF7         	movff	_inPipes+1,tblptrh	;volatile
 12702  002916  6AF8               	clrf	tblptru,c
 12703  002918  C0C2  FFD9         	movff	_pDst,fsr2l
 12704  00291C  C0C3  FFDA         	movff	_pDst+1,fsr2h
 12705  002920  0E07               	movlw	(high __ramtop+-1)
 12706  002922  64F7               	cpfsgt	tblptrh,c
 12707  002924  D003               	bra	i2u300_47
 12708  002926  0008               	tblrd		*
 12709  002928  50F5               	movf	tablat,w,c
 12710  00292A  D005               	bra	i2u300_40
 12711  00292C                     i2u300_47:
 12712  00292C  CFF6 FFE1          	movff	tblptrl,fsr1l
 12713  002930  CFF7 FFE2          	movff	tblptrh,fsr1h
 12714  002934  50E7               	movf	indf1,w,c
 12715  002936                     i2u300_40:
 12716  002936  6EDF               	movwf	indf2,c
 12717  002938  4A09               	infsnz	_inPipes^0,f,c	;volatile
 12718  00293A  2A0A               	incf	(_inPipes+1)^0,f,c	;volatile
 12719  00293C  0100               	movlb	0	; () banked
 12720  00293E  4BC2               	infsnz	_pDst& (0+255),f,b
 12721  002940  2BC3               	incf	(_pDst+1)& (0+255),f,b
 12722  002942                     
 12723                           ; BSR set to: 0
 12724                           ;usb_device.c: 1820:             byteToSend--;
 12725  002942  062B               	decf	i2USBCtrlTrfTxService@byteToSend^0,f,c
 12726  002944                     i2l4083:
 12727                           
 12728                           ; BSR set to: 0
 12729                           ;usb_device.c: 1817:         while(byteToSend)
 12730  002944  502B               	movf	i2USBCtrlTrfTxService@byteToSend^0,w,c
 12731  002946  A4D8               	btfss	status,2,c
 12732  002948  EFA8  F014         	goto	i2u301_41
 12733  00294C  EFAA  F014         	goto	i2u301_40
 12734  002950                     i2u301_41:
 12735  002950  EF87  F014         	goto	i2l4075
 12736  002954                     i2u301_40:
 12737  002954  EFCF  F014         	goto	i2l356
 12738  002958                     i2l4085:
 12739                           
 12740                           ; BSR set to: 0
 12741                           ;usb_device.c: 1826:         {;usb_device.c: 1827:             *pDst++ = *inPipes[0].pSr
      +                          c.bRam++;
 12742  002958  C009  FFF6         	movff	_inPipes,tblptrl	;volatile
 12743  00295C  C00A  FFF7         	movff	_inPipes+1,tblptrh	;volatile
 12744  002960  6AF8               	clrf	tblptru,c
 12745  002962  C0C2  FFD9         	movff	_pDst,fsr2l
 12746  002966  C0C3  FFDA         	movff	_pDst+1,fsr2h
 12747  00296A  0E07               	movlw	(high __ramtop+-1)
 12748  00296C  64F7               	cpfsgt	tblptrh,c
 12749  00296E  D003               	bra	i2u302_47
 12750  002970  0008               	tblrd		*
 12751  002972  50F5               	movf	tablat,w,c
 12752  002974  D005               	bra	i2u302_40
 12753  002976                     i2u302_47:
 12754  002976  CFF6 FFE1          	movff	tblptrl,fsr1l
 12755  00297A  CFF7 FFE2          	movff	tblptrh,fsr1h
 12756  00297E  50E7               	movf	indf1,w,c
 12757  002980                     i2u302_40:
 12758  002980  6EDF               	movwf	indf2,c
 12759  002982  4A09               	infsnz	_inPipes^0,f,c	;volatile
 12760  002984  2A0A               	incf	(_inPipes+1)^0,f,c	;volatile
 12761  002986  0100               	movlb	0	; () banked
 12762  002988  4BC2               	infsnz	_pDst& (0+255),f,b
 12763  00298A  2BC3               	incf	(_pDst+1)& (0+255),f,b
 12764  00298C                     
 12765                           ; BSR set to: 0
 12766                           ;usb_device.c: 1828:             byteToSend--;
 12767  00298C  062B               	decf	i2USBCtrlTrfTxService@byteToSend^0,f,c
 12768  00298E                     i2l4093:
 12769                           
 12770                           ; BSR set to: 0
 12771                           ;usb_device.c: 1825:         while(byteToSend)
 12772  00298E  502B               	movf	i2USBCtrlTrfTxService@byteToSend^0,w,c
 12773  002990  A4D8               	btfss	status,2,c
 12774  002992  EFCD  F014         	goto	i2u303_41
 12775  002996  EFCF  F014         	goto	i2u303_40
 12776  00299A                     i2u303_41:
 12777  00299A  EFAC  F014         	goto	i2l4085
 12778  00299E                     i2u303_40:
 12779  00299E                     i2l356:
 12780                           
 12781                           ; BSR set to: 0
 12782  00299E  0012               	return		;funcret
 12783  0029A0                     __end_ofi2_USBCtrlTrfTxService:
 12784                           	opt callstack 0
 12785                           
 12786                           	psect	rparam
 12787  0000                     
 12788                           	psect	temp
 12789  000054                     btemp:
 12790                           	opt callstack 0
 12791  000054                     	ds	1
 12792  0000                     int$flags	set	btemp
 12793  0000                     wtemp8	set	btemp+1
 12794  0000                     ttemp5	set	btemp+1
 12795  0000                     ttemp6	set	btemp+4
 12796  0000                     ttemp7	set	btemp+8
 12797                           tosu	equ	0xFFF
 12798                           tosh	equ	0xFFE
 12799                           tosl	equ	0xFFD
 12800                           stkptr	equ	0xFFC
 12801                           pclatu	equ	0xFFB
 12802                           pclath	equ	0xFFA
 12803                           pcl	equ	0xFF9
 12804                           tblptru	equ	0xFF8
 12805                           tblptrh	equ	0xFF7
 12806                           tblptrl	equ	0xFF6
 12807                           tablat	equ	0xFF5
 12808                           prodh	equ	0xFF4
 12809                           prodl	equ	0xFF3
 12810                           indf0	equ	0xFEF
 12811                           postinc0	equ	0xFEE
 12812                           postdec0	equ	0xFED
 12813                           preinc0	equ	0xFEC
 12814                           plusw0	equ	0xFEB
 12815                           fsr0h	equ	0xFEA
 12816                           fsr0l	equ	0xFE9
 12817                           wreg	equ	0xFE8
 12818                           indf1	equ	0xFE7
 12819                           postinc1	equ	0xFE6
 12820                           postdec1	equ	0xFE5
 12821                           preinc1	equ	0xFE4
 12822                           plusw1	equ	0xFE3
 12823                           fsr1h	equ	0xFE2
 12824                           fsr1l	equ	0xFE1
 12825                           bsr	equ	0xFE0
 12826                           indf2	equ	0xFDF
 12827                           postinc2	equ	0xFDE
 12828                           postdec2	equ	0xFDD
 12829                           preinc2	equ	0xFDC
 12830                           plusw2	equ	0xFDB
 12831                           fsr2h	equ	0xFDA
 12832                           fsr2l	equ	0xFD9
 12833                           status	equ	0xFD8


Data Sizes:
    Strings     0
    Constant    167
    Data        7
    BSS         169
    Persistent  0
    Stack       0

Auto Spaces:
    Space          Size  Autos    Used
    COMRAM           94     41      83
    BANK0           160     26     160
    BANK1           256      6       6
    BANK2           256      0       0
    BANK3           256      0       0
    BANK4h          144      0       0
    BANK4l           24      0       0
    BANK5           128      0       0
    BANK6           256      0       0
    BANK7           256      0       0

Pointer List with Targets:

    USER_USB_CALLBACK_EVENT_HANDLER@pdata	PTR void  size(2) Largest target is 2047
		 -> RAM(DATA[2047]), USTATcopy(BANK0[1]), USBActiveConfiguration(COMRAM[1]), NULL(NULL[0]), 
		 -> BDT(BIGRAMl[48]), 

    memset@dest	PTR void  size(2) Largest target is 48
		 -> USBAlternateInterface(BANK0[2]), BDT(BIGRAMl[48]), UEP1(SFR[1]), 

    memset@s	PTR unsigned char  size(2) Largest target is 48
		 -> USBAlternateInterface(BANK0[2]), BDT(BIGRAMl[48]), UEP1(SFR[1]), 

    memcpy@d1	PTR void  size(2) Largest target is 8
		 -> SetupPkt(BIGRAMhl[8]), 

    memcpy@d	PTR unsigned char  size(2) Largest target is 8
		 -> SetupPkt(BIGRAMhl[8]), 

    memcpy@s1	PTR const void  size(2) Largest target is 2047
		 -> CtrlTrfData(BIGRAMhl[32]), RAM(DATA[2047]), SetupPkt(BIGRAMhl[8]), 

    memcpy@s	PTR const unsigned char  size(2) Largest target is 2047
		 -> CtrlTrfData(BIGRAMhl[32]), RAM(DATA[2047]), SetupPkt(BIGRAMhl[8]), 

    putUSBUSART@data	PTR unsigned char  size(2) Largest target is 7
		 -> sendFlap@msg(BANK0[7]), 

    CDCDataInHandle	PTR void  size(2) Largest target is 2047
		 -> RAM(DATA[2047]), NULL(NULL[0]), BDT(BIGRAMl[48]), 

    CDCDataOutHandle	PTR void  size(2) Largest target is 2047
		 -> RAM(DATA[2047]), NULL(NULL[0]), BDT(BIGRAMl[48]), 

    pCDCDst.wRom	PTR const unsigned short  size(2) Largest target is 0

    pCDCDst.bRom	PTR const unsigned char  size(2) Largest target is 0

    pCDCDst.wRam	PTR unsigned short  size(2) Largest target is 0

    pCDCDst.bRam	PTR unsigned char  size(2) Largest target is 0

    S2018_POINTER$wRom	PTR const unsigned short  size(2) Largest target is 0

    pCDCSrc.wRom	PTR const unsigned short  size(2) Largest target is 0

    S2018_POINTER$bRom	PTR const unsigned char  size(2) Largest target is 0

    pCDCSrc.bRom	PTR const unsigned char  size(2) Largest target is 0

    S2018_POINTER$wRam	PTR unsigned short  size(2) Largest target is 0

    pCDCSrc.wRam	PTR unsigned short  size(2) Largest target is 0

    S2018_POINTER$bRam	PTR unsigned char  size(2) Largest target is 0

    pCDCSrc.bRam	PTR unsigned char  size(2) Largest target is 0

    USBStdFeatureReqHandler@pUEP	PTR unsigned char  size(2) Largest target is 1
		 -> UEP0(SFR[1]), 

    USBStdFeatureReqHandler@p	PTR struct __BDT size(2) Largest target is 2047
		 -> RAM(DATA[2047]), NULL(NULL[0]), BDT(BIGRAMl[48]), 

    sp__memcpy	PTR void  size(2) Largest target is 8
		 -> SetupPkt(BIGRAMhl[8]), 

    USBStdGetStatusHandler@p	PTR struct __BDT size(2) Largest target is 2047
		 -> RAM(DATA[2047]), NULL(NULL[0]), BDT(BIGRAMl[48]), 

    pDst	PTR volatile unsigned char  size(2) Largest target is 32
		 -> CtrlTrfData(BIGRAMhl[32]), NULL(NULL[0]), 

    USBConfigureEndpoint@handle	PTR volatile struct __BDT size(2) Largest target is 48
		 -> BDT(BIGRAMl[48]), 

    pBDTEntryEP0OutCurrent	PTR volatile struct __BDT size(2) Largest target is 48
		 -> NULL(NULL[0]), BDT(BIGRAMl[48]), 

    pBDTEntryEP0OutNext	PTR volatile struct __BDT size(2) Largest target is 2047
		 -> RAM(DATA[2047]), NULL(NULL[0]), BDT(BIGRAMl[48]), 

    USBTransferOnePacket@data	PTR unsigned char  size(2) Largest target is 64
		 -> cdc_data_tx(BIGRAMhhl[64]), cdc_data_rx(BIGRAMhhh[64]), NULL(NULL[0]), 

    sp__USBTransferOnePacket	PTR void  size(2) Largest target is 2047
		 -> RAM(DATA[2047]), NULL(NULL[0]), BDT(BIGRAMl[48]), 

    USBTransferOnePacket@handle	PTR volatile struct __BDT size(2) Largest target is 2047
		 -> RAM(DATA[2047]), NULL(NULL[0]), BDT(BIGRAMl[48]), 

    USBEnableEndpoint@p	PTR unsigned char  size(2) Largest target is 1
		 -> UEP0(SFR[1]), 

    pBDTEntryOut	PTR volatile struct __BDT[3] size(2) Largest target is 2047
		 -> RAM(DATA[2047]), NULL(NULL[0]), BDT(BIGRAMl[48]), 

    pBDTEntryIn	PTR volatile struct __BDT[3] size(2) Largest target is 2047
		 -> RAM(DATA[2047]), NULL(NULL[0]), BDT(BIGRAMl[48]), 

    S512$pFunc	PTR FTN()void  size(2) Largest target is 0
		 -> NULL(NULL[0]), 

    outPipes.pFunc	PTR FTN()void  size(2) Largest target is 0
		 -> NULL(NULL[0]), 

    S502$wRam	PTR unsigned short  size(2) Largest target is 0

    outPipes.pDst.wRam	PTR unsigned short  size(2) Largest target is 0

    S502$bRam	PTR unsigned char  size(2) Largest target is 0

    outPipes.pDst.bRam	PTR unsigned char  size(2) Largest target is 0

    S478$wRom	PTR const unsigned short  size(2) Largest target is 0

    inPipes.pSrc.wRom	PTR const unsigned short  size(2) Largest target is 0

    S478$wRam	PTR unsigned short  size(2) Largest target is 0

    inPipes.pSrc.wRam	PTR unsigned short  size(2) Largest target is 0

    S478$bRom	PTR const unsigned char  size(2) Largest target is 0

    inPipes.pSrc.bRom	PTR const unsigned char  size(2) Largest target is 0

    S478$bRam	PTR unsigned char  size(2) Largest target is 0

    inPipes.pSrc.bRam	PTR unsigned char  size(2) Largest target is 0

    sp__memset	PTR void  size(2) Largest target is 48
		 -> USBAlternateInterface(BANK0[2]), BDT(BIGRAMl[48]), UEP1(SFR[1]), 

    USB_SD_Ptr	const PTR const unsigned char [3] size(2) Largest target is 38
		 -> sd002(CODE[32]), sd001(CODE[38]), sd000(CODE[4]), 

    USB_CD_Ptr	const PTR const unsigned char [1] size(2) Largest target is 67
		 -> configDescriptor1(CODE[67]), 


Critical Paths under _main in COMRAM

    None.

Critical Paths under _mainISR in COMRAM

    _processUSBTasks->i2_USBDeviceTasks
    i2_USBDeviceTasks->i2_USBCtrlEPService
    i2_USBWakeFromSuspend->i2_USER_USB_CALLBACK_EVENT_HANDLER
    i2_USBSuspend->i2_USER_USB_CALLBACK_EVENT_HANDLER
    i2_USBDeviceInit->i2_memset
    i2_USBCtrlTrfSetupHandler->i2_USBCheckStdRequest
    i2_USBCtrlEPAllowDataStage->i2_USBCtrlTrfTxService
    i2_USBCheckStdRequest->i2_USBStdFeatureReqHandler
    i2_USBStdSetCfgHandler->i2_USER_USB_CALLBACK_EVENT_HANDLER
    i2_USBStdFeatureReqHandler->i2_USER_USB_CALLBACK_EVENT_HANDLER
    i2_CDCInitEP->i2_USBEnableEndpoint
    i2_USBEnableEndpoint->i2_USBConfigureEndpoint
    i2_USBCtrlTrfOutHandler->i2_USBCtrlTrfRxService
    i2_USBCtrlTrfInHandler->i2_USBCtrlTrfTxService

Critical Paths under _main in BANK0

    _main->_USBDeviceTasks
    _sendFlap->_CDCTxService
    _CDCTxService->_USBTransferOnePacket
    _initUSBLib->_USBDeviceInit
    _USBDeviceTasks->_USBCtrlEPService
    _USBWakeFromSuspend->_USER_USB_CALLBACK_EVENT_HANDLER
    _USBSuspend->_USER_USB_CALLBACK_EVENT_HANDLER
    _USBDeviceInit->_memset
    _USBCtrlTrfSetupHandler->_USBCheckStdRequest
    _USBCtrlEPAllowDataStage->_USBCtrlTrfTxService
    _USBCheckStdRequest->_USBStdFeatureReqHandler
    _USBStdSetCfgHandler->_USER_USB_CALLBACK_EVENT_HANDLER
    _USBStdFeatureReqHandler->_USER_USB_CALLBACK_EVENT_HANDLER
    _CDCInitEP->_USBEnableEndpoint
    _USBEnableEndpoint->_USBConfigureEndpoint
    _USBCtrlTrfOutHandler->_USBCtrlTrfRxService
    _USBCtrlTrfInHandler->_USBCtrlTrfTxService

Critical Paths under _mainISR in BANK0

    None.

Critical Paths under _main in BANK1

    _USBCheckStdRequest->_USBStdFeatureReqHandler

Critical Paths under _mainISR in BANK1

    None.

Critical Paths under _main in BANK2

    None.

Critical Paths under _mainISR in BANK2

    None.

Critical Paths under _main in BANK3

    None.

Critical Paths under _mainISR in BANK3

    None.

Critical Paths under _main in BANK4h

    None.

Critical Paths under _mainISR in BANK4h

    None.

Critical Paths under _main in BANK4l

    None.

Critical Paths under _mainISR in BANK4l

    None.

Critical Paths under _main in BANK5

    None.

Critical Paths under _mainISR in BANK5

    None.

Critical Paths under _main in BANK6

    None.

Critical Paths under _mainISR in BANK6

    None.

Critical Paths under _main in BANK7

    None.

Critical Paths under _mainISR in BANK7

    None.

Call Graph Tables:

 ---------------------------------------------------------------------------------
 (Depth) Function   	        Calls       Base Space   Used Autos Params    Refs
 ---------------------------------------------------------------------------------
 (0) _main                                                 1     1      0   55497
                                              5 BANK1      1     1      0
                     _USBDeviceTasks
                      _debounceDelay
                         _initUSBLib
                         _isUSBReady
                      _readButtonAsm
                           _sendFlap
 ---------------------------------------------------------------------------------
 (1) _sendFlap                                             7     7      0    2604
                                             13 BANK0      7     7      0
                       _CDCTxService
                        _putUSBUSART
 ---------------------------------------------------------------------------------
 (2) _putUSBUSART                                          3     0      3     270
                                              0 BANK0      3     0      3
 ---------------------------------------------------------------------------------
 (2) _CDCTxService                                         2     2      0    2294
                                             11 BANK0      2     2      0
               _USBTransferOnePacket
 ---------------------------------------------------------------------------------
 (1) _readButtonAsm                                        0     0      0       0
 ---------------------------------------------------------------------------------
 (1) _isUSBReady                                           2     2      0      37
                                              0 BANK0      2     2      0
 ---------------------------------------------------------------------------------
 (1) _initUSBLib                                           0     0      0    2556
                    _USBDeviceAttach
                      _USBDeviceInit
 ---------------------------------------------------------------------------------
 (2) _USBDeviceAttach                                      0     0      0       0
 ---------------------------------------------------------------------------------
 (1) _debounceDelay                                        4     4      0     136
                                              0 BANK0      4     4      0
 ---------------------------------------------------------------------------------
 (1) _USBDeviceTasks                                       1     1      0   50130
                                             25 BANK0      1     1      0
          _USBCtrlEPAllowStatusStage
                   _USBCtrlEPService
                      _USBDeviceInit
      _USBIncrement1msInternalTimers
                    _USBStallHandler
                         _USBSuspend
                 _USBWakeFromSuspend
    _USER_USB_CALLBACK_EVENT_HANDLER
 ---------------------------------------------------------------------------------
 (2) _USBWakeFromSuspend                                   0     0      0    6196
    _USER_USB_CALLBACK_EVENT_HANDLER
 ---------------------------------------------------------------------------------
 (2) _USBSuspend                                           0     0      0    6196
    _USER_USB_CALLBACK_EVENT_HANDLER
 ---------------------------------------------------------------------------------
 (2) _USBStallHandler                                      1     1      0       0
                                              0 BANK0      1     1      0
 ---------------------------------------------------------------------------------
 (2) _USBIncrement1msInternalTimers                        0     0      0       0
 ---------------------------------------------------------------------------------
 (2) _USBDeviceInit                                        1     1      0    2556
                                             12 BANK0      1     1      0
                             _memset
 ---------------------------------------------------------------------------------
 (2) _USBCtrlEPService                                     1     1      0   28918
                                             24 BANK0      1     1      0
                _USBCtrlTrfInHandler
               _USBCtrlTrfOutHandler
             _USBCtrlTrfSetupHandler
                             _memcpy
 ---------------------------------------------------------------------------------
 (3) _memcpy                                              11     5      6     520
                                              0 BANK0     11     5      6
 ---------------------------------------------------------------------------------
 (3) _USBCtrlTrfSetupHandler                               0     0      0   28061
                 _USBCheckStdRequest
           _USBCtrlEPServiceComplete
    _USER_USB_CALLBACK_EVENT_HANDLER
 ---------------------------------------------------------------------------------
 (4) _USBCtrlEPServiceComplete                             0     0      0     136
            _USBCtrlEPAllowDataStage
          _USBCtrlEPAllowStatusStage
 ---------------------------------------------------------------------------------
 (5) _USBCtrlEPAllowDataStage                              0     0      0     136
                _USBCtrlTrfTxService
 ---------------------------------------------------------------------------------
 (4) _USBCheckStdRequest                                   2     2      0   21729
                                             22 BANK0      2     2      0
            _USBStdFeatureReqHandler
                _USBStdGetDscHandler
             _USBStdGetStatusHandler
                _USBStdSetCfgHandler
    _USER_USB_CALLBACK_EVENT_HANDLER
 ---------------------------------------------------------------------------------
 (5) _USBStdSetCfgHandler                                  1     1      0    8591
                                             20 BANK0      1     1      0
    _USER_USB_CALLBACK_EVENT_HANDLER
                             _memset
 ---------------------------------------------------------------------------------
 (3) _memset                                              12     6      6    2265
                                              0 BANK0     12     6      6
 ---------------------------------------------------------------------------------
 (5) _USBStdGetStatusHandler                               4     4      0      68
                                              0 BANK0      4     4      0
 ---------------------------------------------------------------------------------
 (5) _USBStdGetDscHandler                                  2     2      0       0
                                              0 BANK0      2     2      0
 ---------------------------------------------------------------------------------
 (5) _USBStdFeatureReqHandler                              7     7      0    6874
                                             20 BANK0      2     2      0
                                              0 BANK1      5     5      0
    _USER_USB_CALLBACK_EVENT_HANDLER
 ---------------------------------------------------------------------------------
 (2) _USER_USB_CALLBACK_EVENT_HANDLER                      8     2      6    6196
                                             12 BANK0      8     2      6
                          _CDCInitEP
                 _USBCheckCDCRequest
 ---------------------------------------------------------------------------------
 (3) _USBCheckCDCRequest                                   2     2      0       0
                                              0 BANK0      2     2      0
 ---------------------------------------------------------------------------------
 (3) _CDCInitEP                                            0     0      0    3045
                  _USBEnableEndpoint
               _USBTransferOnePacket
 ---------------------------------------------------------------------------------
 (3) _USBTransferOnePacket                                11     7      4    2093
                                              0 BANK0     11     7      4
 ---------------------------------------------------------------------------------
 (4) _USBEnableEndpoint                                    4     3      1     952
                                              8 BANK0      4     3      1
               _USBConfigureEndpoint
 ---------------------------------------------------------------------------------
 (5) _USBConfigureEndpoint                                 8     7      1     524
                                              0 BANK0      8     7      1
 ---------------------------------------------------------------------------------
 (3) _USBCtrlTrfOutHandler                                 0     0      0     167
                _USBCtrlTrfRxService
 ---------------------------------------------------------------------------------
 (4) _USBCtrlTrfRxService                                  2     2      0     167
                                              0 BANK0      2     2      0
          _USBCtrlEPAllowStatusStage
 ---------------------------------------------------------------------------------
 (5) _USBCtrlEPAllowStatusStage                            0     0      0       0
 ---------------------------------------------------------------------------------
 (3) _USBCtrlTrfInHandler                                  1     1      0     170
                                              1 BANK0      1     1      0
                _USBCtrlTrfTxService
 ---------------------------------------------------------------------------------
 (6) _USBCtrlTrfTxService                                  1     1      0     136
                                              0 BANK0      1     1      0
 ---------------------------------------------------------------------------------
 Estimated maximum stack depth 6
 ---------------------------------------------------------------------------------
 (Depth) Function   	        Calls       Base Space   Used Autos Params    Refs
 ---------------------------------------------------------------------------------
 (10) _mainISR                                            10    10      0   15618
                                             31 COMRAM    10    10      0
                    _processUSBTasks
 ---------------------------------------------------------------------------------
 (11) _processUSBTasks                                     0     0      0   15618
                   i2_USBDeviceTasks
 ---------------------------------------------------------------------------------
 (12) i2_USBDeviceTasks                                    1     1      0   15618
                                             30 COMRAM     1     1      0
        i2_USBCtrlEPAllowStatusStage
                 i2_USBCtrlEPService
                    i2_USBDeviceInit
    i2_USBIncrement1msInternalTimers
                  i2_USBStallHandler
                       i2_USBSuspend
               i2_USBWakeFromSuspend
  i2_USER_USB_CALLBACK_EVENT_HANDLER
 ---------------------------------------------------------------------------------
 (13) i2_USBWakeFromSuspend                                0     0      0    1737
  i2_USER_USB_CALLBACK_EVENT_HANDLER
 ---------------------------------------------------------------------------------
 (13) i2_USBSuspend                                        0     0      0    1737
  i2_USER_USB_CALLBACK_EVENT_HANDLER
 ---------------------------------------------------------------------------------
 (13) i2_USBStallHandler                                   1     1      0       0
                                              0 COMRAM     1     1      0
 ---------------------------------------------------------------------------------
 (13) i2_USBIncrement1msInternalTimers                     0     0      0       0
 ---------------------------------------------------------------------------------
 (13) i2_USBDeviceInit                                     1     1      0    1233
                                             12 COMRAM     1     1      0
                           i2_memset
 ---------------------------------------------------------------------------------
 (13) i2_USBCtrlEPService                                  1     1      0    9128
                                             29 COMRAM     1     1      0
              i2_USBCtrlTrfInHandler
             i2_USBCtrlTrfOutHandler
           i2_USBCtrlTrfSetupHandler
                           i2_memcpy
 ---------------------------------------------------------------------------------
 (14) i2_memcpy                                           11     5      6     221
                                              0 COMRAM    11     5      6
 ---------------------------------------------------------------------------------
 (14) i2_USBCtrlTrfSetupHandler                            0     0      0    8678
               i2_USBCheckStdRequest
         i2_USBCtrlEPServiceComplete
  i2_USER_USB_CALLBACK_EVENT_HANDLER
 ---------------------------------------------------------------------------------
 (15) i2_USBCtrlEPServiceComplete                          0     0      0      92
          i2_USBCtrlEPAllowDataStage
        i2_USBCtrlEPAllowStatusStage
 ---------------------------------------------------------------------------------
 (16) i2_USBCtrlEPAllowDataStage                           0     0      0      92
              i2_USBCtrlTrfTxService
 ---------------------------------------------------------------------------------
 (15) i2_USBCheckStdRequest                                2     2      0    6849
                                             27 COMRAM     2     2      0
          i2_USBStdFeatureReqHandler
              i2_USBStdGetDscHandler
           i2_USBStdGetStatusHandler
              i2_USBStdSetCfgHandler
  i2_USER_USB_CALLBACK_EVENT_HANDLER
 ---------------------------------------------------------------------------------
 (16) i2_USBStdSetCfgHandler                               1     1      0    2858
                                             20 COMRAM     1     1      0
  i2_USER_USB_CALLBACK_EVENT_HANDLER
                           i2_memset
 ---------------------------------------------------------------------------------
 (14) i2_memset                                           12     6      6    1031
                                              0 COMRAM    12     6      6
 ---------------------------------------------------------------------------------
 (16) i2_USBStdGetStatusHandler                            4     4      0      46
                                              0 COMRAM     4     4      0
 ---------------------------------------------------------------------------------
 (16) i2_USBStdGetDscHandler                               2     2      0       0
                                              0 COMRAM     2     2      0
 ---------------------------------------------------------------------------------
 (16) i2_USBStdFeatureReqHandler                           7     7      0    2208
                                             20 COMRAM     7     7      0
  i2_USER_USB_CALLBACK_EVENT_HANDLER
 ---------------------------------------------------------------------------------
 (13) i2_USER_USB_CALLBACK_EVENT_HANDLER                   8     2      6    1737
                                             12 COMRAM     8     2      6
                        i2_CDCInitEP
               i2_USBCheckCDCRequest
 ---------------------------------------------------------------------------------
 (14) i2_USBCheckCDCRequest                                2     2      0       0
                                              0 COMRAM     2     2      0
 ---------------------------------------------------------------------------------
 (14) i2_CDCInitEP                                         0     0      0     935
                i2_USBEnableEndpoint
             i2_USBTransferOnePacket
 ---------------------------------------------------------------------------------
 (15) i2_USBTransferOnePacket                             11     7      4     454
                                              0 COMRAM    11     7      4
 ---------------------------------------------------------------------------------
 (15) i2_USBEnableEndpoint                                 4     3      1     481
                                              8 COMRAM     4     3      1
             i2_USBConfigureEndpoint
 ---------------------------------------------------------------------------------
 (16) i2_USBConfigureEndpoint                              8     7      1     274
                                              0 COMRAM     8     7      1
 ---------------------------------------------------------------------------------
 (14) i2_USBCtrlTrfOutHandler                              0     0      0     114
              i2_USBCtrlTrfRxService
 ---------------------------------------------------------------------------------
 (15) i2_USBCtrlTrfRxService                               2     2      0     114
                                              0 COMRAM     2     2      0
        i2_USBCtrlEPAllowStatusStage
 ---------------------------------------------------------------------------------
 (16) i2_USBCtrlEPAllowStatusStage                         0     0      0       0
 ---------------------------------------------------------------------------------
 (14) i2_USBCtrlTrfInHandler                               1     1      0     115
                                              1 COMRAM     1     1      0
              i2_USBCtrlTrfTxService
 ---------------------------------------------------------------------------------
 (17) i2_USBCtrlTrfTxService                               1     1      0      92
                                              0 COMRAM     1     1      0
 ---------------------------------------------------------------------------------
 Estimated maximum stack depth 17
 ---------------------------------------------------------------------------------

 Call Graph Graphs:

 _main (ROOT)
   _USBDeviceTasks
     _USBCtrlEPAllowStatusStage
     _USBCtrlEPService
       _USBCtrlTrfInHandler
         _USBCtrlTrfTxService
       _USBCtrlTrfOutHandler
         _USBCtrlTrfRxService
           _USBCtrlEPAllowStatusStage
       _USBCtrlTrfSetupHandler
         _USBCheckStdRequest
           _USBStdFeatureReqHandler
             _USER_USB_CALLBACK_EVENT_HANDLER
               _CDCInitEP
                 _USBEnableEndpoint
                   _USBConfigureEndpoint
                 _USBTransferOnePacket
               _USBCheckCDCRequest
           _USBStdGetDscHandler
           _USBStdGetStatusHandler
           _USBStdSetCfgHandler
             _USER_USB_CALLBACK_EVENT_HANDLER
               _CDCInitEP
                 _USBEnableEndpoint
                   _USBConfigureEndpoint
                 _USBTransferOnePacket
               _USBCheckCDCRequest
             _memset
           _USER_USB_CALLBACK_EVENT_HANDLER
             _CDCInitEP
               _USBEnableEndpoint
                 _USBConfigureEndpoint
               _USBTransferOnePacket
             _USBCheckCDCRequest
         _USBCtrlEPServiceComplete
           _USBCtrlEPAllowDataStage
             _USBCtrlTrfTxService
           _USBCtrlEPAllowStatusStage
         _USER_USB_CALLBACK_EVENT_HANDLER
           _CDCInitEP
             _USBEnableEndpoint
               _USBConfigureEndpoint
             _USBTransferOnePacket
           _USBCheckCDCRequest
       _memcpy
     _USBDeviceInit
       _memset
     _USBIncrement1msInternalTimers
     _USBStallHandler
     _USBSuspend
       _USER_USB_CALLBACK_EVENT_HANDLER
         _CDCInitEP
           _USBEnableEndpoint
             _USBConfigureEndpoint
           _USBTransferOnePacket
         _USBCheckCDCRequest
     _USBWakeFromSuspend
       _USER_USB_CALLBACK_EVENT_HANDLER
         _CDCInitEP
           _USBEnableEndpoint
             _USBConfigureEndpoint
           _USBTransferOnePacket
         _USBCheckCDCRequest
     _USER_USB_CALLBACK_EVENT_HANDLER
       _CDCInitEP
         _USBEnableEndpoint
           _USBConfigureEndpoint
         _USBTransferOnePacket
       _USBCheckCDCRequest
   _debounceDelay
   _initUSBLib
     _USBDeviceAttach
     _USBDeviceInit
       _memset
   _isUSBReady
   _readButtonAsm
   _sendFlap
     _CDCTxService
       _USBTransferOnePacket
     _putUSBUSART

 _mainISR (ROOT)
   _processUSBTasks
     i2_USBDeviceTasks
       i2_USBCtrlEPAllowStatusStage
       i2_USBCtrlEPService
         i2_USBCtrlTrfInHandler
           i2_USBCtrlTrfTxService
         i2_USBCtrlTrfOutHandler
           i2_USBCtrlTrfRxService
             i2_USBCtrlEPAllowStatusStage
         i2_USBCtrlTrfSetupHandler
           i2_USBCheckStdRequest
             i2_USBStdFeatureReqHandler
               i2_USER_USB_CALLBACK_EVENT_HANDLER
                 i2_CDCInitEP
                   i2_USBEnableEndpoint
                     i2_USBConfigureEndpoint
                   i2_USBTransferOnePacket
                 i2_USBCheckCDCRequest
             i2_USBStdGetDscHandler
             i2_USBStdGetStatusHandler
             i2_USBStdSetCfgHandler
               i2_USER_USB_CALLBACK_EVENT_HANDLER
                 i2_CDCInitEP
                   i2_USBEnableEndpoint
                     i2_USBConfigureEndpoint
                   i2_USBTransferOnePacket
                 i2_USBCheckCDCRequest
               i2_memset
             i2_USER_USB_CALLBACK_EVENT_HANDLER
               i2_CDCInitEP
                 i2_USBEnableEndpoint
                   i2_USBConfigureEndpoint
                 i2_USBTransferOnePacket
               i2_USBCheckCDCRequest
           i2_USBCtrlEPServiceComplete
             i2_USBCtrlEPAllowDataStage
               i2_USBCtrlTrfTxService
             i2_USBCtrlEPAllowStatusStage
           i2_USER_USB_CALLBACK_EVENT_HANDLER
             i2_CDCInitEP
               i2_USBEnableEndpoint
                 i2_USBConfigureEndpoint
               i2_USBTransferOnePacket
             i2_USBCheckCDCRequest
         i2_memcpy
       i2_USBDeviceInit
         i2_memset
       i2_USBIncrement1msInternalTimers
       i2_USBStallHandler
       i2_USBSuspend
         i2_USER_USB_CALLBACK_EVENT_HANDLER
           i2_CDCInitEP
             i2_USBEnableEndpoint
               i2_USBConfigureEndpoint
             i2_USBTransferOnePacket
           i2_USBCheckCDCRequest
       i2_USBWakeFromSuspend
         i2_USER_USB_CALLBACK_EVENT_HANDLER
           i2_CDCInitEP
             i2_USBEnableEndpoint
               i2_USBConfigureEndpoint
             i2_USBTransferOnePacket
           i2_USBCheckCDCRequest
       i2_USER_USB_CALLBACK_EVENT_HANDLER
         i2_CDCInitEP
           i2_USBEnableEndpoint
             i2_USBConfigureEndpoint
           i2_USBTransferOnePacket
         i2_USBCheckCDCRequest

 Address spaces:
Name               Size   Autos  Total    Cost      Usage
BIGRAMl            3FF      0       0      25        0.0%
BIGRAMhhh          280      0       0      22        0.0%
EEDATA             100      0       0       0        0.0%
BITBANK7           100      0       0      20        0.0%
BANK7              100      0       0      21        0.0%
BITBANK6           100      0       0      18        0.0%
BANK6              100      0       0      19        0.0%
BITBANK3           100      0       0       9        0.0%
BANK3              100      0       0      10        0.0%
BITBANK2           100      0       0       7        0.0%
BANK2              100      0       0       8        0.0%
BITBANK1           100      0       0       5        0.0%
BANK1              100      6       6       6        2.3%
BITBANK0            A0      0       0       3        0.0%
BANK0               A0     1A      A0       4      100.0%
BIGRAMhhl           90      0       0      23        0.0%
BANK4h              90      0       0      13        0.0%
BITBANK4h           90      0       0      11        0.0%
BITBANK5            80      0       0      15        0.0%
BANK5               80      0       0      16        0.0%
BITCOMRAM           5E      0       0       0        0.0%
COMRAM              5E     29      53       1       88.3%
BIGRAMhl            18      0       0      24        0.0%
BITBANK4l           18      0       0      12        0.0%
BANK4l              18      0       0      14        0.0%
BITSFR               0      0       0     200        0.0%
SFR                  0      0       0     200        0.0%
STACK                0      0       0       2        0.0%
NULL                 0      0       0       0        0.0%
ABS                  0      0      F9      17        0.0%
DATA                 0      0      F9      26        0.0%
CODE                 0      0       0       0        0.0%


Microchip Technology PIC18 Macro Assembler V2.10 build 88905656 
Symbol Table                                                                                   Fri Oct 17 17:23:54 2025

                            _usbWriteBuffer 0060                                  _USB_SD_Ptr 0801  
                     ??i2_USBEnableEndpoint 0034                                          l40 3B82  
                                        l60 3C4E                                          l53 414E  
                                        l48 4136                                          l84 4144  
                                        l95 3FEA                                          l96 3FEC  
              ??i2_USBCtrlEPServiceComplete 002C                               _USBDeviceInit 1B20  
                               __CFG_BORV$3 000000                          __size_of_CDCInitEP 0068  
         __end_ofi2_USBStdFeatureReqHandler 0F78                                __CFG_CP0$OFF 000000  
                              __CFG_CP1$OFF 000000                                __CFG_CP2$OFF 000000  
                              __CFG_CP3$OFF 000000      i2USER_USB_CALLBACK_EVENT_HANDLER@event 0037  
      USER_USB_CALLBACK_EVENT_HANDLER@event 00EB      i2USER_USB_CALLBACK_EVENT_HANDLER@pdata 0039  
      USER_USB_CALLBACK_EVENT_HANDLER@pdata 00ED                                         l313 30B0  
                                       l306 3F20                                         l323 3646  
                                       l331 1F98                                         l251 1C6C  
                                       l307 3F1E                                         l404 2AAC  
                                       l412 40B2                                         l317 30B0  
                                       l341 203C                                         l309 3F32  
               __end_of_USBStdGetDscHandler 19C0                                         l246 1B88  
                                       l407 3CAC                                         l328 3598  
                                       l281 3DBC                                         l409 3CAE  
                                       l257 0FD8                                         l450 2BB4  
                                       l442 2BA0                                         l426 342E  
                                       l418 3F74                                         l258 11A4  
                                       l610 148C                                         l267 10FA  
                                       l356 288E                                         l436 3A48  
                                       l268 11A2                                         l604 1564  
                                       l429 3832                                         l269 110E  
                                       l605 1416                                         l550 2CB8  
                                       l390 19BE                                         l454 2662  
                                       l367 1EE4                                         l287 217E  
                                       l471 08F0                                         l376 328E  
                                       l456 255E                                         l449 2BAE  
                                       l369 1EFA                                         l641 394C  
                                       l465 25B6                                         l490 0B84  
                                       l482 0AD0                                         l394 29AE  
                                       l563 3B24                                         l557 2C34  
                                       l397 2A90                                         l494 0C2A  
                                       l398 29C8                                         l559 2C6A  
                                       l399 29CE                                         l586 410C  
                                       l499 4020                                         _BDT 000400  
                              __CFG_CPB$OFF 000000                                __CFG_CPD$OFF 000000  
                                       _UIE 000F69                                         _UIR 000F68  
                              __CFG_BOR$OFF 000000                                  _USBSuspend 4086  
                      USBStdSetCfgHandler@i 00F3                                         prod 000FF3  
                                       wreg 000FE8                              _USBDeviceTasks 0F78  
                            _USBDeviceState 0029                       ??_USBCtrlTrfRxService 00DF  
                  __size_ofi2_USBDeviceInit 014A                    USBEnableEndpoint@options 00E7  
                              __CFG_LVP$OFF 000000                                __CFG_WDT$OFF 000000  
                                      l1321 3E0E                                        PORTD 000F83  
                                      l1325 16DC                  USBConfigureEndpoint@handle 00E5  
                                      l7001 142C                                        l7011 1484  
                                      l7003 143E                                        l6301 3D7E  
                                      l7101 1BFC                                        l7021 14B6  
                                      l7013 1490                                        l7005 145C  
                                      l6303 3D88                                        l6311 2042  
                                      l7111 1C36                                        l7103 1C0C  
                                      l7031 14E8                                        l7023 14CA  
                                      l7015 149E                                        l7007 1464  
                                      l6305 3D98                                        l6313 2054  
                                      l7201 3406                                        l7121 1C4E  
                                      l7113 1C3A                                        l7105 1C1C  
                                      l7033 14FC                                        l7041 1516  
                                      l7025 14CE                                        l7017 14A2  
                                      l7009 1474                                        l6307 3DA2  
                                      l6331 20EE                                        l6323 20A6  
                                      l6315 2070                                        l6411 1620  
                                      l6403 1586                                        l7203 340E  
                                      l7123 1C52                                        l7115 1C44  
                                      l7107 1C1E                                        l7131 3F02  
                                      l7211 413C                                        l7043 1526  
                                      l7035 1500                                        l7027 14D2  
                                      l7051 1562                                        l6501 2FFC  
                                      l6309 3DB0                                        l6333 20FE  
                                      l6325 20CA                                        l6317 2088  
                                      l6341 2BB6                                        l6421 1680  
                                      l6405 1592                                        l7205 3416  
                                      l7125 1C64                                        l7117 1C48  
                                      l7109 1C2E                                        l7061 1B50  
                                      l7053 1B20                                        l7141 3F38  
                                      l7301 112C                                        l7221 0F9A  
                                      l7133 3F16                                        l7213 4140  
                                      l7045 1538                                        l7037 1504  
                                      l7029 14D4                                        l6511 303C  
                                      l6503 300C                                        l6335 213C  
                                      l6327 20D6                                        l6319 209A  
                                      l6351 2BFA                                        l6431 38C4  
                                      l6423 16B4                                        l6415 163A  
                                      l7207 342A                                        l7127 1C68  
                                      l7119 1C4C                                        l7071 1B5E  
                                      l7063 1B54                                        l7055 1B22  
                                      l7151 3F6E                                        l7143 3F56  
                                      l7311 1172                                        l7303 113A  
                                      l7231 0FC0                                        l7223 0F9C  
                                      l7215 0F78                                        l7135 3F18  
                                      l7047 1540                                        l7039 1506  
                                      l6521 307C                                        l6513 304C  
                                      l6505 3018                                        l6337 2176  
                                      l6329 20E2                                        l6361 2C20  
                                      l6345 2BD0                                        l6433 38C8  
                                      l6601 18E2                                        l6425 16C0  
                                      l6417 1666                                        l6409 15C8  
                                      l7081 1B90                                        l7073 1B76  
                                      l7065 1B58                                        l7057 1B2E  
                                      l7161 4090                                        l7153 4086  
                                      l7145 3F58                                        l7313 118E  
                                      l7305 114C                                        l7241 0FF8  
                                      l7233 0FC4                                        l7217 0F88  
                                      l7225 0FA2                                        l7137 3F2E  
                                      l7129 3EF2                                        l7209 4138  
                                      l7321 3FD4                                        l7049 1544  
                                      l6451 2786                                        l6523 308C  
                                      l6515 3060                                        l6507 3028  
                                      l6291 354C                                        l6283 34EE  
                                      l6371 2C52                                        l6363 2C26  
                                      l6355 2C0E                                        l6435 38D0  
                                      l6611 197A                                        l6603 1916  
                                      l6427 16C6                                        l6531 35B6  
                                      l7091 1BA4                                        l7083 1B92  
                                      l7075 1B78                                        l7059 1B4C  
                                      l7171 400E                                        l7163 4096  
                                      l7155 4088                                        l7147 3F5E  
                                      l7139 3F34                                        l7315 1192  
                                      l7307 115A                                        l7251 101C  
                                      l7243 0FFA                                        l7235 0FD2  
                                      l7227 0FB0                                        l7219 0F96  
                                      l7323 3FE0                                        l7331 4120  
                                      l6461 27C8                                        l6453 279C  
                                      l6525 30A0                                        l6517 306C  
                                      l6509 3038                                        l6293 3568  
                                      l6285 34F8                                        l6373 2C5A  
                                      l6365 2C2E                                        l6357 2C16  
                                      l6349 2BEA                                        l6701 0A60  
                                      l6613 1982                                        l6605 191E  
                                      l6429 16CA                                        l6541 3616  
                                      l6533 35DA                                        l7093 1BB2  
                                      l7085 1B94                                        l7077 1B8A  
                                      l7173 401E                                        l7165 3FEE  
                                      l7181 3C92                                        l7157 408A  
                                      l7149 3F60                                        l7309 116A  
                                      l7261 105C                                        l7253 1020  
                                      l7245 0FFE                                        l7237 0FE6  
                                      l7229 0FBE                                        l7341 3C18  
                                      l7317 3FB6                                        l7333 4132  
                                      l6455 27A0                                        l6463 27CC  
                                      l6519 3078                                        l6295 3580  
                                      l6287 3532                                        l6391 3AEA  
                                      l6375 2C62                                        l6367 2C3C  
                                      l6359 2C1E                                        l6439 38D8  
                                      l6703 0A74                                        l6711 0AEC  
                                      l6607 1930                                        l6631 29C0  
                                      l6551 31A4                                        l6543 361A  
                                      l6535 35E6                                        l6527 359A  
                                      l7191 3392                                        l7087 1B98  
                                      l7079 1B8E                                        l7167 3FFC  
                                      l7183 3C9E                                        l7175 3C50  
                                      l7159 408C                                        l7263 1060  
                                      l7255 102E                                        l7271 1088  
                                      l7239 0FF4                                        l7247 1000  
                                      l7351 3C46                                        l7343 3C20  
                                      l7335 3BF0                                        l7319 3FC6  
                                      l7327 4146                                        l6473 27FE  
                                      l6481 2834                                        l6465 27D4  
                                      l6457 27B0                                        l6449 2780  
                                      l6801 1DEC                                        l6297 358A  
                                      l6289 353C                                        l6393 3AF6  
                                      l6369 2C4C                                        l6721 0B48  
                                      l6713 0AF8                                        l6705 0A8C  
                                      l6609 194C                                        l6617 198A  
                                      l6641 2A50                                        l6633 29E0  
                                      l6625 29A0                                        l6561 31E8  
                                      l6553 31E0                                        l6545 362E  
                                      l6537 35F6                                        l6529 35A4  
                                      l7193 33AE                                        l7089 1B9C  
                                      l7169 400C                                        l7185 3CAA  
                                      l7177 3C5E                                        l7281 10C4  
                                      l7273 1096                                        l7265 1072  
                                      l7257 103C                                        l7249 100E  
                                      l7337 3BFA                                        l7329 410E  
                                      l7361 3B34        __size_ofi2_USBCtrlEPAllowStatusStage 00F0  
                                      l6483 2848                                        l6475 2828  
                                      l6491 287E                                        l6467 27E4  
                                      l6459 27B8                                        l6811 1E24  
                                      l6803 1DF4                                        l6299 3D6E  
                                      l6395 3B16                                        l6387 3ABE  
                                      l6379 2C74                                        l6731 0BB0  
                                      l6723 0B54                                        l6715 0B0E  
                                      l6707 0A9C                                        l6651 2AA8  
                                      l6635 2A04                                        l6571 3238  
                                      l6563 3208                                        l6555 31E2  
                                      l6547 363A                                        l6539 360E  
                                      l7195 33B6                                        l7187 3376  
                                      l7099 1BCC                                        l7179 3C78  
                                      l7283 10E0                                        l7275 10A4  
                                      l7267 1074                                        l7259 105A  
                                      l7347 3C3E                                        l7371 3B66  
                                      l7363 3B38                                        l7355 3B26  
                                      l6485 2872                                        l6477 282C  
                                      l6469 27EC                                        l6493 2FC2  
                                      l6821 1E8C                                        l6813 1E36  
                                      l6805 1E0C                                        l6397 3B20  
                                      l6389 3AE0                                        l6741 0C1E  
                                      l6733 0BC8                                        l6725 0B60  
                                      l6717 0B1A                                        l6709 0AB8  
                                      l6661 08BC                                        l6637 2A24  
                                      l6629 29B0                                        l6645 2A5A  
                                      l6581 3264                                        l6573 3240  
                                      l6565 320A                                        l6549 31A2  
                                      l6901 37DE                                        l7197 33C0  
                                      l7189 337C                                        l7285 10E4  
                                      l7277 10A8                                        l7269 1084  
                                      l7373 3B6A                                        l7365 3B4C  
                                      l7357 3B2E                                        l6487 2876  
                                      l6479 2832                                        l6495 2FD2  
                                      l6831 1EE4                                        l6823 1E98  
                                      l6815 1E5A                                        l6807 1E10  
                                      l6735 0BD4                                        l6727 0B6E  
                                      l6719 0B26                                        l6671 0900  
                                      l6663 08D0                                        l6591 1870  
                                      l6647 2A9E                                        l6639 2A3A  
                                      l6399 1566                                        l6583 326C  
                                      l6575 3248                                        l6567 321A  
                                      l6751 1F34                                        l6743 1EFC  
                                      l6911 3804                                        l6903 37E8  
                                      l7199 33DE                                        l7295 111C  
                                      l7287 10F4                                        l7279 10B6  
                                      l7375 3B6E                                        l7367 3B54  
                                      l7359 3B30                                        l6489 287C  
                                      l6497 2FE6                                        l6833 1EE6  
                                      l6817 1E70                                        l6825 1EA8  
                                      l6809 1E12                                        l6921 39E8  
                                      l6729 0B94                                        l6737 0BF4  
                                      l6681 0964                                        l6673 0914  
                                      l6665 08D2                                        l6593 1878  
                                      l6649 2AA6                                        l6585 328A  
                                      l6577 3250                                        l6569 3236  
                                      l6841 2560                                        l6761 1F88  
                                      l6753 1F38                                        l6745 1F0C  
                                      l6913 380C                                        l6905 37F4  
                                      l7297 1120                                        l7289 1108  
                                      l7369 3B64                                        l6499 2FEA  
                                      l6835 1EF6                                        l6827 1ECC  
                                      l6819 1E7C                                        l6931 3A44  
                                      l6923 39F0                                        l6739 0C00  
                                      l6691 09F2                                        l6683 0984  
                                      l6675 0928                                        l6667 08E4  
                                      l6659 08AA                                        l6595 1884  
                                      l6587 1854                                        l6579 3254  
                                      l6851 2582                                        l6843 2568  
                                      l6771 1FC8                                        l6763 1FA8  
                                      l6747 1F1A                                        l6755 1F40  
                                      l6915 3810                                        l6907 37F8  
                                      l7299 112A                                        l6941 2AE4  
                                      l6933 2AAE                                        l6829 1ED8  
                                      l6925 3A04                                        l6693 0A02  
                                      l6685 09A6                                        l6677 0940  
                                      l6669 08EC                                        l7741 19A0  
                                      l6597 1896                                        l6589 1868  
                                      l6861 25AA                                        l6853 2586  
                                      l6845 2570                                        l6837 2542  
                                      l6781 2008                                        l6773 1FD8  
                                      l6765 1FBC                                        l6757 1F64  
                                      l6749 1F30                                        l6917 382E  
                                      l6909 3800                                        l6951 2B24  
                                      l6943 2AF4                                        l6935 2AC0  
                                      l6927 3A28                                        l6919 39D6  
                                      l7743 38F8                                        l6695 0A0C  
                                      l6687 09C6                                        l6679 0952  
                                      l6599 18B2                                        l6863 25AC  
                                      l6855 258C                                        l6847 2578  
                                      l6783 2014                                        l6767 1FC0  
                                      l6775 1FE0                                        l6759 1F70  
                                      l6961 2B68                                        l6953 2B28  
                                      l6945 2AFC                                        l6937 2ACA  
                                      l6793 1DB8                                        l6929 3A34  
                                      l7745 393E                                        l6697 0A1C  
                                      l6689 09E4                                        l7737 2604  
                                      l6865 25B0                                        l6857 2594  
                                      l6849 2580                                        l6873 25EE  
                                      l6785 2020                                        l6777 1FE4  
                                      l6769 1FC4                                        l6881 3DBE  
                                      l6971 2BB0                                        l6963 2B74  
                                      l6955 2B3A                                        l6939 2ADC  
                                      l6947 2B00                                        l6795 1DCA  
                                      l7747 2C8A                                        l6699 0A40  
                                      l7739 2A72                                        l6867 25B8  
                                      l6859 259C                                        l6787 2024  
                                      l6779 1FF4                                        l6883 3DD2  
                                      l6891 3DF2                                        l6965 2B84  
                                      l6957 2B46                                        l6949 2B10  
                                      l6797 1DE0                                        l6869 25CE  
                                      l6789 2028                                        l6893 37A2  
                                      l6885 3DDE                                        l6981 4100  
                                      l6973 40E2                                        l6967 2B90  
                                      l6959 2B56                                        l6799 1DE4  
                                      l6895 37BC                                        l6887 3DE2  
                                      l6991 13E4                                        l6983 4106  
                                      l6975 40E4                                        l6969 2BAE  
                                      l6897 37C8                                        l6889 3DEE  
                                      l6993 13FA                                        l6977 40F4  
                                      l6985 410A                                        l6899 37D2  
                                      l6995 1400                                        l6987 13CE  
                                      l6979 40FC                                        l6997 1412  
                                      l6989 13D0                                        l6999 1426  
                                      _LATC 000F8B                                        u6000 09F2  
                                      u6001 09EE                                        u6010 0A1C  
                                      u6011 0A18                                        u6020 0A74  
                                      u6100 1F1A                                        u6021 0A70  
                                      u6101 1F16                                        u6030 0A8C  
                                      u6110 1F30                                        u6031 0A88  
                                      u6111 1F2C                                        u6200 1EF6  
                                      u6040 0A9C                                        u6120 1FA8  
                                      u6201 1EF2                                        u6041 0A98  
                                      u6121 1FA4                                        u6050 0B0E  
                                      u6210 255A                                        u6130 1FBC  
                                      u6051 0B0A                                        u6211 2556  
                                      u6131 1FB8                                        u6300 2BAE  
                                      u5500 3D7E                                        u6060 0B6E  
                                      u6140 1FD8                                        u6220 3E0E  
                                      u6301 2BAA                                        u5501 3D7A  
                                      u6061 0B6A                                        u6141 1FD4  
                                      u6221 3E0A                                        u6230 39E8  
                                      u5510 3D98                                        u6070 0B84  
                                      u6150 2038                                        u6310 40F4  
                                      u6231 39E4                                        u5511 3D94  
                                      u6071 0B80                                        u6151 2034  
                                      u6311 40F0                                        u6160 1DE0  
                                      u6240 3A04                                        u5520 2054  
                                      u6080 0B94                                        u5600 15C4  
                                      u6400 14E4                                        u6320 13E4  
                                      u6161 1DDC                                        u6241 3A00  
                                      u5521 2050                                        u6081 0B90  
                                      u5601 15C0                                        u6401 14E0  
                                      u6321 13E0                                        u6250 2ADC  
                                      u6170 1E24                                        u5530 209A  
                                      u5610 1636                                        u6090 1F0C  
                                      u6410 1516                                        u6330 13FA  
                                      u6251 2AD8                                        u6171 1E20  
                                      u5531 2096                                        u5611 1632  
                                      u6091 1F08                                        u6411 1512  
                                      u6331 13F6                                        u5700 2870  
                                      u6260 2AF4                                        u6180 1E36  
                                      u5540 20FE                                        u5620 167C  
                                      u6500 400C                                        u6420 1526  
                                      u6340 1412                                        u6261 2AF0  
                                      u6181 1E32                                        u5541 20FA  
                                      u5621 1678                                        u6501 4008  
                                      u6421 1522                                        u6341 140E  
                                      u5710 288E                                        u6270 2B10  
                                      u6190 1E70                                        u5550 2BCC  
                                      u5630 16DC                                        u6510 401E  
                                      u6430 1538                                        u6350 1426  
                                      u5711 288A                                        u6271 2B0C  
                                      u6191 1E6C                                        u5551 2BC8  
                                      u5631 16D8                                        u6511 401A  
                                      u6431 1534                                        u6351 1422  
                                      u5640 279C                                        u6280 2B3A  
                                      u5720 2FD2                                        u5560 2BE6  
                                      u5800 1868                                        u6440 1B88  
                                      u6520 3C5E                                        u6600 0FB0  
                                      u6360 143E                                        u5641 2798  
                                      u6281 2B36                                        u5721 2FCE  
                                      u5561 2BE2                                        u5801 1864  
                                      u6441 1B84                                        u6521 3C5A  
                                      u6601 0FAC                                        u6361 143A  
                                      u5650 27B0                                        u6290 2B68  
                                      u5730 2FE6                                        u5490 354C  
                                      u5570 2BFA                                        u5810 1896  
                                      u6450 1BB2                                        u6530 3C78  
                                      u6610 0FBE                                        u6370 1474  
                                      u5707 2866                                        u5651 27AC  
                                      u6291 2B64                                        u5731 2FE2  
                                      u5491 3548                                        u5571 2BF6  
                                      u5811 1892                                        u6451 1BAE  
                                      u6531 3C74                                        u6611 0FBA  
                                      u6371 1470                                        u5660 27C8  
                                      u5740 2FFC                                        u5580 2C0A  
                                      u5820 18E0                                        u5900 2A9E  
                                      u6460 1C2E                                        u6540 3C92  
                                      u6700 1084                                        u6620 0FD2  
                                      u6380 1484                                        u5661 27C4  
                                      u5741 2FF8                                        u5581 2C06  
                                      u5901 2A9A                                        u6461 1C2A  
                                      u6541 3C8E                                        u6701 1080  
                                      u6621 0FCE                                        u6381 1480  
                                      u5670 27FA                                        u5750 3038  
                                      u5910 08BC                                        u5830 1910  
                                      u5590 1582                                        u6550 3392  
                                      u6710 1096                                        u6630 0FE6  
                                      u6470 3F02                                        u6390 14B2  
                                      u5671 27F6                                        u5751 3034  
                                      u5911 08B8                                        u5591 157E  
                                      u6551 338E                                        u6711 1092  
                                      u6631 0FE2                                        u6471 3EFE  
                                      u6391 14AE                       ??_USBCtrlTrfTxService 00DF  
                                      u5680 2826                                        u5920 08D0  
                                      u5840 1930                                        u5760 35B6  
                                      u6560 33DE                                        u6800 11A2  
                                      u6720 10A4                                        u6640 0FF4  
                                      u6480 3F2E                                        i2l65 3D3E  
                                      u5921 08CC                                        u5841 192C  
                                      u5761 35B2                                        u6561 33DA  
                                      u6801 119E                                        u6721 10A0  
                                      u6641 0FF0                                        u6481 3F2A  
                                      u5690 2844                                        u5930 08E4  
                                      u5850 196C                                        u5770 360E  
                                      u6570 342A                                        u6490 3F6E  
                                      u6730 10B6                                        u6650 100E  
                                      u6810 3FC6                                        u5691 2840  
                                      u5931 08E0                                        u5827 18D6  
                                      u5771 360A                                        u6571 3426  
                                      u6491 3F6A                                        u6731 10B2  
                                      u6651 100A                                        u6811 3FC2  
                                      u5940 0900                                        u5860 29C0  
                                      u5780 321A                                        u6740 10C4  
                                      u6660 101C                                        u6580 0F88  
                                      u6820 3FD4                                        u5941 08FC  
                                      u5837 1906                                        u5861 29BC  
                                      u5781 3216                                        u6741 10C0  
                                      u6661 1018                                        u6581 0F84  
                                      u6821 3FD0                                        u5950 0914  
                                      u5870 29E0                                        u5790 3264  
                                      u6750 10F4                                        u6670 102E  
                                      u6590 0F96                                        u5687 281C  
                                      u5951 0910                                        u5871 29DC  
                                      u5791 3260                                        u6751 10F0  
                                      u6671 102A                                        u6591 0F92  
                                      u6831 4118                                        _UCFG 000F6F  
                                      u5960 0928                                        u5880 2A3A  
                                      u6760 1108                                        u6680 103C  
                                      u6840 3C14                                        i2l89 4084  
                                      u5961 0924                                        u5857 1962  
                                      u5881 2A36                                        u6761 1104  
                                      u6681 1038                                        u6841 3C10  
                                      u5970 0940                                        u5890 2A50  
                                      u6770 111C                                        u6690 1072  
                                      u6850 3C3A                                        u5971 093C  
                                      u5891 2A4C                                        u6771 1118  
                                      u6691 106E                                        u6851 3C36  
                                      u5980 0952                                        u6780 113A  
                                      u6860 3B4C                                        _UEP0 000F70  
                                      u5981 094E                                        u6781 1136  
                                      u6861 3B48                                        _UEP1 000F71  
                                      u5990 0964                                        u6790 116A  
                                      u6870 3B64                                        u5991 0960  
                                      u6791 1166                                        u6871 3B60  
                                      u6880 3B82                                        u6881 3B7E  
                                      _UEIE 000F6B                                        _UEIR 000F6A  
                                      _UCON 000F6D                     ??i2_USBCtrlTrfInHandler 002C  
                           _CDCDataInHandle 00BE    i2USBStdFeatureReqHandler@current_ep_data 0043  
    USBStdFeatureReqHandler@current_ep_data 0102                                        _pDst 00C2  
                                      _main 3B26                    ??i2_USBTransferOnePacket 002F  
             i2USBStdFeatureReqHandler@pUEP 0041                                        fsr1h 000FE2  
                                      fsr2h 000FDA                                        indf1 000FE7  
                               _BaudRateGen 00B0                                        indf2 000FDF  
                                      fsr1l 000FE1                                        fsr2l 000FD9  
                           _USBDeviceAttach 3EF2                                        btemp 0054  
                                      prodh 000FF4                                        prodl 000FF3  
                                      start 000E                               __CFG_IESO$OFF 000000  
       __size_ofi2_USBCtrlEPServiceComplete 0142              __size_ofi2_USBStdGetDscHandler 0160  
             __end_ofi2_USBStdGetDscHandler 1B20                                ?i2_CDCInitEP 002B  
                __end_of_USBCheckStdRequest 2664                      ??_USBCtrlTrfOutHandler 00E1  
                             __CFG_MCLRE$ON 000000                                ___param_bank 000000  
                 ??_USBStdFeatureReqHandler 00F3                    ??_USBStdGetStatusHandler 00DF  
                            ?_USBDeviceInit 002B                               __CFG_PLLDIV$2 000000  
               __size_ofi2_USBCtrlEPService 00BA                              __CFG_CCP2MX$ON 000000  
                                     ?_main 002B           __size_of_USBCtrlEPServiceComplete 0142  
                    __end_of_USBDeviceTasks 11A6                   ?_USBCtrlEPServiceComplete 002B  
                                     i2l313 31A0                                       i2l323 36F4  
                                     i2l331 221C                                       i2l251 1DB6  
                                     i2l404 2EBE                                       i2l412 40E0  
                                     i2l317 31A0                                       i2l341 22C0  
                                     i2l246 1CD2                                       i2l407 3D0C  
                                     i2l328 37A0                                       i2l281 3EAA  
                                     i2l409 3D0E                                       i2l257 1206  
                                     i2l450 2DBC                                       i2l442 2DA8  
                                     i2l426 34E8                                       i2l418 3FB4  
                                     i2l258 13CC                                       i2l267 1324  
                                     i2l356 299E                                       i2l436 3ABC  
                                     i2l268 13CA                                       i2l429 38C2  
                                     i2l269 1336                                       i2l550 2FC0  
                                     i2l390 1B1E                                       i2l454 277E  
                                     i2l367 23EC                                       i2l287 2540  
                                     i2l471 0C72                                       i2l376 3374  
                                     i2l456 2680                                       i2l449 2DB6  
                                     i2l369 2402                                       i2l641 39D4  
                                     i2l465 26D6                                       i2l490 0EDC  
                                     i2l482 0E2E                                       i2l394 2DCC  
                                     i2l563 3BEE                                       i2l557 2F3E  
                                     i2l397 2EA2                                       i2l494 0F76  
                                     i2l398 2DE4                                       i2l559 2F74  
                                     i2l399 2DEA                                       i2l499 4054  
                                     _UADDR 000F6E                               __CFG_USBDIV$2 000000  
                                     _TRISC 000F94                                       _USTAT 000F6C  
                             __CFG_PWRT$OFF 000000                               __CFG_WRT0$OFF 000000  
        __size_of_USBCtrlEPAllowStatusStage 00F0                               __CFG_WRT1$OFF 000000  
                             __CFG_WRT2$OFF 000000                               __CFG_WRT3$OFF 000000  
                                i2memcpy@d1 002B                              __CFG_EBTR0$OFF 000000  
                            __CFG_FCMEN$OFF 000000                              __CFG_EBTR1$OFF 000000  
                                i2memcpy@s1 002D                              __CFG_EBTR2$OFF 000000  
                            __CFG_EBTR3$OFF 000000             __end_of_USBCtrlEPAllowDataStage 3648  
                           __end_of_mainISR 3D6A                                       _sd000 08A4  
                                     _sd001 084C                                       _sd002 0872  
                             __CFG_WRTB$OFF 000000              ?_USBIncrement1msInternalTimers 002B  
                             __CFG_WRTC$OFF 000000                               __CFG_WRTD$OFF 000000  
                  __end_ofi2_USBDeviceTasks 13CE                              __CFG_EBTRB$OFF 000000  
                  ??i2_USBConfigureEndpoint 002C                                       tablat 000FF5  
                     __end_of_debounceDelay 3C50                                       plusw1 000FE3  
                                     plusw2 000FDB                           __end_of_CDCInitEP 3B26  
                                     ttemp5 0055                                       ttemp6 0058  
                                     ttemp7 005C                                       status 000FD8  
                                     wtemp8 0055                     ??i2_USBCtrlTrfRxService 002B  
                            __CFG_ICPRT$OFF 000000                            __end_ofi2_memcpy 3E60  
                          __end_ofi2_memset 1854                              __CFG_PBADEN$ON 000000  
              i2USBCtrlTrfInHandler@lastDTS 002C                             putUSBUSART@data 00DF  
              __size_of_USBStdSetCfgHandler 00EE                     ??i2_USBCtrlTrfTxService 002B  
                           __initialization 3EAC                                __end_of_main 3B8C  
                     _control_signal_bitmap 00C4                   __size_of_USBCtrlEPService 00BA  
                                    ??_main 00F9                               __activetblptr 000002  
                           ?_USBDeviceTasks 002B                      __size_of_readButtonAsm 000A  
                               ?_USBSuspend 002B                   i2USBStdGetStatusHandler@p 002D  
                     i2_USBStdSetCfgHandler 3290                                _cdc_mem_type 00C5  
              __end_ofi2_USBWakeFromSuspend 3FB6                     __end_of_USBDeviceAttach 3F34  
                          _CDCDataOutHandle 00C0                  ??i2_USBCtrlTrfSetupHandler 0048  
                             main@btn_state 0105                __end_ofi2_USBCheckCDCRequest 2FC2  
                     __size_of_CDCTxService 0198                                      i2l1321 3E5E  
                                    i2l1325 1852                                      i2l4103 3962  
                                    i2l4113 16DE                                      i2l4051 2890  
                                    i2l4131 17DC                                      i2l4123 173E  
                                    i2l4061 28C6                                      i2l4053 2894  
                                    i2l4141 183C                                      i2l4125 1796  
                                    i2l4117 16FC                                      i2l4301 32CC  
                                    i2l5021 3864                                      i2l5101 3E34  
                                    i2l4071 28FC                                      i2l4063 28D6  
                                    i2l4055 28AA                                      i2l4143 1840  
                                    i2l4135 17F6                                      i2l4119 1708  
                                    i2l4311 32F2                                      i2l5031 3892  
                                    i2l5023 3870                                      i2l5015 3834  
                                    i2l5103 3E40                                      i2l4081 2942  
                                    i2l4057 28AE                                      i2l4065 28DA  
                                    i2l4241 30C2                                      i2l5041 3A4A  
                                    i2l4137 182A                                      i2l4129 17B0  
                                    i2l4321 3330                                      i2l4313 3302  
                                    i2l5033 3896                                      i2l5025 387A  
                                    i2l5017 384E                                      i2l5105 3E44  
                                    i2l5201 1C70                                      i2l4091 298C  
                                    i2l4075 290E                                      i2l4083 2944  
                                    i2l4067 28E2                                      i2l4059 28BE  
                                    i2l4251 3108                                      i2l4243 30D6  
                                    i2l5051 3AA8                                      i2l5043 3A5C  
                                    i2l4411 0C54                                      i2l4139 1836  
                                    i2l4331 3370                                      i2l4323 3338  
                                    i2l4315 331E                                      i2l4307 32D0  
                                    i2l5035 389E                                      i2l5027 3886  
                                    i2l5019 385A                                      i2l5211 1CA4  
                                    i2l5203 1C7C                                      i2l4085 2958  
                                    i2l4077 2938                                      i2l4093 298E  
                                    i2l4069 28F2                                      i2l5061 2CE6  
                                    i2l4261 3150                                      i2l4253 3118  
                                    i2l4245 30DA                                      i2l5053 3AB8  
                                    i2l5045 3A64                                      i2l4421 0CAA  
                                    i2l4413 0C66                                      i2l4405 0C2C  
                                    i2l4341 19F0                                      i2l4333 19C0  
                                    i2l4325 333C                                      i2l4317 3320  
                                    i2l4309 32F0                                      i2l5037 38A2  
                                    i2l5029 388A                                      i2l5221 1CC2  
                                    i2l5205 1C98                                      i2l5301 3F7A  
                                    i2l4087 2982                                      i2l4079 293C  
                                    i2l5071 2D1A                                      i2l5063 2CEE  
                                    i2l5055 2CBA                                      i2l4271 3190  
                                    i2l4263 315C                                      i2l4255 3128  
                                    i2l4247 30EC                                      i2l4239 30B2  
                                    i2l5047 3A78                                      i2l4095 394E  
                                    i2l4431 0D1C                                      i2l4423 0CC0  
                                    i2l4415 0C6E                                      i2l4407 0C3E  
                                    i2l4351 1A84                                      i2l4343 1A00  
                                    i2l4335 19D4                                      i2l4327 334C  
                                    i2l4319 3328                                      i2l5039 38BE  
                                    i2l5231 1CDE                                      i2l5223 1CD4  
                                    i2l5207 1C9C                                      i2l5311 3FAE  
                                    i2l5303 3F96                                      i2l4089 2986  
                                    i2l5081 2D60                                      i2l5073 2D2E  
                                    i2l5065 2CFE                                      i2l5057 2CCA  
                                    i2l4265 3168                                      i2l4257 312C  
                                    i2l4249 30FC                                      i2l5049 3A9C  
                                    i2l4097 3952                                      i2l4441 0D7A  
                                    i2l4433 0D3A                                      i2l4425 0CD2  
                                    i2l4417 0C82                                      i2l4409 0C52  
                                    i2l4353 1A94                                      i2l4345 1A1C  
                                    i2l4337 19DC                                      i2l4329 3354  
                                    i2l4281 3694                                      i2l4273 3648  
                                    i2l5321 3470                                      i2l5313 3430  
                                    i2l5233 1CE2                                      i2l5225 1CD8  
                                    i2l5217 1CA8                                      i2l5209 1CA0  
                                    i2l5305 3F98                                      i2l5091 2DB6  
                                    i2l5083 2D70                                      i2l5075 2D32  
                                    i2l5067 2D06                                      i2l5059 2CD4  
                                    i2l4267 316C                                      i2l4259 313C  
                                    i2l4099 395A                                      i2l4451 0DF0  
                                    i2l4443 0D88                                      i2l4435 0D52  
                                    i2l4427 0CE2                                      i2l4419 0C96  
                                    i2l4355 1AB0                                      i2l4347 1A4A  
                                    i2l4339 19E4                                      i2l4363 1AEC  
                                    i2l4371 2DBE                                      i2l4291 36DC  
                                    i2l4283 36A4                                      i2l4275 3652  
                                    i2l5323 347A                                      i2l5331 34D0  
                                    i2l5315 3436                                      i2l5251 1D66  
                                    i2l5235 1CE6                                      i2l5227 1CDA  
                                    i2l5219 1CC0                                      i2l5307 3F9E  
                                    i2l5093 2DB8                                      i2l5085 2D7C  
                                    i2l5077 2D44                                      i2l5069 2D0A  
                                    i2l4269 317C                                      i2l3821 3700  
                                    i2l4461 0E6A                                      i2l4453 0DFE  
                                    i2l4445 0DAA                                      i2l4437 0D60  
                                    i2l4429 0D00                                      i2l4357 1ADC  
                                    i2l4349 1A7C                                      i2l4381 2E1C  
                                    i2l4293 36E8                                      i2l4285 36BC  
                                    i2l4277 3664                                      i2l5333 34E4  
                                    i2l5325 3498                                      i2l5317 344C  
                                    i2l5261 1D8E                                      i2l5253 1D68  
                                    i2l5245 1D16                                      i2l5237 1CEE  
                                    i2l5229 1CDC                                      i2l5341 4042  
                                    i2l5309 3FA0                                      i2l5087 2D8C  
                                    i2l5079 2D50                                      i2l3831 3788  
                                    i2l3823 373A                                      i2l4471 0EB8  
                                    i2l4463 0E76                                      i2l4455 0E18  
                                    i2l4447 0DC8                                      i2l4439 0D70  
                                    i2l4359 1AE4                                      i2l4383 2E3A  
                                    i2l4375 2DCE                                      i2l4391 2E6E  
                                    i2l4295 3290                                      i2l4287 36C4  
                                    i2l4279 3688                                      i2l5095 3E10  
                                    i2l5327 34C0                                      i2l5319 3468  
                                    i2l5271 1DAE                                      i2l5263 1D92  
                                    i2l5255 1D78                                      i2l5247 1D46  
                                    i2l5239 1CFC                                      i2l5343 4052  
                                    i2l5335 4022                                      i2l5089 2D98  
                                    i2l4801 2314                                      i2l3833 3792  
                                    i2l3825 3744                                      i2l4481 0F28  
                                    i2l4473 0EC6                                      i2l4465 0E82  
                                    i2l4449 0DDA                                      i2l4457 0E4A  
                                    i2l4393 2EB0                                      i2l4385 2E50  
                                    i2l4377 2DDE                                      i2l4297 3292  
                                    i2l4289 36C8                                      i2l5097 3E24  
                                    i2l5329 34C8                                      i2l5273 1DB2  
                                    i2l5265 1D96                                      i2l5257 1D80  
                                    i2l5249 1D56                                      i2l5337 4030  
                                    i2l5281 3CF2                                      i2l5601 1200  
                                    i2l4811 2362                                      i2l4803 2318  
                                    i2l3827 3754                                      i2l3819 36F8  
                                    i2l3851 3E62                                      i2l4475 0EEC  
                                    i2l4483 0F48                                      i2l4467 0EA2  
                                    i2l4459 0E54                                      i2l4395 2EB8  
                                    i2l4387 2E66                                      i2l4379 2DFA  
                                    i2l4299 32CA                                      i2l5099 3E30  
                                    i2l5267 1D98                                      i2l5259 1D84  
                                    i2l5339 4040                                      i2l5283 3CFE  
                                    i2l5275 3CB0                                      i2l5291 40B8  
                                    i2l5611 122C                                      i2l5603 1214  
                                    i2l4813 2378                                      i2l4821 23B0  
                                    i2l4805 231A                                      i2l3829 3770  
                                    i2l3861 3E9E                                      i2l3853 3E70  
                                    i2l4485 0F54                                      i2l4477 0F06  
                                    i2l4469 0EAE                                      i2l4397 2EBA  
                                    i2l4741 2190                                      i2l5269 1D9C  
                                    i2l5285 3D0A                                      i2l5277 3CBE  
                                    i2l5293 40BA                                      i2l5621 125C  
                                    i2l5605 1222                                      i2l5613 122E  
                                    i2l4831 23FE                                      i2l4823 23D4  
                                    i2l4815 2384                                      i2l4807 232C  
                                    i2l3855 3E7A                                      i2l3871 245C  
                                    i2l3863 2406                                      i2l3951 2F20  
                                    i2l3943 2EF4                                      i2l3935 2EC0  
                                    i2l4487 0F6A                                      i2l4479 0F1C  
                                    i2l4743 219E                                      i2l4751 21C4  
                                    i2l5199 1C6E                                      i2l5279 3CD8  
                                    i2l5295 40BE                                      i2l5287 40B4  
                                    i2l5631 129E                                      i2l5623 126A  
                                    i2l5615 123C                                      i2l5607 1226  
                                    i2l4825 23E0                                      i2l4817 2394  
                                    i2l4809 233E                                      i2l3857 3E88  
                                    i2l3881 24A4                                      i2l3865 2416  
                                    i2l3961 2F46                                      i2l3953 2F28  
                                    i2l3945 2F04                                      i2l4841 2692  
                                    i2l4833 2664                                      i2l4761 2240  
                                    i2l4753 21E8                                      i2l4745 21B4  
                                    i2l5297 40C4                                      i2l5289 40B6  
                                    i2l5641 12D0                                      i2l5633 12A0  
                                    i2l5625 1286                                      i2l5617 124A  
                                    i2l5609 1228                                      i2l4827 23EC  
                                    i2l4819 23A0                                      i2l3859 3E92  
                                    i2l3883 24B0                                      i2l3875 2468  
                                    i2l3867 2432                                      i2l3963 2F56  
                                    i2l3955 2F2A                                      i2l3939 2EDA  
                                    i2l4851 26AE                                      i2l4843 269A  
                                    i2l4763 2244                                      i2l4771 2264  
                                    i2l4755 21F4                                      i2l4747 21B8  
                                    i2l4739 2180                                      i2l5299 3F76  
                                    i2l5651 130E                                      i2l5643 12D4  
                                    i2l5635 12B0                                      i2l5627 1288  
                                    i2l5619 124E                                      i2l4829 23EE  
                                    i2l3885 24C0                                      i2l3877 248C  
                                    i2l3869 244A                                      i2l3981 3B8C  
                                    i2l3965 2F5C                                      i2l3957 2F30  
                                    i2l3949 2F18                                      i2l3973 2F7E  
                                    i2l4861 26D0                                      i2l4853 26B6  
                                    i2l4845 26A2                                      i2l4837 2682  
                                    i2l4781 22A4                                      i2l4773 2268  
                                    i2l4765 2248                                      i2l4757 220C  
                                    i2l4749 21BC                                      i2l5661 1344  
                                    i2l5653 131E                                      i2l5645 12E2  
                                    i2l5629 128C                                      i2l5637 12B4  
                                    i2l5581 11A6                                      i2l4791 22D2  
                                    i2l3887 24FE                                      i2l3879 2498  
                                    i2l3991 3BEA                                      i2l3983 3BAE  
                                    i2l3967 2F64                                      i2l3959 2F38  
                                    i2l4863 26D8                                      i2l4855 26BE  
                                    i2l4847 26A4                                      i2l4839 268A  
                                    i2l4783 22A8                                      i2l4775 2278  
                                    i2l4767 224C                                      i2l4759 222C  
                                    i2l5671 1376                                      i2l5663 1348  
                                    i2l5655 1332                                      i2l5647 12F0  
                                    i2l5639 12C2                                      i2l5583 11B6  
                                    i2l5591 11D0                                      i2l5831 4064  
                                    i2l4793 22E8                                      i2l3889 2538  
                                    i2l3985 3BB8                                      i2l3969 2F6C  
                                    i2l4865 26EC                                      i2l4857 26CA  
                                    i2l4849 26A8                                      i2l4785 22AC  
                                    i2l4777 228C                                      i2l4769 225C  
                                    i2l5681 13BA                                      i2l5673 1384  
                                    i2l5665 1354                                      i2l5649 130A  
                                    i2l5593 11DE                                      i2l5585 11C4  
                                    i2l5833 4072                                      i2l4795 22EC  
                                    i2l3987 3BC2                                      i2l4859 26CC  
                                    i2l4779 2298                                      i2l5675 1394  
                                    i2l5667 1356                                      i2l5595 11EC  
                                    i2l5587 11C8                                      i2l5835 4080  
                                    i2l4797 22F4                                      i2l4789 22C2  
                                    i2l3989 3BE0                                      i2l4869 270C  
                                    i2l5677 139C                                      i2l5669 1364  
                                    i2l5597 11EE                                      i2l5589 11CA  
                                    i2l5829 4056                                      i2l4799 22FC  
                                    i2l5679 13B8                                      i2l5599 11F2  
                                    i2l5859 3D3A                                      i2l7751 2E84  
                                    i2l7753 1B00                                      i2l7755 3980  
                                    i2l7757 39C6                                      i2l7749 2720  
                                    i2l7759 2F92                               CDCTxService@i 00EA  
                  i2USBTransferOnePacket@ep 0033                           ??i2_USBDeviceInit 0037  
           __size_ofi2_USBTransferOnePacket 013E                              __CFG_VREGEN$ON 000000  
                         _shortPacketStatus 0028                              __CFG_XINST$OFF 000000  
                           USBDeviceTasks@i 00F8                                 i2memcpy@tmp 0035  
               USBStdFeatureReqHandler@pUEP 0100                    USBTransferOnePacket@data 00E0  
                USBCtrlTrfInHandler@lastDTS 00E0                             ??_USBDeviceInit 00EB  
                              ?_putUSBUSART 00DF                              __CFG_STVREN$ON 000000  
        __end_ofi2_USBCtrlEPServiceComplete 22C2                  i2_USBCtrlEPServiceComplete 2180  
                         _USBEnableEndpoint 3D6A             __size_of_USBStdGetStatusHandler 010E  
                                    _memcpy 3DBE                                      _memset 1566  
               ??i2_USBStdFeatureReqHandler 003F                                      clear_0 3ED2  
                                    clear_1 3EDE                                      _result 00CC  
                        ?_USBEnableEndpoint 00E7                            __end_of_sendFlap 4138  
                                 ??_mainISR 004A               __size_of_USBTransferOnePacket 0142  
                  __size_of_processUSBTasks 0030                                _CDCTxService 13CE  
                              __mediumconst 0000                                      tblptrh 000FF7  
                                    tblptrl 000FF6                                      tblptru 000FF8  
                       ??_USBEnableEndpoint 00E8                    ??i2_USBCtrlTrfOutHandler 002D  
                               _CtrlTrfData 000450             __size_ofi2_USBConfigureEndpoint 00AC  
                      _controlTransferState 0027                                  __accesstop 0060  
                   __end_of__initialization 3EE4                               _readButtonAsm 4146  
                             ___rparam_used 000001                    __size_of_USBStallHandler 0060  
                       __size_of_USBSuspend 002E                              __pcstackCOMRAM 002B  
                 __end_of_USBEnableEndpoint 3DBE                               sendFlap@F3958 00F9  
                             __end_of_sd000 08A8                               __end_of_sd001 0872  
                             __end_of_sd002 0892                                __pidataBANK0 4150  
                      __size_ofi2_CDCInitEP 0064            __size_of_USBCtrlEPAllowDataStage 00AE  
             __size_of_USBConfigureEndpoint 00B0                 __end_of_USBCtrlTrfInHandler 2BB6  
                    i2_USBTransferOnePacket 2404               __size_ofi2_USBCheckStdRequest 011C  
                    ?i2_USBStdSetCfgHandler 002B                                  _cdc_notice 00A0  
                                 ?i2_memcpy 002B                                   ?i2_memset 002B  
                                _cdc_rx_len 00C7                                  _cdc_tx_len 00C6  
                  ??_USBCtrlTrfSetupHandler 00F7                     _USBTicksSinceSuspendEnd 00C8  
                          ?_USBDeviceAttach 002B           __size_ofi2_USBStdGetStatusHandler 0102  
                 ?i2_USBStdGetStatusHandler 002B                      _USBStdGetStatusHandler 29A0  
                 i2_USBStdFeatureReqHandler 0C2C                                  __pbssBANK0 0060  
            __size_ofi2_USBCtrlTrfInHandler 0104                              ?_readButtonAsm 002B  
             __end_ofi2_USBCtrlTrfInHandler 2DBE                                 sendFlap@msg 00EC  
               __end_ofi2_USBEnableEndpoint 3EAC                 __size_of_USBWakeFromSuspend 0042  
                               _pBDTEntryIn 000F                           i2_USBStallHandler 3CB0  
          __end_of_USBCtrlEPServiceComplete 203E                 __size_of_USBCheckCDCRequest 0104  
                                _isUSBReady 3FB6                        USBCtrlTrfRxService@i 00DF  
                        ?i2_USBStallHandler 002B                              _isUSBReady$349 00DF  
       __end_ofi2_USBCtrlEPAllowStatusStage 31A2                 i2_USBCtrlEPAllowStatusStage 30B2  
                    i2_USBConfigureEndpoint 36F6                        i2_USBWakeFromSuspend 3F76  
                                   ?_memcpy 00DF                                     ?_memset 00DF  
                                _device_dsc 0892                        i2_USBCheckCDCRequest 2EC0  
                          _USBCtrlEPService 3376                                  _ep_data_in 0018  
                       ??i2_USBStallHandler 002B                 __end_of_USBCtrlTrfRxService 1EFC  
                        _USBCheckStdRequest 2542                           _configDescriptor1 0809  
                             ?i2_USBSuspend 002B                                  ??i2_memcpy 0031  
                                ??i2_memset 0031                 __end_of_USBCtrlTrfTxService 2890  
                       _USBStdSetCfgHandler 31A2                           ?i2_USBDeviceTasks 002B  
           __size_ofi2_USBCtrlTrfOutHandler 0074                         ?_USBCheckStdRequest 002B  
              __size_of_USBStdGetDscHandler 016C                                     _UIEbits 000F69  
                         ??_processUSBTasks 004A                                     _UIRbits 000F68  
                        ??i2_USBDeviceTasks 0049                               _cdc_trf_state 001F  
                 __end_ofi2_USBStallHandler 3D10                                   ?_sendFlap 002B  
                                   _pCDCDst 00B8                                     _pCDCSrc 00BB  
                                _initUSBLib 4138              __size_ofi2_USBCtrlTrfRxService 0142  
                                   __Hparam 0000             ??_USBIncrement1msInternalTimers 00DF  
                      ?_USBStdSetCfgHandler 002B                                   _CDCInitEP 3ABE  
             __end_ofi2_USBCtrlTrfRxService 2404                                     __Lparam 0000  
                __size_of_USBEnableEndpoint 0054              __size_ofi2_USBCtrlTrfTxService 0110  
                      ??_USBCheckStdRequest 00F5                       i2_USBStdGetDscHandler 19C0  
             __size_of_USBCtrlTrfOutHandler 0074               __end_ofi2_USBCtrlTrfTxService 29A0  
                     ?i2_USBWakeFromSuspend 002B                  __end_ofi2_USBCtrlEPService 34EA  
                          ??_USBDeviceTasks 00F8                           ??_USBStallHandler 00DF  
                              __psmallconst 0800                       ?i2_USBCheckCDCRequest 002B  
                      __size_of_putUSBUSART 002C                                     __pcinit 3EAC  
                           __size_of_memcpy 0052                             __size_of_memset 0178  
                 __end_of_configDescriptor1 084C                                     __ramtop 0800  
                                   __ptext0 3B26                                     __ptext1 410E  
                                   __ptext2 40E2                                     __ptext3 13CE  
                                   __ptext4 4146                                     __ptext5 3FB6  
                                   __ptext6 4138                                     __ptext7 3EF2  
                                   __ptext8 3BF0                                     __ptext9 0F78  
                              i2memset@dest 002B                                     _inPipes 0009  
                                   _mainISR 0008                 _USBDeferOUTDataStagePackets 00C9  
                            ??i2_USBSuspend 003F                                ??_USBSuspend 00F3  
                           i2_USBDeviceInit 1C6E                            i2USBDeviceInit@i 0037  
                        __end_of_USB_CD_Ptr 0809             __size_of_USBCtrlTrfSetupHandler 0092  
                            __pintcode_body 3D10                        end_of_initialization 3EE4  
                           ??_readButtonAsm 00DF                          __end_of_USB_SD_Ptr 0807  
                                   memcpy@d 00E6                                     memcpy@n 00E3  
                                   memcpy@s 00E8                         _pBDTEntryEP0OutNext 001B  
                                   memset@c 00E1                                     memset@k 00E7  
                                   memset@n 00E3                                     memset@s 00E9  
                             __Lmediumconst 0000                                     int_func 3D10  
                           _USB1msTickCount 00B4             _dummy_encapsulated_cmd_response 00CD  
                  ?_USBStdFeatureReqHandler 002B                                  ??_sendFlap 00EC  
                     ??_USBStdSetCfgHandler 00F3                                  ?_CDCInitEP 002B  
        __size_ofi2_USBCtrlEPAllowDataStage 00AE                                 ?_isUSBReady 002B  
                        __end_of_USBSuspend 40B4                  ?i2_USBCtrlEPAllowDataStage 002B  
                   _USBCtrlEPAllowDataStage 359A                      i2_USBCtrlTrfOutHandler 3A4A  
                                   postdec1 000FE5                                     postdec2 000FDD  
                                   postinc0 000FEE                                     postinc2 000FDE  
               ?i2_USBCtrlEPServiceComplete 002B                    _USBCtrlEPServiceComplete 1EFC  
                _USBStatusStageEnabledFlag1 0022                  _USBStatusStageEnabledFlag2 0021  
                        USBEnableEndpoint@p 00E8                      __size_of_debounceDelay 0060  
                                 _TRISDbits 000F95                          _BothEP0OutUOWNsSet 0024  
                 USBConfigureEndpoint@EPNum 00E4                  ?_USBCtrlEPAllowStatusStage 002B  
     i2USER_USB_CALLBACK_EVENT_HANDLER@size 003B         USER_USB_CALLBACK_EVENT_HANDLER@size 00EF  
                                 _USTATcopy 00DE                __end_of_USBTransferOnePacket 2180  
                __size_ofi2_USBStallHandler 0060                                 ?_initUSBLib 002B  
                         putUSBUSART@length 00E1                      ?i2_USBStdGetDscHandler 002B  
                    ??i2_USBWakeFromSuspend 003F           __size_ofi2_USBCtrlTrfSetupHandler 0090  
                 ?i2_USBCtrlTrfSetupHandler 002B                      _USBCtrlTrfSetupHandler 37A2  
                    ??i2_USBCheckCDCRequest 002B           __end_ofi2_USBCtrlEPAllowDataStage 36F6  
                   ?i2_USBTransferOnePacket 002B                       __end_of_USBDeviceInit 1C6E  
   __end_ofi2_USBIncrement1msInternalTimers 4056    __size_ofi2_USBIncrement1msInternalTimers 0034  
     __end_of_USBIncrement1msInternalTimers 4022      __size_of_USBIncrement1msInternalTimers 0034  
         ??i2_USBIncrement1msInternalTimers 002B            ?i2_USBIncrement1msInternalTimers 002B  
           i2_USBIncrement1msInternalTimers 4022               _USBIncrement1msInternalTimers 3FEE  
                   ??i2_USBStdSetCfgHandler 003F            __end_ofi2_USBStdGetStatusHandler 2EC0  
                                 i2memcpy@d 0031                                   i2memcpy@n 002F  
                   __end_ofi2_USBDeviceInit 1DB8                                   i2memcpy@s 0033  
                                 i2memset@c 002D                                   i2memset@k 0033  
                                 i2memset@n 002F                                   i2memset@s 0035  
                            __end_of_memcpy 3E10                              __end_of_memset 16DE  
                         _USBBusIsSuspended 0025                         start_initialization 3EAC  
                   ?_USBStdGetStatusHandler 002B             i2USBCtrlTrfRxService@byteToRead 002C  
             USBCtrlTrfRxService@byteToRead 00E0                         __size_of_isUSBReady 0038  
                               _cdc_data_rx 000540                           __size_ofi2_memcpy 0050  
                               _cdc_data_tx 000500                           __size_ofi2_memset 0176  
              __end_of_USBConfigureEndpoint 359A             __end_of_USBStdFeatureReqHandler 0C2C  
         __end_of_USBCtrlEPAllowStatusStage 30B2                    __end_of_USBCtrlEPService 3430  
                             _debounceDelay 3BF0                __end_ofi2_USBCheckStdRequest 2780  
                 ??_USBCtrlEPAllowDataStage 00E0                        __end_ofi2_USBSuspend 40E2  
                             ??i2_CDCInitEP 0037                                 ??_CDCInitEP 00EB  
                            USBDeviceInit@i 00EB                     ?i2_USBConfigureEndpoint 002B  
                    _pBDTEntryEP0OutCurrent 001D                     USBTransferOnePacket@dir 00DF  
                   USBTransferOnePacket@len 00E2              __end_ofi2_USBTransferOnePacket 2542  
                       _USBStdGetDscHandler 1854                                 __pdataBANK0 00F9  
                          __CFG_LPT1OSC$OFF 000000                                    ??_memcpy 00E5  
                                  ??_memset 00E5                                  memset@dest 00DF  
                           _processUSBTasks 4056                      _USBActiveConfiguration 002A  
            __end_of_USBStdGetStatusHandler 2AAE                      i2USBStdSetCfgHandler@i 003F  
                               __pbssCOMRAM 0001                               __pcstackBANK0 00DF  
                             __pcstackBANK1 0100                __size_of_USBCtrlTrfInHandler 0108  
                       __size_of_initUSBLib 000E                  i2USBStdFeatureReqHandler@p 0044  
                      ?_USBStdGetDscHandler 002B                              ?_debounceDelay 002B  
                __end_of_USBWakeFromSuspend 3F76                             _USBStallHandler 3C50  
                              _pBDTEntryOut 00AA                  __end_of_USBCheckCDCRequest 2CBA  
            __end_ofi2_USBConfigureEndpoint 37A2                    __size_of_USBDeviceAttach 0042  
                     i2_USBCtrlTrfInHandler 2CBA                   __size_ofi2_USBDeviceTasks 0228  
                         __size_of_sendFlap 002A                                   __pintcode 0008  
              __size_ofi2_USBEnableEndpoint 004C                         __end_ofi2_CDCInitEP 3BF0  
                          ?i2_USBDeviceInit 002B                                    ?_mainISR 002B  
                      _USBTransferOnePacket 203E                                 __smallconst 0800  
                  i2_USBStdGetStatusHandler 2DBE                          i2_USBCtrlEPService 3430  
              __end_of_USBCtrlTrfOutHandler 3A4A                       ??_USBStdGetDscHandler 00DF  
                               _ep_data_out 0015                __size_of_USBCtrlTrfRxService 0144  
           i2USBConfigureEndpoint@direction 002B               USBConfigureEndpoint@direction 00DF  
                       ?i2_USBCtrlEPService 002B                __size_of_USBCtrlTrfTxService 0110  
                                  _LATCbits 000F8B                  ??_USBCtrlEPServiceComplete 00E0  
                                  _IPR2bits 000FA2                                    _PIE2bits 000FA0  
                   ?i2_USBCtrlTrfOutHandler 002B                                    i2u300_40 2936  
                                  i2u300_47 292C                                    i2u301_40 2954  
                                  i2u301_41 2950                                    i2u302_40 2980  
                                  i2u302_47 2976                                    i2u303_40 299E  
                                  i2u303_41 299A                                    i2u304_40 16F8  
                                  i2u400_40 2240                                    i2u304_41 16F4  
                                  i2u400_41 223C                                    i2u305_40 173A  
                                  i2u401_40 225C                                    i2u305_41 1736  
                                  i2u401_41 2258                                    i2u322_40 30C2  
                                  i2u330_40 19D4                                    i2u306_40 17AC  
                                  i2u402_40 22BC                                    i2u322_41 30BE  
                                  i2u330_41 19D0                                    i2u306_41 17A8  
                                  i2u402_41 22B8                                    i2u323_40 30D6  
                                  i2u403_40 22E8                                    i2u331_40 1A00  
                                  i2u307_40 17F2                                    i2u323_41 30D2  
                                  i2u403_41 22E4                                    i2u331_41 19FC  
                                  i2u307_41 17EE                                    i2u324_40 30EC  
                                  i2u404_40 232C                                    i2u332_40 1A48  
                                  i2u340_40 2EB0                                    i2u308_40 1852  
                                  i2u500_40 1394                                    i2u324_41 30E8  
                                  i2u404_41 2328                                    i2u340_41 2EAC  
                                  i2u308_41 184E                                    i2u500_41 1390  
                                  i2u332_47 1A3E                                    i2u325_40 3128  
                                  i2u405_40 233E                                    i2u341_40 0C3E  
                                  i2u333_40 1A76                                    i2u501_40 13CA  
                                  i2u325_41 3124                                    i2u405_41 233A  
                                  i2u341_41 0C3A                                    i2u501_41 13C6  
                                  i2u333_47 1A6C                                    i2u406_40 2378  
                                  i2u422_40 3A5C                                    i2u350_40 0D60  
                                  i2u342_40 0C52                                    i2u334_40 1A94  
                                  i2u326_40 3664                                    i2u430_40 3E5E  
                                  i2u406_41 2374                                    i2u422_41 3A58  
                                  i2u350_41 0D5C                                    i2u342_41 0C4E  
                                  i2u334_41 1A90                                    i2u326_41 3660  
                                  i2u430_41 3E5A                                    i2u407_40 23FE  
                                  i2u423_40 3A78                                    i2u351_40 0D88  
                                  i2u343_40 0C66                                    i2u335_40 1AD0  
                                  i2u327_40 36BC                                    i2u407_41 23FA  
                                  i2u423_41 3A74                                    i2u351_41 0D84  
                                  i2u343_41 0C62                                    i2u327_41 36B8  
                                  i2u335_47 1AC6                                    i2u424_40 2CE6  
                                  i2u280_40 2416                                    i2u352_40 0DDA  
                                  i2u344_40 0C82                                    i2u336_40 2DDE  
                                  i2u328_40 3302                                    i2u408_40 267C  
                                  i2u440_40 1CD2                                    i2u424_41 2CE2  
                                  i2u280_41 2412                                    i2u352_41 0DD6  
                                  i2u344_41 0C7E                                    i2u336_41 2DDA  
                                  i2u328_41 32FE                                    i2u408_41 2678  
                                  i2u440_41 1CCE                                    i2u425_40 2CFE  
                                  i2u281_40 245C                                    i2u353_40 0DF0  
                                  i2u345_40 0C96                                    i2u337_40 2DFA  
                                  i2u329_40 334C                                    i2u441_40 1CFC  
                                  i2u425_41 2CFA                                    i2u281_41 2458  
                                  i2u353_41 0DEC                                    i2u345_41 0C92  
                                  i2u337_41 2DF6                                    i2u329_41 3348  
                                  i2u441_41 1CF8                                    i2u426_40 2D1A  
                                  i2u282_40 24C0                                    i2u290_40 2F04  
                                  i2u354_40 0DFE                                    i2u346_40 0CAA  
                                  i2u338_40 2E50                                    i2u442_40 1D78  
                                  i2u450_40 4040                                    i2u530_40 4064  
                                  i2u426_41 2D16                                    i2u282_41 24BC  
                                  i2u290_41 2F00                                    i2u354_41 0DFA  
                                  i2u346_41 0CA6                                    i2u338_41 2E4C  
                                  i2u442_41 1D74                                    i2u450_41 403C  
                                  i2u530_41 4060                                    i2u427_40 2D44  
                                  i2u291_40 2F14                                    i2u355_40 0E6A  
                                  i2u347_40 0CC0                                    i2u339_40 2E66  
                                  i2u451_40 4052                                    i2u443_40 3CBE  
                                  i2u531_40 4072                                    i2u427_41 2D40  
                                  i2u291_41 2F10                                    i2u355_41 0E66  
                                  i2u347_41 0CBC                                    i2u339_41 2E62  
                                  i2u451_41 404E                                    i2u443_41 3CBA  
                                  i2u531_41 406E                                    _PIR2bits 000FA1  
                                  i2u428_40 2D70                                    i2u276_40 3754  
                                  i2u356_40 0EC6                                    i2u348_40 0CD2  
                                  i2u444_40 3CD8                                    i2u532_40 4080  
                                  i2u428_41 2D6C                                    i2u276_41 3750  
                                  i2u356_41 0EC2                                    i2u348_41 0CCE  
                                  i2u444_41 3CD4                                    i2u532_41 407C  
                                  i2u429_40 2DB6                                    i2u357_40 0EDC  
                                  i2u349_40 0CE2                                    i2u445_40 3CF2  
                                  i2u429_41 2DB2                                    i2u357_41 0ED8  
                                  i2u349_41 0CDE                                    i2u445_41 3CEE  
                                  i2u278_40 3E70                                    i2u358_40 0EEC  
                                  i2u446_40 3FAE                                    i2u278_41 3E6C  
                                  i2u358_41 0EE8                                    i2u446_41 3FAA  
                                  i2u279_40 3E88                                    i2u447_40 344C  
                                  i2u279_41 3E84                                    i2u447_41 3448  
                                  i2u296_40 28AA                                    i2u288_40 2ED6  
                                  i2u448_40 3498                                    i2u480_40 11C4  
                                  i2u296_41 28A6                                    i2u288_41 2ED2  
                                  i2u448_41 3494                                    i2u480_41 11C0  
                              ??_isUSBReady 00DF                                    i2u297_40 28BE  
                                  i2u289_40 2EF0                                    i2u449_40 34E4  
                                  i2u481_40 11DE                                    i2u297_41 28BA  
                                  i2u289_41 2EEC                                    i2u449_41 34E0  
                                  i2u481_41 11DA                                    i2u298_40 28D6  
                                  i2u490_40 129E                                    i2u482_40 11EC  
                                  i2u298_41 28D2                                    i2u490_41 129A  
                                  i2u482_41 11E8                                    i2u299_40 290A  
                                  i2u491_40 12B0                                    i2u483_40 1200  
                                  i2u299_41 2906                                    i2u491_41 12AC  
                                  i2u483_41 11FC                                    i2u396_40 2190  
                                  i2u492_40 12C2                                    i2u484_40 1214  
                                  i2u396_41 218C                                    i2u492_41 12BE  
                                  i2u484_41 1210                                    i2u397_40 219E  
                                  i2u493_40 12D0                                    i2u485_40 1222  
                                  i2u397_41 219A                                    i2u493_41 12CC  
                                  i2u485_41 121E                                    i2u398_40 21B4  
                                  i2u494_40 12E2                                    i2u486_40 123C  
                                  i2u398_41 21B0                                    i2u494_41 12DE  
                                  i2u486_41 1238                                    i2u399_40 222C  
                                  i2u495_40 12F0                                    i2u487_40 124A  
                                  i2u479_40 11B6                                    i2u399_41 2228  
                                  i2u495_41 12EC                                    i2u487_41 1246  
                                  i2u479_41 11B2                                    i2u496_40 131E  
                                  i2u488_40 125C                                    i2u496_41 131A  
                                  i2u488_41 1258                                    i2u497_40 1332  
                                  i2u489_40 126A                                    i2u497_41 132E  
                                  i2u489_41 1266                                    i2u498_40 1344  
                                  i2u498_41 1340                                    i2u499_40 1364  
                                  i2u499_41 1360                               ??_putUSBUSART 00E2  
                          __CFG_WDTPS$32768 000000                                    _UEP0bits 000F70  
               ??i2_USBCtrlEPAllowDataStage 002C                     __end_of_processUSBTasks 4086  
                _USBDeferINDataStagePackets 0020                       i2_USBCtrlTrfRxService 22C2  
               __size_of_USBCheckStdRequest 0122                                    _UCONbits 000F6D  
                      _USBConfigureEndpoint 34EA                        ??i2_USBCtrlEPService 0048  
                     i2_USBCtrlTrfTxService 2890            __size_of_USBStdFeatureReqHandler 0382  
                     ?_USBTransferOnePacket 00DF                        i2_USBCheckStdRequest 2664  
                             ?_CDCTxService 002B                                _RemoteWakeup 0026  
                                  i2_memcpy 3E10                                    i2_memset 16DE  
                     i2USBEnableEndpoint@ep 0036                  i2USBEnableEndpoint@options 0033  
                   __end_of_USBStallHandler 3CB0                             ??_debounceDelay 00DF  
                                 copy_data0 3EC0                          __end_of_isUSBReady 3FEE  
          __end_ofi2_USBCtrlTrfSetupHandler 38C4                 ??_USBCtrlEPAllowStatusStage 00DF  
               __end_of_USBStdSetCfgHandler 3290                       __size_ofi2_USBSuspend 002E  
            __end_ofi2_USBCtrlTrfOutHandler 3ABE                       __end_of_readButtonAsm 4150  
                   ??i2_USBStdGetDscHandler 002B                          __end_of_device_dsc 08A4  
                    ?i2_USBCtrlTrfInHandler 002B                                ??_initUSBLib 00EC  
                   ?_USBCtrlTrfSetupHandler 002B                     USBStdGetStatusHandler@p 00E1  
                                  __Hrparam 0000                                 i2_CDCInitEP 3B8C  
                                 memcpy@tmp 00E5                                    __Lrparam 0000  
                    USBTransferOnePacket@ep 00E7                                    _SetupPkt 000430  
                     ?_USBConfigureEndpoint 00DF                           ??_USBDeviceAttach 00DF  
            __size_ofi2_USBStdSetCfgHandler 00E6                       ?i2_USBCheckStdRequest 002B  
             __end_ofi2_USBStdSetCfgHandler 3376                         __end_of_putUSBUSART 410E  
                               _line_coding 00D5                              ??_CDCTxService 00EA  
                          __size_of_mainISR 3D62                                i2_USBSuspend 40B4  
                   __size_of_USBDeviceTasks 022E                   i2_USBCtrlEPAllowDataStage 3648  
                        __end_of_initUSBLib 4146                                    __ptext10 3F34  
                                  __ptext11 4086                                    __ptext20 2542  
                                  __ptext12 3C50                                    __ptext21 31A2  
                                  __ptext13 3FEE                                    __ptext30 3D6A  
                                  __ptext22 1566                                    __ptext14 1B20  
                                  __ptext31 34EA                                    __ptext23 29A0  
                                  __ptext15 3376                                    __ptext40 3F76  
                                  __ptext32 39D6                                    __ptext24 1854  
                                  __ptext16 3DBE                                    __ptext41 40B4  
                                  __ptext33 1DB8                                    __ptext25 08AA  
                                  __ptext17 37A2                                    __ptext50 2664  
                                  __ptext42 3CB0                                    __ptext34 2FC2  
                                  __ptext26 38C4                                    __ptext18 1EFC  
                                  __ptext51 3290                                    __ptext43 4022  
                                  __ptext35 2AAE                                    __ptext27 2BB6  
                                  __ptext19 359A                                    __ptext60 3E60  
                                  __ptext52 16DE                                    __ptext44 1C6E  
                                  __ptext36 2780                                    __ptext28 3ABE  
                                  __ptext61 36F6                                    __ptext53 2DBE  
                                  __ptext45 3430                                    __ptext29 203E  
                                  __ptext62 3A4A                                    __ptext54 19C0  
                                  __ptext46 3E10                                    __ptext38 4056  
                                  __ptext63 22C2                                    __ptext55 0C2C  
                                  __ptext47 3834                                    __ptext39 11A6  
                                  __ptext64 30B2                                    __ptext56 394E  
                                  __ptext48 2180                                    __ptext65 2CBA  
                                  __ptext57 2EC0                                    __ptext49 3648  
                                  __ptext66 2890                                    __ptext58 3B8C  
                                  __ptext59 2404              __end_of_USBCtrlTrfSetupHandler 3834  
                             __size_of_main 0066                           ?_USBCtrlEPService 002B  
                                  _sendFlap 410E                          ??_USBCtrlEPService 00F7  
                             _usbReadBuffer 0080                         _USBCtrlTrfInHandler 2AAE  
                    ?i2_USBCtrlTrfRxService 002B                            i2_USBDeviceTasks 11A6  
                                  _outPipes 0001                        _USBCtrlTrfOutHandler 39D6  
                                  int$flags 0054                            ?_processUSBTasks 002B  
             __size_ofi2_USBWakeFromSuspend 0040                ?i2_USBCtrlEPAllowStatusStage 002B  
                 _USBCtrlEPAllowStatusStage 2FC2                           i2USBDeviceTasks@i 0049  
                    ?i2_USBCtrlTrfTxService 002B                              debounceDelay@i 00DF  
                            debounceDelay@j 00E1               __size_ofi2_USBCheckCDCRequest 0102  
                    ??_USBTransferOnePacket 00E3                        i2USBEnableEndpoint@p 0034  
                     __CFG_CPUDIV$OSC1_PLL2 000000                   _USBDeferStatusStagePacket 0023  
                  CDCTxService@byte_to_send 00EB                                  _INTCONbits 000FF2  
                      ?_USBCtrlTrfInHandler 002B                                    memcpy@d1 00DF  
                                  memcpy@s1 00E1             i2USBCtrlTrfTxService@byteToSend 002B  
             USBCtrlTrfTxService@byteToSend 00DF                            ?_USBStallHandler 002B  
                  USBStdFeatureReqHandler@p 0103                         i2_USBEnableEndpoint 3E60  
                                  intlevel2 0000                      __size_of_USBDeviceInit 014E  
 __end_ofi2_USER_USB_CALLBACK_EVENT_HANDLER 39D6  __size_ofi2_USER_USB_CALLBACK_EVENT_HANDLER 0088  
   __end_of_USER_USB_CALLBACK_EVENT_HANDLER 394E    __size_of_USER_USB_CALLBACK_EVENT_HANDLER 008A  
       ??i2_USER_USB_CALLBACK_EVENT_HANDLER 003D          ?i2_USER_USB_CALLBACK_EVENT_HANDLER 0037  
         ??_USER_USB_CALLBACK_EVENT_HANDLER 00F1            ?_USER_USB_CALLBACK_EVENT_HANDLER 00EB  
         i2_USER_USB_CALLBACK_EVENT_HANDLER 394E             _USER_USB_CALLBACK_EVENT_HANDLER 38C4  
              i2USBTransferOnePacket@handle 0034                    i2_USBCtrlTrfSetupHandler 3834  
                    i2USBCtrlTrfRxService@i 002B                  i2USBTransferOnePacket@data 002C  
                    ??_USBConfigureEndpoint 00E0                       ?_USBCtrlTrfOutHandler 002B  
                               _putUSBUSART 40E2                         _USBCtrlTrfRxService 1DB8  
                      ?i2_USBEnableEndpoint 0033          __size_ofi2_USBStdFeatureReqHandler 034C  
                ??i2_USBStdGetStatusHandler 002B                          _USBWakeFromSuspend 3F34  
                ?i2_USBStdFeatureReqHandler 002B                     _USBStdFeatureReqHandler 08AA  
                    ??i2_USBCheckStdRequest 0046                          _USBCheckCDCRequest 2BB6  
             ??i2_USBCtrlEPAllowStatusStage 002B                         _USBCtrlTrfTxService 2780  
                       ?_USBWakeFromSuspend 002B                       ??_USBCtrlTrfInHandler 00E0  
                     _USBAlternateInterface 00DC                         ?_USBCheckCDCRequest 002B  
                 i2USBTransferOnePacket@dir 002B                   i2USBTransferOnePacket@len 002E  
              i2USBConfigureEndpoint@handle 0031                         USBEnableEndpoint@ep 00EA  
                           _endpoint_number 00CB                 i2USBConfigureEndpoint@EPNum 0030  
                      ?_USBCtrlTrfRxService 002B                          __CFG_FOSC$HSPLL_HS 000000  
                  ?_USBCtrlEPAllowDataStage 002B                        ?_USBCtrlTrfTxService 002B  
              _USBStatusStageTimeoutCounter 00CA                        ??_USBWakeFromSuspend 00F3  
                USBTransferOnePacket@handle 00E8                        __end_of_CDCTxService 1566  
                      ??_USBCheckCDCRequest 00DF                                  _USB_CD_Ptr 0807  
