

Microchip MPLAB XC8 Assembler V2.10 build 88905656 
                                                                                               Fri Oct 17 12:24:45 2025

Microchip MPLAB XC8 C Compiler v2.10 (Free license) build 20190730164152 Og1 
     1                           	processor	18F4550
     2                           	fnconf	rparam,??,?,0
     3                           	opt	pw 120
     4                           	opt	flic
     5                           	psect	idataBANK0,global,class=CODE,delta=1,noexec
     6                           	psect	smallconst,global,reloc=2,class=SMALLCONST,delta=1,noexec
     7                           	psect	cinit,global,reloc=2,class=CODE,delta=1
     8                           	psect	bssCOMRAM,global,class=COMRAM,space=1,delta=1,noexec
     9                           	psect	bssBANK0,global,class=BANK0,space=1,delta=1,lowdata,noexec
    10                           	psect	dataBANK0,global,class=BANK0,space=1,delta=1,lowdata,noexec
    11                           	psect	cstackBANK1,global,class=BANK1,space=1,delta=1,noexec
    12                           	psect	cstackBANK0,global,class=BANK0,space=1,delta=1,noexec
    13                           	psect	cstackCOMRAM,global,class=COMRAM,space=1,delta=1,noexec
    14                           	psect	text0,global,reloc=2,class=CODE,delta=1
    15                           	psect	text1,global,reloc=2,class=CODE,delta=1
    16                           	psect	text2,global,reloc=2,class=CODE,delta=1
    17                           	psect	text3,global,reloc=2,class=CODE,delta=1
    18                           	psect	text4,global,reloc=2,class=CODE,delta=1
    19                           	psect	text5,global,reloc=2,class=CODE,delta=1
    20                           	psect	text6,global,reloc=2,class=CODE,delta=1
    21                           	psect	text7,global,reloc=2,class=CODE,delta=1
    22                           	psect	text8,global,reloc=2,class=CODE,delta=1
    23                           	psect	text9,global,reloc=2,class=CODE,delta=1
    24                           	psect	text10,global,reloc=2,class=CODE,delta=1
    25                           	psect	text11,global,reloc=2,class=CODE,delta=1
    26                           	psect	text12,global,reloc=2,class=CODE,delta=1
    27                           	psect	text13,global,reloc=2,class=CODE,delta=1
    28                           	psect	text14,global,reloc=2,class=CODE,delta=1
    29                           	psect	text15,global,reloc=2,class=CODE,delta=1,group=2
    30                           	psect	text16,global,reloc=2,class=CODE,delta=1
    31                           	psect	text17,global,reloc=2,class=CODE,delta=1
    32                           	psect	text18,global,reloc=2,class=CODE,delta=1
    33                           	psect	text19,global,reloc=2,class=CODE,delta=1
    34                           	psect	text20,global,reloc=2,class=CODE,delta=1
    35                           	psect	text21,global,reloc=2,class=CODE,delta=1,group=2
    36                           	psect	text22,global,reloc=2,class=CODE,delta=1
    37                           	psect	text23,global,reloc=2,class=CODE,delta=1
    38                           	psect	text24,global,reloc=2,class=CODE,delta=1
    39                           	psect	text25,global,reloc=2,class=CODE,delta=1
    40                           	psect	text26,global,reloc=2,class=CODE,delta=1
    41                           	psect	text27,global,reloc=2,class=CODE,delta=1
    42                           	psect	text28,global,reloc=2,class=CODE,delta=1
    43                           	psect	text29,global,reloc=2,class=CODE,delta=1
    44                           	psect	text30,global,reloc=2,class=CODE,delta=1
    45                           	psect	text31,global,reloc=2,class=CODE,delta=1
    46                           	psect	text32,global,reloc=2,class=CODE,delta=1
    47                           	psect	text33,global,reloc=2,class=CODE,delta=1
    48                           	psect	text34,global,reloc=2,class=CODE,delta=1
    49                           	psect	text35,global,reloc=2,class=CODE,delta=1
    50                           	psect	intcode,global,reloc=2,class=CODE,delta=1
    51                           	psect	intcode_body,global,reloc=2,class=CODE,delta=1
    52                           	psect	text37,global,reloc=2,class=CODE,delta=1,inline
    53                           	psect	text38,global,reloc=2,class=CODE,delta=1
    54                           	psect	text39,global,reloc=2,class=CODE,delta=1
    55                           	psect	text40,global,reloc=2,class=CODE,delta=1
    56                           	psect	text41,global,reloc=2,class=CODE,delta=1
    57                           	psect	text42,global,reloc=2,class=CODE,delta=1
    58                           	psect	text43,global,reloc=2,class=CODE,delta=1
    59                           	psect	text44,global,reloc=2,class=CODE,delta=1
    60                           	psect	text45,global,reloc=2,class=CODE,delta=1
    61                           	psect	text46,global,reloc=2,class=CODE,delta=1
    62                           	psect	text47,global,reloc=2,class=CODE,delta=1
    63                           	psect	text48,global,reloc=2,class=CODE,delta=1
    64                           	psect	text49,global,reloc=2,class=CODE,delta=1
    65                           	psect	text50,global,reloc=2,class=CODE,delta=1
    66                           	psect	text51,global,reloc=2,class=CODE,delta=1
    67                           	psect	text52,global,reloc=2,class=CODE,delta=1
    68                           	psect	text53,global,reloc=2,class=CODE,delta=1
    69                           	psect	text54,global,reloc=2,class=CODE,delta=1
    70                           	psect	text55,global,reloc=2,class=CODE,delta=1
    71                           	psect	text56,global,reloc=2,class=CODE,delta=1
    72                           	psect	text57,global,reloc=2,class=CODE,delta=1
    73                           	psect	text58,global,reloc=2,class=CODE,delta=1
    74                           	psect	text59,global,reloc=2,class=CODE,delta=1
    75                           	psect	text60,global,reloc=2,class=CODE,delta=1
    76                           	psect	text61,global,reloc=2,class=CODE,delta=1
    77                           	psect	text62,global,reloc=2,class=CODE,delta=1
    78                           	psect	text63,global,reloc=2,class=CODE,delta=1
    79                           	psect	text64,global,reloc=2,class=CODE,delta=1
    80                           	psect	text65,global,reloc=2,class=CODE,delta=1
    81                           	psect	intsave_regs,global,class=BIGRAM,space=1,delta=1,noexec
    82                           	psect	rparam,global,class=COMRAM,space=1,delta=1,noexec
    83                           	psect	temp,global,ovrld,common,class=COMRAM,space=1,delta=1
    84                           	dabs	1,0x400,48,_BDT
    85                           	dabs	1,0x450,32,_CtrlTrfData
    86                           	dabs	1,0x430,8,_SetupPkt
    87                           	dabs	1,0x500,64,_cdc_data_tx
    88                           	dabs	1,0x540,64,_cdc_data_rx
    89  0000                     
    90                           ; Version 2.10
    91                           ; Generated 31/07/2019 GMT
    92                           ; 
    93                           ; Copyright © 2019, Microchip Technology Inc. and its subsidiaries ("Microchip")
    94                           ; All rights reserved.
    95                           ; 
    96                           ; This software is developed by Microchip Technology Inc. and its subsidiaries ("Microch
      +                          ip").
    97                           ; 
    98                           ; Redistribution and use in source and binary forms, with or without modification, are
    99                           ; permitted provided that the following conditions are met:
   100                           ; 
   101                           ;     1. Redistributions of source code must retain the above copyright notice, this lis
      +                          t of
   102                           ;        conditions and the following disclaimer.
   103                           ; 
   104                           ;     2. Redistributions in binary form must reproduce the above copyright notice, this 
      +                          list
   105                           ;        of conditions and the following disclaimer in the documentation and/or other
   106                           ;        materials provided with the distribution.
   107                           ; 
   108                           ;     3. Microchip's name may not be used to endorse or promote products derived from th
      +                          is
   109                           ;        software without specific prior written permission.
   110                           ; 
   111                           ; THIS SOFTWARE IS PROVIDED BY MICROCHIP "AS IS" AND ANY EXPRESS OR IMPLIED WARRANTIES,
   112                           ; INCLUDING, BUT NOT LIMITED TO, THE IMPLIED WARRANTIES OF MERCHANTABILITY AND FITNESS F
      +                          OR
   113                           ; PURPOSE ARE DISCLAIMED.  IN NO EVENT SHALL MICROCHIP BE LIABLE FOR ANY DIRECT, INDIREC
      +                          T,
   114                           ; INCIDENTAL, SPECIAL, EXEMPLARY, OR CONSEQUENTIAL DAMAGES (INCLUDING BUT NOT LIMITED TO
   115                           ; PROCUREMENT OF SUBSTITUTE GOODS OR SERVICES; LOSS OF USE, DATA OR PROFITS; OR BUSINESS
   116                           ; INTERRUPTION) HOWSOEVER CAUSED AND ON ANY THEORY OF LIABILITY, WHETHER IN CONTRACT, ST
      +                          RICT
   117                           ; LIABILITY, OR TORT (INCLUDING NEGLIGENCE OR OTHERWISE) ARISING IN ANY WAY OUT OF THE U
      +                          SE OF
   118                           ; THIS SOFTWARE, EVEN IF ADVISED OF THE POSSIBILITY OF SUCH DAMAGE.
   119                           ; 
   120                           ; 
   121                           ; Code-generator required, PIC18F4550 Definitions
   122                           ; 
   123                           ; SFR Addresses
   124  0000                     
   125                           	psect	idataBANK0
   126  004134                     __pidataBANK0:
   127                           	opt callstack 0
   128                           
   129                           ;initializer for sendFlap@F3956
   130  004134  66                 	db	102
   131  004135  6C                 	db	108
   132  004136  61                 	db	97
   133  004137  70                 	db	112
   134  004138  0D                 	db	13
   135  004139  0A                 	db	10
   136  00413A  00                 	db	0
   137                           
   138                           	psect	smallconst
   139  000800                     __psmallconst:
   140                           	opt callstack 0
   141  000800  00                 	db	0
   142  000801                     _USB_SD_Ptr:
   143                           	opt callstack 0
   144  000801  A4                 	db	low _sd000
   145  000802  08                 	db	high _sd000
   146  000803  4C                 	db	low _sd001
   147  000804  08                 	db	high _sd001
   148  000805  72                 	db	low _sd002
   149  000806  08                 	db	high _sd002
   150  000807                     __end_of_USB_SD_Ptr:
   151                           	opt callstack 0
   152  000807                     _USB_CD_Ptr:
   153                           	opt callstack 0
   154  000807  09                 	db	low _configDescriptor1
   155  000808  08                 	db	high _configDescriptor1
   156  000809                     __end_of_USB_CD_Ptr:
   157                           	opt callstack 0
   158  000809                     _configDescriptor1:
   159                           	opt callstack 0
   160  000809  09                 	db	9
   161  00080A  02                 	db	2
   162  00080B  43                 	db	67
   163  00080C  00                 	db	0
   164  00080D  02                 	db	2
   165  00080E  01                 	db	1
   166  00080F  00                 	db	0
   167  000810  C0                 	db	192
   168  000811  32                 	db	50
   169  000812  09                 	db	9
   170  000813  04                 	db	4
   171  000814  00                 	db	0
   172  000815  00                 	db	0
   173  000816  01                 	db	1
   174  000817  02                 	db	2
   175  000818  02                 	db	2
   176  000819  01                 	db	1
   177  00081A  00                 	db	0
   178  00081B  05                 	db	5
   179  00081C  24                 	db	36
   180  00081D  00                 	db	0
   181  00081E  10                 	db	16
   182  00081F  01                 	db	1
   183  000820  04                 	db	4
   184  000821  24                 	db	36
   185  000822  02                 	db	2
   186  000823  02                 	db	2
   187  000824  05                 	db	5
   188  000825  24                 	db	36
   189  000826  06                 	db	6
   190  000827  00                 	db	0
   191  000828  01                 	db	1
   192  000829  05                 	db	5
   193  00082A  24                 	db	36
   194  00082B  01                 	db	1
   195  00082C  00                 	db	0
   196  00082D  01                 	db	1
   197  00082E  07                 	db	7
   198  00082F  05                 	db	5
   199  000830  81                 	db	129
   200  000831  03                 	db	3
   201  000832  0A                 	db	10
   202  000833  00                 	db	0
   203  000834  02                 	db	2
   204  000835  09                 	db	9
   205  000836  04                 	db	4
   206  000837  01                 	db	1
   207  000838  00                 	db	0
   208  000839  02                 	db	2
   209  00083A  0A                 	db	10
   210  00083B  00                 	db	0
   211  00083C  00                 	db	0
   212  00083D  00                 	db	0
   213  00083E  07                 	db	7
   214  00083F  05                 	db	5
   215  000840  02                 	db	2
   216  000841  02                 	db	2
   217  000842  40                 	db	64
   218  000843  00                 	db	0
   219  000844  00                 	db	0
   220  000845  07                 	db	7
   221  000846  05                 	db	5
   222  000847  82                 	db	130
   223  000848  02                 	db	2
   224  000849  40                 	db	64
   225  00084A  00                 	db	0
   226  00084B  00                 	db	0
   227  00084C                     __end_of_configDescriptor1:
   228                           	opt callstack 0
   229  00084C                     _sd001:
   230                           	opt callstack 0
   231  00084C  26                 	db	38
   232  00084D  03                 	db	3
   233  00084E  0044               	dw	68
   234  000850  0069               	dw	105
   235  000852  006C               	dw	108
   236  000854  0073               	dw	115
   237  000856  0068               	dw	104
   238  000858  0061               	dw	97
   239  00085A  006E               	dw	110
   240  00085C  0020               	dw	32
   241  00085E  0052               	dw	82
   242  000860  0020               	dw	32
   243  000862  004A               	dw	74
   244  000864  0061               	dw	97
   245  000866  0079               	dw	121
   246  000868  0061               	dw	97
   247  00086A  006B               	dw	107
   248  00086C  006F               	dw	111
   249  00086E  0064               	dw	100
   250  000870  0079               	dw	121
   251  000872                     __end_of_sd001:
   252                           	opt callstack 0
   253  000872                     _sd002:
   254                           	opt callstack 0
   255  000872  20                 	db	32
   256  000873  03                 	db	3
   257  000874  0054               	dw	84
   258  000876  0065               	dw	101
   259  000878  0073               	dw	115
   260  00087A  0074               	dw	116
   261  00087C  0020               	dw	32
   262  00087E  0055               	dw	85
   263  000880  0053               	dw	83
   264  000882  0042               	dw	66
   265  000884  0020               	dw	32
   266  000886  0044               	dw	68
   267  000888  0065               	dw	101
   268  00088A  0076               	dw	118
   269  00088C  0069               	dw	105
   270  00088E  0063               	dw	99
   271  000890  0065               	dw	101
   272  000892                     __end_of_sd002:
   273                           	opt callstack 0
   274  000892                     _device_dsc:
   275                           	opt callstack 0
   276  000892  12                 	db	18
   277  000893  01                 	db	1
   278  000894  0200               	dw	512
   279  000896  02                 	db	2
   280  000897  00                 	db	0
   281  000898  00                 	db	0
   282  000899  20                 	db	32
   283  00089A  04D8               	dw	1240
   284  00089C  000A               	dw	10
   285  00089E  0100               	dw	256
   286  0008A0  01                 	db	1
   287  0008A1  02                 	db	2
   288  0008A2  00                 	db	0
   289  0008A3  01                 	db	1
   290  0008A4                     __end_of_device_dsc:
   291                           	opt callstack 0
   292  0008A4                     _sd000:
   293                           	opt callstack 0
   294  0008A4  04                 	db	4
   295  0008A5  03                 	db	3
   296  0008A6  0409               	dw	1033
   297  0008A8                     __end_of_sd000:
   298                           	opt callstack 0
   299  0000                     _UEP0bits	set	3952
   300  0000                     _IPR2bits	set	4002
   301  0000                     _UCON	set	3949
   302  0000                     _USTAT	set	3948
   303  0000                     _UIEbits	set	3945
   304  0000                     _UIRbits	set	3944
   305  0000                     _UADDR	set	3950
   306  0000                     _UIE	set	3945
   307  0000                     _UEIE	set	3947
   308  0000                     _UCFG	set	3951
   309  0000                     _UIR	set	3944
   310  0000                     _UEIR	set	3946
   311  0000                     _UCONbits	set	3949
   312  0000                     _PIR2bits	set	4001
   313  0000                     _PIE2bits	set	4000
   314  0000                     _INTCONbits	set	4082
   315  0000                     _LATCbits	set	3979
   316  0000                     _PORTDbits	set	3971
   317  0000                     _TRISDbits	set	3989
   318  0000                     _LATC	set	3979
   319  0000                     _TRISC	set	3988
   320  0000                     _UEP1	set	3953
   321  0000                     _UEP0	set	3952
   322                           
   323                           ; #config settings
   324  0008A8  00                 	db	0	; dummy byte at the end
   325  0000                     
   326                           	psect	cinit
   327  003E9A                     __pcinit:
   328                           	opt callstack 0
   329  003E9A                     start_initialization:
   330                           	opt callstack 0
   331  003E9A                     __initialization:
   332                           	opt callstack 0
   333                           
   334                           ; Initialize objects allocated to BANK0 (7 bytes)
   335                           ; load TBLPTR registers with __pidataBANK0
   336  003E9A  0E34               	movlw	low __pidataBANK0
   337  003E9C  6EF6               	movwf	tblptrl,c
   338  003E9E  0E41               	movlw	high __pidataBANK0
   339  003EA0  6EF7               	movwf	tblptrh,c
   340  003EA2  0E00               	movlw	low (__pidataBANK0 shr (0+16))
   341  003EA4  6EF8               	movwf	tblptru,c
   342  003EA6  EE00  F0F9         	lfsr	0,__pdataBANK0
   343  003EAA  EE10 F007          	lfsr	1,7
   344  003EAE                     copy_data0:
   345  003EAE  0009               	tblrd		*+
   346  003EB0  CFF5 FFEE          	movff	tablat,postinc0
   347  003EB4  50E5               	movf	postdec1,w,c
   348  003EB6  50E1               	movf	fsr1l,w,c
   349  003EB8  E1FA               	bnz	copy_data0
   350                           
   351                           ; Clear objects allocated to BANK0 (126 bytes)
   352  003EBA  EE00  F060         	lfsr	0,__pbssBANK0
   353  003EBE  0E7E               	movlw	126
   354  003EC0                     clear_0:
   355  003EC0  6AEE               	clrf	postinc0,c
   356  003EC2  06E8               	decf	wreg,f,c
   357  003EC4  E1FD               	bnz	clear_0
   358                           
   359                           ; Clear objects allocated to COMRAM (42 bytes)
   360  003EC6  EE00  F001         	lfsr	0,__pbssCOMRAM
   361  003ECA  0E2A               	movlw	42
   362  003ECC                     clear_1:
   363  003ECC  6AEE               	clrf	postinc0,c
   364  003ECE  06E8               	decf	wreg,f,c
   365  003ED0  E1FD               	bnz	clear_1
   366  003ED2                     end_of_initialization:
   367                           	opt callstack 0
   368  003ED2                     __end_of__initialization:
   369                           	opt callstack 0
   370  003ED2  9054               	bcf	int$flags,0,c	;clear compiler interrupt flag (level 1)
   371  003ED4  9254               	bcf	int$flags,1,c	;clear compiler interrupt flag (level 2)
   372  003ED6  0E00               	movlw	low (__Lmediumconst shr (0+16))
   373  003ED8  6EF8               	movwf	tblptru,c
   374  003EDA  0100               	movlb	0
   375  003EDC  EF81  F01E         	goto	_main	;jump to C main() function
   376                           
   377                           	psect	bssCOMRAM
   378  000001                     __pbssCOMRAM:
   379                           	opt callstack 0
   380  000001                     _outPipes:
   381                           	opt callstack 0
   382  000001                     	ds	8
   383  000009                     _inPipes:
   384                           	opt callstack 0
   385  000009                     	ds	6
   386  00000F                     _pBDTEntryIn:
   387                           	opt callstack 0
   388  00000F                     	ds	6
   389  000015                     _ep_data_out:
   390                           	opt callstack 0
   391  000015                     	ds	3
   392  000018                     _ep_data_in:
   393                           	opt callstack 0
   394  000018                     	ds	3
   395  00001B                     _pBDTEntryEP0OutNext:
   396                           	opt callstack 0
   397  00001B                     	ds	2
   398  00001D                     _pBDTEntryEP0OutCurrent:
   399                           	opt callstack 0
   400  00001D                     	ds	2
   401  00001F                     _cdc_trf_state:
   402                           	opt callstack 0
   403  00001F                     	ds	1
   404  000020                     _USBDeferINDataStagePackets:
   405                           	opt callstack 0
   406  000020                     	ds	1
   407  000021                     _USBStatusStageEnabledFlag2:
   408                           	opt callstack 0
   409  000021                     	ds	1
   410  000022                     _USBStatusStageEnabledFlag1:
   411                           	opt callstack 0
   412  000022                     	ds	1
   413  000023                     _USBDeferStatusStagePacket:
   414                           	opt callstack 0
   415  000023                     	ds	1
   416  000024                     _BothEP0OutUOWNsSet:
   417                           	opt callstack 0
   418  000024                     	ds	1
   419  000025                     _USBBusIsSuspended:
   420                           	opt callstack 0
   421  000025                     	ds	1
   422  000026                     _RemoteWakeup:
   423                           	opt callstack 0
   424  000026                     	ds	1
   425  000027                     _controlTransferState:
   426                           	opt callstack 0
   427  000027                     	ds	1
   428  000028                     _shortPacketStatus:
   429                           	opt callstack 0
   430  000028                     	ds	1
   431  000029                     _USBDeviceState:
   432                           	opt callstack 0
   433  000029                     	ds	1
   434  00002A                     _USBActiveConfiguration:
   435                           	opt callstack 0
   436  00002A                     	ds	1
   437                           
   438                           	psect	bssBANK0
   439  000060                     __pbssBANK0:
   440                           	opt callstack 0
   441  000060                     	ds	32
   442  000080                     	ds	32
   443  0000A0                     _cdc_notice:
   444                           	opt callstack 0
   445  0000A0                     	ds	10
   446  0000AA                     _pBDTEntryOut:
   447                           	opt callstack 0
   448  0000AA                     	ds	6
   449  0000B0                     _BaudRateGen:
   450                           	opt callstack 0
   451  0000B0                     	ds	4
   452  0000B4                     _USB1msTickCount:
   453                           	opt callstack 0
   454  0000B4                     	ds	4
   455  0000B8                     _pCDCDst:
   456                           	opt callstack 0
   457  0000B8                     	ds	3
   458  0000BB                     _pCDCSrc:
   459                           	opt callstack 0
   460  0000BB                     	ds	3
   461  0000BE                     _CDCDataInHandle:
   462                           	opt callstack 0
   463  0000BE                     	ds	2
   464  0000C0                     _CDCDataOutHandle:
   465                           	opt callstack 0
   466  0000C0                     	ds	2
   467  0000C2                     _pDst:
   468                           	opt callstack 0
   469  0000C2                     	ds	2
   470  0000C4                     _control_signal_bitmap:
   471                           	opt callstack 0
   472  0000C4                     	ds	1
   473  0000C5                     _cdc_mem_type:
   474                           	opt callstack 0
   475  0000C5                     	ds	1
   476  0000C6                     _cdc_tx_len:
   477                           	opt callstack 0
   478  0000C6                     	ds	1
   479  0000C7                     _cdc_rx_len:
   480                           	opt callstack 0
   481  0000C7                     	ds	1
   482  0000C8                     _USBTicksSinceSuspendEnd:
   483                           	opt callstack 0
   484  0000C8                     	ds	1
   485  0000C9                     _USBDeferOUTDataStagePackets:
   486                           	opt callstack 0
   487  0000C9                     	ds	1
   488  0000CA                     _USBStatusStageTimeoutCounter:
   489                           	opt callstack 0
   490  0000CA                     	ds	1
   491  0000CB                     _endpoint_number:
   492                           	opt callstack 0
   493  0000CB                     	ds	1
   494  0000CC                     _dummy_encapsulated_cmd_response:
   495                           	opt callstack 0
   496  0000CC                     	ds	8
   497  0000D4                     _line_coding:
   498                           	opt callstack 0
   499  0000D4                     	ds	7
   500  0000DB                     _USBAlternateInterface:
   501                           	opt callstack 0
   502  0000DB                     	ds	2
   503  0000DD                     _USTATcopy:
   504                           	opt callstack 0
   505  0000DD                     	ds	1
   506                           
   507                           	psect	dataBANK0
   508  0000F9                     __pdataBANK0:
   509                           	opt callstack 0
   510  0000F9                     sendFlap@F3956:
   511                           	opt callstack 0
   512  0000F9                     	ds	7
   513                           
   514                           	psect	cstackBANK1
   515  000100                     __pcstackBANK1:
   516                           	opt callstack 0
   517  000100                     ??_USBCheckStdRequest:
   518                           
   519                           ; 1 bytes @ 0x0
   520  000100                     	ds	2
   521  000102                     ??_USBCtrlEPService:
   522                           
   523                           ; 1 bytes @ 0x2
   524  000102                     	ds	1
   525  000103                     USBDeviceTasks@i:
   526                           	opt callstack 0
   527                           
   528                           ; 1 bytes @ 0x3
   529  000103                     	ds	1
   530                           
   531                           	psect	cstackBANK0
   532  0000DE                     __pcstackBANK0:
   533                           	opt callstack 0
   534  0000DE                     ??_USBStdGetDscHandler:
   535  0000DE                     ??_USBStdGetStatusHandler:
   536  0000DE                     ??_USBCheckCDCRequest:
   537  0000DE                     ?_USBTransferOnePacket:
   538                           	opt callstack 0
   539  0000DE                     USBTransferOnePacket@dir:
   540                           	opt callstack 0
   541  0000DE                     USBConfigureEndpoint@direction:
   542                           	opt callstack 0
   543  0000DE                     USBCtrlTrfTxService@byteToSend:
   544                           	opt callstack 0
   545  0000DE                     USBCtrlTrfRxService@i:
   546                           	opt callstack 0
   547  0000DE                     debounceDelay@i:
   548                           	opt callstack 0
   549  0000DE                     _isUSBReady$397:
   550                           	opt callstack 0
   551  0000DE                     putUSBUSART@data:
   552                           	opt callstack 0
   553  0000DE                     memcpy@d1:
   554                           	opt callstack 0
   555  0000DE                     memset@dest:
   556                           	opt callstack 0
   557                           
   558                           ; 2 bytes @ 0x0
   559  0000DE                     	ds	1
   560  0000DF                     ??_USBConfigureEndpoint:
   561  0000DF                     USBCtrlTrfRxService@byteToRead:
   562                           	opt callstack 0
   563  0000DF                     USBCtrlTrfInHandler@lastDTS:
   564                           	opt callstack 0
   565  0000DF                     USBTransferOnePacket@data:
   566                           	opt callstack 0
   567                           
   568                           ; 2 bytes @ 0x1
   569  0000DF                     	ds	1
   570  0000E0                     putUSBUSART@length:
   571                           	opt callstack 0
   572  0000E0                     debounceDelay@j:
   573                           	opt callstack 0
   574  0000E0                     USBStdGetStatusHandler@p:
   575                           	opt callstack 0
   576  0000E0                     memcpy@s1:
   577                           	opt callstack 0
   578  0000E0                     memset@c:
   579                           	opt callstack 0
   580                           
   581                           ; 2 bytes @ 0x2
   582  0000E0                     	ds	1
   583  0000E1                     USBTransferOnePacket@len:
   584                           	opt callstack 0
   585                           
   586                           ; 1 bytes @ 0x3
   587  0000E1                     	ds	1
   588  0000E2                     ??_USBTransferOnePacket:
   589  0000E2                     memcpy@n:
   590                           	opt callstack 0
   591  0000E2                     memset@n:
   592                           	opt callstack 0
   593                           
   594                           ; 2 bytes @ 0x4
   595  0000E2                     	ds	1
   596  0000E3                     USBConfigureEndpoint@EPNum:
   597                           	opt callstack 0
   598                           
   599                           ; 1 bytes @ 0x5
   600  0000E3                     	ds	1
   601  0000E4                     ??_memset:
   602  0000E4                     memcpy@tmp:
   603                           	opt callstack 0
   604  0000E4                     USBConfigureEndpoint@handle:
   605                           	opt callstack 0
   606                           
   607                           ; 2 bytes @ 0x6
   608  0000E4                     	ds	1
   609  0000E5                     memcpy@d:
   610                           	opt callstack 0
   611                           
   612                           ; 2 bytes @ 0x7
   613  0000E5                     	ds	1
   614  0000E6                     USBEnableEndpoint@options:
   615                           	opt callstack 0
   616  0000E6                     USBTransferOnePacket@ep:
   617                           	opt callstack 0
   618  0000E6                     memset@k:
   619                           	opt callstack 0
   620                           
   621                           ; 2 bytes @ 0x8
   622  0000E6                     	ds	1
   623  0000E7                     USBEnableEndpoint@p:
   624                           	opt callstack 0
   625  0000E7                     USBTransferOnePacket@handle:
   626                           	opt callstack 0
   627  0000E7                     memcpy@s:
   628                           	opt callstack 0
   629                           
   630                           ; 2 bytes @ 0x9
   631  0000E7                     	ds	1
   632  0000E8                     memset@s:
   633                           	opt callstack 0
   634                           
   635                           ; 2 bytes @ 0xA
   636  0000E8                     	ds	1
   637  0000E9                     USBEnableEndpoint@ep:
   638                           	opt callstack 0
   639  0000E9                     CDCTxService@i:
   640                           	opt callstack 0
   641                           
   642                           ; 1 bytes @ 0xB
   643  0000E9                     	ds	1
   644  0000EA                     USBDeviceInit@i:
   645                           	opt callstack 0
   646  0000EA                     CDCTxService@byte_to_send:
   647                           	opt callstack 0
   648  0000EA                     USER_USB_CALLBACK_EVENT_HANDLER@event:
   649                           	opt callstack 0
   650                           
   651                           ; 2 bytes @ 0xC
   652  0000EA                     	ds	1
   653  0000EB                     sendFlap@msg:
   654                           	opt callstack 0
   655                           
   656                           ; 7 bytes @ 0xD
   657  0000EB                     	ds	1
   658  0000EC                     USER_USB_CALLBACK_EVENT_HANDLER@pdata:
   659                           	opt callstack 0
   660                           
   661                           ; 2 bytes @ 0xE
   662  0000EC                     	ds	2
   663  0000EE                     USER_USB_CALLBACK_EVENT_HANDLER@size:
   664                           	opt callstack 0
   665                           
   666                           ; 2 bytes @ 0x10
   667  0000EE                     	ds	2
   668  0000F0                     ??_USER_USB_CALLBACK_EVENT_HANDLER:
   669                           
   670                           ; 1 bytes @ 0x12
   671  0000F0                     	ds	2
   672  0000F2                     ??_USBStdFeatureReqHandler:
   673  0000F2                     USBStdSetCfgHandler@i:
   674                           	opt callstack 0
   675                           
   676                           ; 1 bytes @ 0x14
   677  0000F2                     	ds	2
   678  0000F4                     USBStdFeatureReqHandler@pUEP:
   679                           	opt callstack 0
   680                           
   681                           ; 2 bytes @ 0x16
   682  0000F4                     	ds	2
   683  0000F6                     USBStdFeatureReqHandler@current_ep_data:
   684                           	opt callstack 0
   685                           
   686                           ; 1 bytes @ 0x18
   687  0000F6                     	ds	1
   688  0000F7                     USBStdFeatureReqHandler@p:
   689                           	opt callstack 0
   690                           
   691                           ; 2 bytes @ 0x19
   692  0000F7                     	ds	2
   693  0000F9                     
   694                           ; 1 bytes @ 0x1B
   695                           
   696                           	psect	cstackCOMRAM
   697  00002B                     __pcstackCOMRAM:
   698                           	opt callstack 0
   699  00002B                     ??i2_USBStdGetDscHandler:
   700  00002B                     ??i2_USBStdGetStatusHandler:
   701  00002B                     ??i2_USBCheckCDCRequest:
   702  00002B                     ?i2_USBTransferOnePacket:
   703                           	opt callstack 0
   704  00002B                     i2USBTransferOnePacket@dir:
   705                           	opt callstack 0
   706  00002B                     i2USBConfigureEndpoint@direction:
   707                           	opt callstack 0
   708  00002B                     i2USBCtrlTrfTxService@byteToSend:
   709                           	opt callstack 0
   710  00002B                     i2USBCtrlTrfRxService@i:
   711                           	opt callstack 0
   712  00002B                     i2memcpy@d1:
   713                           	opt callstack 0
   714  00002B                     i2memset@dest:
   715                           	opt callstack 0
   716                           
   717                           ; 2 bytes @ 0x0
   718  00002B                     	ds	1
   719  00002C                     ??i2_USBConfigureEndpoint:
   720  00002C                     i2USBCtrlTrfRxService@byteToRead:
   721                           	opt callstack 0
   722  00002C                     i2USBCtrlTrfInHandler@lastDTS:
   723                           	opt callstack 0
   724  00002C                     i2USBTransferOnePacket@data:
   725                           	opt callstack 0
   726                           
   727                           ; 2 bytes @ 0x1
   728  00002C                     	ds	1
   729  00002D                     i2USBStdGetStatusHandler@p:
   730                           	opt callstack 0
   731  00002D                     i2memcpy@s1:
   732                           	opt callstack 0
   733  00002D                     i2memset@c:
   734                           	opt callstack 0
   735                           
   736                           ; 2 bytes @ 0x2
   737  00002D                     	ds	1
   738  00002E                     i2USBTransferOnePacket@len:
   739                           	opt callstack 0
   740                           
   741                           ; 1 bytes @ 0x3
   742  00002E                     	ds	1
   743  00002F                     ??i2_USBTransferOnePacket:
   744  00002F                     i2memcpy@n:
   745                           	opt callstack 0
   746  00002F                     i2memset@n:
   747                           	opt callstack 0
   748                           
   749                           ; 2 bytes @ 0x4
   750  00002F                     	ds	1
   751  000030                     i2USBConfigureEndpoint@EPNum:
   752                           	opt callstack 0
   753                           
   754                           ; 1 bytes @ 0x5
   755  000030                     	ds	1
   756  000031                     ??i2_memset:
   757  000031                     i2USBConfigureEndpoint@handle:
   758                           	opt callstack 0
   759  000031                     i2memcpy@d:
   760                           	opt callstack 0
   761                           
   762                           ; 2 bytes @ 0x6
   763  000031                     	ds	2
   764  000033                     i2USBEnableEndpoint@options:
   765                           	opt callstack 0
   766  000033                     i2USBTransferOnePacket@ep:
   767                           	opt callstack 0
   768  000033                     i2memcpy@s:
   769                           	opt callstack 0
   770  000033                     i2memset@k:
   771                           	opt callstack 0
   772                           
   773                           ; 2 bytes @ 0x8
   774  000033                     	ds	1
   775  000034                     i2USBEnableEndpoint@p:
   776                           	opt callstack 0
   777  000034                     i2USBTransferOnePacket@handle:
   778                           	opt callstack 0
   779                           
   780                           ; 2 bytes @ 0x9
   781  000034                     	ds	1
   782  000035                     i2memcpy@tmp:
   783                           	opt callstack 0
   784  000035                     i2memset@s:
   785                           	opt callstack 0
   786                           
   787                           ; 2 bytes @ 0xA
   788  000035                     	ds	1
   789  000036                     i2USBEnableEndpoint@ep:
   790                           	opt callstack 0
   791                           
   792                           ; 1 bytes @ 0xB
   793  000036                     	ds	1
   794  000037                     i2USBDeviceInit@i:
   795                           	opt callstack 0
   796  000037                     i2USER_USB_CALLBACK_EVENT_HANDLER@event:
   797                           	opt callstack 0
   798                           
   799                           ; 2 bytes @ 0xC
   800  000037                     	ds	2
   801  000039                     i2USER_USB_CALLBACK_EVENT_HANDLER@pdata:
   802                           	opt callstack 0
   803                           
   804                           ; 2 bytes @ 0xE
   805  000039                     	ds	2
   806  00003B                     i2USER_USB_CALLBACK_EVENT_HANDLER@size:
   807                           	opt callstack 0
   808                           
   809                           ; 2 bytes @ 0x10
   810  00003B                     	ds	2
   811  00003D                     ??i2_USER_USB_CALLBACK_EVENT_HANDLER:
   812                           
   813                           ; 1 bytes @ 0x12
   814  00003D                     	ds	2
   815  00003F                     ??i2_USBStdFeatureReqHandler:
   816  00003F                     i2USBStdSetCfgHandler@i:
   817                           	opt callstack 0
   818                           
   819                           ; 1 bytes @ 0x14
   820  00003F                     	ds	2
   821  000041                     i2USBStdFeatureReqHandler@pUEP:
   822                           	opt callstack 0
   823                           
   824                           ; 2 bytes @ 0x16
   825  000041                     	ds	2
   826  000043                     i2USBStdFeatureReqHandler@current_ep_data:
   827                           	opt callstack 0
   828                           
   829                           ; 1 bytes @ 0x18
   830  000043                     	ds	1
   831  000044                     i2USBStdFeatureReqHandler@p:
   832                           	opt callstack 0
   833                           
   834                           ; 2 bytes @ 0x19
   835  000044                     	ds	2
   836  000046                     ??i2_USBCheckStdRequest:
   837                           
   838                           ; 1 bytes @ 0x1B
   839  000046                     	ds	2
   840  000048                     ??i2_USBCtrlEPService:
   841  000048                     
   842                           ; 1 bytes @ 0x1D
   843  000048                     	ds	1
   844  000049                     i2USBDeviceTasks@i:
   845                           	opt callstack 0
   846                           
   847                           ; 1 bytes @ 0x1E
   848  000049                     	ds	1
   849  00004A                     ??_mainISR:
   850                           
   851                           ; 1 bytes @ 0x1F
   852  00004A                     	ds	10
   853                           
   854 ;;
   855 ;;Main: autosize = 0, tempsize = 0, incstack = 0, save=0
   856 ;;
   857 ;; *************** function _main *****************
   858 ;; Defined at:
   859 ;;		line 14 in file "main.c"
   860 ;; Parameters:    Size  Location     Type
   861 ;;		None
   862 ;; Auto vars:     Size  Location     Type
   863 ;;		None
   864 ;; Return value:  Size  Location     Type
   865 ;;                  1    wreg      void 
   866 ;; Registers used:
   867 ;;		wreg, fsr1l, fsr1h, fsr2l, fsr2h, status,2, status,0, tblptrl, tblptrh, tblptru, prodl, prodh, cstack
   868 ;; Tracked objects:
   869 ;;		On entry : 0/0
   870 ;;		On exit  : 0/0
   871 ;;		Unchanged: 0/0
   872 ;; Data sizes:     COMRAM   BANK0   BANK1   BANK2   BANK3  BANK4h  BANK4l   BANK5   BANK6   BANK7
   873 ;;      Params:         0       0       0       0       0       0       0       0       0       0
   874 ;;      Locals:         0       0       0       0       0       0       0       0       0       0
   875 ;;      Temps:          0       0       0       0       0       0       0       0       0       0
   876 ;;      Totals:         0       0       0       0       0       0       0       0       0       0
   877 ;;Total ram usage:        0 bytes
   878 ;; Hardware stack levels required when called:   20
   879 ;; This function calls:
   880 ;;		_USBDeviceTasks
   881 ;;		_debounceDelay
   882 ;;		_initUSBLib
   883 ;;		_isUSBReady
   884 ;;		_sendFlap
   885 ;; This function is called by:
   886 ;;		Startup code after reset
   887 ;; This function uses a non-reentrant model
   888 ;;
   889                           
   890                           	psect	text0
   891  003D02                     __ptext0:
   892                           	opt callstack 0
   893  003D02                     _main:
   894                           	opt callstack 11
   895  003D02                     
   896                           ;main.c: 16:     TRISC = 0x00;
   897  003D02  0E00               	movlw	0
   898  003D04  6E94               	movwf	148,c	;volatile
   899                           
   900                           ;main.c: 17:     LATC = 0x00;
   901  003D06  0E00               	movlw	0
   902  003D08  6E8B               	movwf	139,c	;volatile
   903  003D0A                     
   904                           ;main.c: 18:     TRISDbits.TRISD0 = 1;
   905  003D0A  8095               	bsf	149,0,c	;volatile
   906  003D0C                     
   907                           ;main.c: 21:     initUSBLib();
   908  003D0C  EC93  F020         	call	_initUSBLib	;wreg free
   909  003D10                     l7322:
   910                           
   911                           ;main.c: 24:         USBDeviceTasks();
   912  003D10  ECB6  F007         	call	_USBDeviceTasks	;wreg free
   913  003D14                     
   914                           ;main.c: 27:         if (isUSBReady()) {
   915  003D14  ECD2  F01F         	call	_isUSBReady	;wreg free
   916  003D18  0900               	iorlw	0
   917  003D1A  B4D8               	btfsc	status,2,c
   918  003D1C  EF92  F01E         	goto	u6841
   919  003D20  EF94  F01E         	goto	u6840
   920  003D24                     u6841:
   921  003D24  EF88  F01E         	goto	l7322
   922  003D28                     u6840:
   923  003D28                     
   924                           ;main.c: 28:             if (PORTDbits.RD0) {
   925  003D28  A083               	btfss	131,0,c	;volatile
   926  003D2A  EF99  F01E         	goto	u6851
   927  003D2E  EF9B  F01E         	goto	u6850
   928  003D32                     u6851:
   929  003D32  EF88  F01E         	goto	l7322
   930  003D36                     u6850:
   931  003D36                     
   932                           ;main.c: 29:                 LATCbits.LATC0 = 1;
   933  003D36  808B               	bsf	139,0,c	;volatile
   934  003D38                     
   935                           ;main.c: 30:                 sendFlap();
   936  003D38  EC7E  F020         	call	_sendFlap	;wreg free
   937  003D3C                     
   938                           ;main.c: 31:                 debounceDelay();
   939  003D3C  ECC4  F01D         	call	_debounceDelay	;wreg free
   940  003D40                     l38:
   941  003D40  B083               	btfsc	131,0,c	;volatile
   942  003D42  EFA5  F01E         	goto	u6861
   943  003D46  EFA7  F01E         	goto	u6860
   944  003D4A                     u6861:
   945  003D4A  EFA0  F01E         	goto	l38
   946  003D4E                     u6860:
   947  003D4E                     
   948                           ;main.c: 33:                 LATCbits.LATC0 = 0;
   949  003D4E  908B               	bcf	139,0,c	;volatile
   950  003D50  EF88  F01E         	goto	l7322
   951  003D54  EF07  F000         	goto	start
   952  003D58                     __end_of_main:
   953                           	opt callstack 0
   954                           
   955 ;; *************** function _sendFlap *****************
   956 ;; Defined at:
   957 ;;		line 40 in file "main.c"
   958 ;; Parameters:    Size  Location     Type
   959 ;;		None
   960 ;; Auto vars:     Size  Location     Type
   961 ;;  msg             7   13[BANK0 ] unsigned char [7]
   962 ;; Return value:  Size  Location     Type
   963 ;;                  1    wreg      void 
   964 ;; Registers used:
   965 ;;		wreg, fsr1l, fsr1h, fsr2l, fsr2h, status,2, status,0, prodl, prodh, cstack
   966 ;; Tracked objects:
   967 ;;		On entry : 0/0
   968 ;;		On exit  : 0/0
   969 ;;		Unchanged: 0/0
   970 ;; Data sizes:     COMRAM   BANK0   BANK1   BANK2   BANK3  BANK4h  BANK4l   BANK5   BANK6   BANK7
   971 ;;      Params:         0       0       0       0       0       0       0       0       0       0
   972 ;;      Locals:         0       7       0       0       0       0       0       0       0       0
   973 ;;      Temps:          0       0       0       0       0       0       0       0       0       0
   974 ;;      Totals:         0       7       0       0       0       0       0       0       0       0
   975 ;;Total ram usage:        7 bytes
   976 ;; Hardware stack levels used:    1
   977 ;; Hardware stack levels required when called:   13
   978 ;; This function calls:
   979 ;;		_CDCTxService
   980 ;;		_putUSBUSART
   981 ;; This function is called by:
   982 ;;		_main
   983 ;; This function uses a non-reentrant model
   984 ;;
   985                           
   986                           	psect	text1
   987  0040FC                     __ptext1:
   988                           	opt callstack 0
   989  0040FC                     _sendFlap:
   990                           	opt callstack 17
   991  0040FC                     
   992                           ;main.c: 41:     char msg[] = "flap\r\n";
   993  0040FC  EE20  F0F9         	lfsr	2,sendFlap@F3956
   994  004100  EE10  F0EB         	lfsr	1,sendFlap@msg
   995  004104  0E06               	movlw	6
   996  004106                     u6811:
   997  004106  CFDB FFE3          	movff	plusw2,plusw1
   998  00410A  06E8               	decf	wreg,f,c
   999  00410C  E2FC               	bc	u6811
  1000  00410E                     
  1001                           ;main.c: 42:     putUSBUSART((uint8_t*)msg, sizeof(msg)-1);
  1002  00410E  0EEB               	movlw	low sendFlap@msg
  1003  004110  0100               	movlb	0	; () banked
  1004  004112  6FDE               	movwf	putUSBUSART@data& (0+255),b
  1005  004114  0E00               	movlw	high sendFlap@msg
  1006  004116  6FDF               	movwf	(putUSBUSART@data+1)& (0+255),b
  1007  004118  0E06               	movlw	6
  1008  00411A  6FE0               	movwf	putUSBUSART@length& (0+255),b
  1009  00411C  EC68  F020         	call	_putUSBUSART	;wreg free
  1010  004120                     
  1011                           ;main.c: 43:     CDCTxService();
  1012  004120  ECE2  F009         	call	_CDCTxService	;wreg free
  1013  004124  0012               	return		;funcret
  1014  004126                     __end_of_sendFlap:
  1015                           	opt callstack 0
  1016                           
  1017 ;; *************** function _putUSBUSART *****************
  1018 ;; Defined at:
  1019 ;;		line 556 in file "usb_device_cdc.c"
  1020 ;; Parameters:    Size  Location     Type
  1021 ;;  data            2    0[BANK0 ] PTR unsigned char 
  1022 ;;		 -> sendFlap@msg(7), 
  1023 ;;  length          1    2[BANK0 ] unsigned char 
  1024 ;; Auto vars:     Size  Location     Type
  1025 ;;		None
  1026 ;; Return value:  Size  Location     Type
  1027 ;;                  1    wreg      void 
  1028 ;; Registers used:
  1029 ;;		wreg, status,2, status,0
  1030 ;; Tracked objects:
  1031 ;;		On entry : 0/0
  1032 ;;		On exit  : 0/0
  1033 ;;		Unchanged: 0/0
  1034 ;; Data sizes:     COMRAM   BANK0   BANK1   BANK2   BANK3  BANK4h  BANK4l   BANK5   BANK6   BANK7
  1035 ;;      Params:         0       3       0       0       0       0       0       0       0       0
  1036 ;;      Locals:         0       0       0       0       0       0       0       0       0       0
  1037 ;;      Temps:          0       0       0       0       0       0       0       0       0       0
  1038 ;;      Totals:         0       3       0       0       0       0       0       0       0       0
  1039 ;;Total ram usage:        3 bytes
  1040 ;; Hardware stack levels used:    1
  1041 ;; Hardware stack levels required when called:   11
  1042 ;; This function calls:
  1043 ;;		Nothing
  1044 ;; This function is called by:
  1045 ;;		_sendFlap
  1046 ;; This function uses a non-reentrant model
  1047 ;;
  1048                           
  1049                           	psect	text2
  1050  0040D0                     __ptext2:
  1051                           	opt callstack 0
  1052  0040D0                     _putUSBUSART:
  1053                           	opt callstack 18
  1054  0040D0                     
  1055                           ;usb_device_cdc.c: 556: void putUSBUSART(uint8_t *data, uint8_t length);usb_device_cdc.c
      +                          : 557: {;usb_device_cdc.c: 581:     {PIE2bits.USBIE = 0;};
  1056  0040D0  9AA0               	bcf	160,5,c	;volatile
  1057  0040D2                     
  1058                           ;usb_device_cdc.c: 582:     if(cdc_trf_state == 0)
  1059  0040D2  501F               	movf	_cdc_trf_state^0,w,c
  1060  0040D4  A4D8               	btfss	status,2,c
  1061  0040D6  EF6F  F020         	goto	u6291
  1062  0040DA  EF71  F020         	goto	u6290
  1063  0040DE                     u6291:
  1064  0040DE  EF7C  F020         	goto	l6948
  1065  0040E2                     u6290:
  1066  0040E2                     
  1067                           ;usb_device_cdc.c: 583:     {;usb_device_cdc.c: 584:         { pCDCSrc.bRam = (uint8_t*)
      +                          data; cdc_tx_len = length; cdc_mem_type = 0x01; cdc_trf_state = 1; };
  1068  0040E2  C0DE  F0BB         	movff	putUSBUSART@data,_pCDCSrc
  1069  0040E6  C0DF  F0BC         	movff	putUSBUSART@data+1,_pCDCSrc+1
  1070  0040EA  C0E0  F0C6         	movff	putUSBUSART@length,_cdc_tx_len
  1071  0040EE  0E01               	movlw	1
  1072  0040F0  0100               	movlb	0	; () banked
  1073  0040F2  6FC5               	movwf	_cdc_mem_type& (0+255),b
  1074  0040F4                     
  1075                           ; BSR set to: 0
  1076  0040F4  0E01               	movlw	1
  1077  0040F6  6E1F               	movwf	_cdc_trf_state^0,c
  1078  0040F8                     l6948:
  1079                           
  1080                           ;usb_device_cdc.c: 586:     {PIE2bits.USBIE = 1;};
  1081  0040F8  8AA0               	bsf	160,5,c	;volatile
  1082  0040FA  0012               	return		;funcret
  1083  0040FC                     __end_of_putUSBUSART:
  1084                           	opt callstack 0
  1085                           
  1086 ;; *************** function _CDCTxService *****************
  1087 ;; Defined at:
  1088 ;;		line 836 in file "usb_device_cdc.c"
  1089 ;; Parameters:    Size  Location     Type
  1090 ;;		None
  1091 ;; Auto vars:     Size  Location     Type
  1092 ;;  byte_to_send    1   12[BANK0 ] unsigned char 
  1093 ;;  i               1   11[BANK0 ] unsigned char 
  1094 ;; Return value:  Size  Location     Type
  1095 ;;                  1    wreg      void 
  1096 ;; Registers used:
  1097 ;;		wreg, fsr1l, fsr1h, fsr2l, fsr2h, status,2, status,0, prodl, prodh, cstack
  1098 ;; Tracked objects:
  1099 ;;		On entry : 0/0
  1100 ;;		On exit  : 0/0
  1101 ;;		Unchanged: 0/0
  1102 ;; Data sizes:     COMRAM   BANK0   BANK1   BANK2   BANK3  BANK4h  BANK4l   BANK5   BANK6   BANK7
  1103 ;;      Params:         0       0       0       0       0       0       0       0       0       0
  1104 ;;      Locals:         0       2       0       0       0       0       0       0       0       0
  1105 ;;      Temps:          0       0       0       0       0       0       0       0       0       0
  1106 ;;      Totals:         0       2       0       0       0       0       0       0       0       0
  1107 ;;Total ram usage:        2 bytes
  1108 ;; Hardware stack levels used:    1
  1109 ;; Hardware stack levels required when called:   12
  1110 ;; This function calls:
  1111 ;;		_USBTransferOnePacket
  1112 ;; This function is called by:
  1113 ;;		_sendFlap
  1114 ;; This function uses a non-reentrant model
  1115 ;;
  1116                           
  1117                           	psect	text3
  1118  0013C4                     __ptext3:
  1119                           	opt callstack 0
  1120  0013C4                     _CDCTxService:
  1121                           	opt callstack 17
  1122  0013C4                     
  1123                           ;usb_device_cdc.c: 838:     uint8_t byte_to_send;;usb_device_cdc.c: 839:     uint8_t i;;
      +                          usb_device_cdc.c: 841:     {PIE2bits.USBIE = 0;};
  1124  0013C4  9AA0               	bcf	160,5,c	;volatile
  1125  0013C6                     
  1126                           ;usb_device_cdc.c: 843:     {};;usb_device_cdc.c: 845:     if(((CDCDataInHandle != 0x000
      +                          0) && ((*(volatile uint8_t*)CDCDataInHandle & 0x80) != 0x00)))
  1127  0013C6  0100               	movlb	0	; () banked
  1128  0013C8  51BE               	movf	_CDCDataInHandle& (0+255),w,b
  1129  0013CA  11BF               	iorwf	(_CDCDataInHandle+1)& (0+255),w,b
  1130  0013CC  B4D8               	btfsc	status,2,c
  1131  0013CE  EFEB  F009         	goto	u6301
  1132  0013D2  EFED  F009         	goto	u6300
  1133  0013D6                     u6301:
  1134  0013D6  EFFB  F009         	goto	l6958
  1135  0013DA                     u6300:
  1136  0013DA                     
  1137                           ; BSR set to: 0
  1138  0013DA  C0BE  FFD9         	movff	_CDCDataInHandle,fsr2l
  1139  0013DE  C0BF  FFDA         	movff	_CDCDataInHandle+1,fsr2h
  1140  0013E2  AEDF               	btfss	indf2,7,c
  1141  0013E4  EFF6  F009         	goto	u6311
  1142  0013E8  EFF8  F009         	goto	u6310
  1143  0013EC                     u6311:
  1144  0013EC  EFFB  F009         	goto	l6958
  1145  0013F0                     u6310:
  1146  0013F0                     
  1147                           ; BSR set to: 0
  1148                           ;usb_device_cdc.c: 846:     {;usb_device_cdc.c: 847:         {PIE2bits.USBIE = 1;};
  1149  0013F0  8AA0               	bsf	160,5,c	;volatile
  1150                           
  1151                           ;usb_device_cdc.c: 848:         return;
  1152  0013F2  EFAD  F00A         	goto	l599
  1153  0013F6                     l6958:
  1154                           
  1155                           ; BSR set to: 0
  1156                           ;usb_device_cdc.c: 856:     if(cdc_trf_state == 3)
  1157  0013F6  0E03               	movlw	3
  1158  0013F8  181F               	xorwf	_cdc_trf_state^0,w,c
  1159  0013FA  A4D8               	btfss	status,2,c
  1160  0013FC  EF02  F00A         	goto	u6321
  1161  001400  EF04  F00A         	goto	u6320
  1162  001404                     u6321:
  1163  001404  EF06  F00A         	goto	l600
  1164  001408                     u6320:
  1165  001408                     
  1166                           ; BSR set to: 0
  1167                           ;usb_device_cdc.c: 857:         cdc_trf_state = 0;
  1168  001408  0E00               	movlw	0
  1169  00140A  6E1F               	movwf	_cdc_trf_state^0,c
  1170  00140C                     l600:
  1171                           
  1172                           ; BSR set to: 0
  1173                           ;usb_device_cdc.c: 862:     if(cdc_trf_state == 0)
  1174  00140C  501F               	movf	_cdc_trf_state^0,w,c
  1175  00140E  A4D8               	btfss	status,2,c
  1176  001410  EF0C  F00A         	goto	u6331
  1177  001414  EF0E  F00A         	goto	u6330
  1178  001418                     u6331:
  1179  001418  EF11  F00A         	goto	l6964
  1180  00141C                     u6330:
  1181  00141C                     
  1182                           ; BSR set to: 0
  1183                           ;usb_device_cdc.c: 863:     {;usb_device_cdc.c: 864:         {PIE2bits.USBIE = 1;};
  1184  00141C  8AA0               	bsf	160,5,c	;volatile
  1185                           
  1186                           ;usb_device_cdc.c: 865:         return;
  1187  00141E  EFAD  F00A         	goto	l599
  1188  001422                     l6964:
  1189                           
  1190                           ; BSR set to: 0
  1191                           ;usb_device_cdc.c: 871:     if(cdc_trf_state == 2)
  1192  001422  0E02               	movlw	2
  1193  001424  181F               	xorwf	_cdc_trf_state^0,w,c
  1194  001426  A4D8               	btfss	status,2,c
  1195  001428  EF18  F00A         	goto	u6341
  1196  00142C  EF1A  F00A         	goto	u6340
  1197  001430                     u6341:
  1198  001430  EF2D  F00A         	goto	l6970
  1199  001434                     u6340:
  1200  001434                     
  1201                           ; BSR set to: 0
  1202                           ;usb_device_cdc.c: 872:     {;usb_device_cdc.c: 873:         CDCDataInHandle = USBTransf
      +                          erOnePacket(2,1,((void*)0),0);
  1203  001434  0E01               	movlw	1
  1204  001436  6FDE               	movwf	USBTransferOnePacket@dir& (0+255),b
  1205  001438  0E00               	movlw	0
  1206  00143A  6FDF               	movwf	USBTransferOnePacket@data& (0+255),b
  1207  00143C  0E00               	movlw	0
  1208  00143E  6FE0               	movwf	(USBTransferOnePacket@data+1)& (0+255),b
  1209  001440  0E00               	movlw	0
  1210  001442  6FE1               	movwf	USBTransferOnePacket@len& (0+255),b
  1211  001444  0E02               	movlw	2
  1212  001446  EC1A  F010         	call	_USBTransferOnePacket
  1213  00144A  C0DE  F0BE         	movff	?_USBTransferOnePacket,_CDCDataInHandle
  1214  00144E  C0DF  F0BF         	movff	?_USBTransferOnePacket+1,_CDCDataInHandle+1
  1215  001452                     
  1216                           ;usb_device_cdc.c: 875:         cdc_trf_state = 3;
  1217  001452  0E03               	movlw	3
  1218  001454  6E1F               	movwf	_cdc_trf_state^0,c
  1219                           
  1220                           ;usb_device_cdc.c: 876:     }
  1221  001456  EFAC  F00A         	goto	l7014
  1222  00145A                     l6970:
  1223                           
  1224                           ; BSR set to: 0
  1225  00145A  041F               	decf	_cdc_trf_state^0,w,c
  1226  00145C  A4D8               	btfss	status,2,c
  1227  00145E  EF33  F00A         	goto	u6351
  1228  001462  EF35  F00A         	goto	u6350
  1229  001466                     u6351:
  1230  001466  EFAC  F00A         	goto	l7014
  1231  00146A                     u6350:
  1232  00146A                     
  1233                           ; BSR set to: 0
  1234                           ;usb_device_cdc.c: 878:     {;usb_device_cdc.c: 882:      if(cdc_tx_len > sizeof(cdc_dat
      +                          a_tx))
  1235  00146A  0E40               	movlw	64
  1236  00146C  65C6               	cpfsgt	_cdc_tx_len& (0+255),b
  1237  00146E  EF3B  F00A         	goto	u6361
  1238  001472  EF3D  F00A         	goto	u6360
  1239  001476                     u6361:
  1240  001476  EF41  F00A         	goto	l605
  1241  00147A                     u6360:
  1242  00147A                     
  1243                           ; BSR set to: 0
  1244                           ;usb_device_cdc.c: 883:          byte_to_send = sizeof(cdc_data_tx);
  1245  00147A  0E40               	movlw	64
  1246  00147C  6FEA               	movwf	CDCTxService@byte_to_send& (0+255),b
  1247  00147E  EF43  F00A         	goto	l6976
  1248  001482                     l605:
  1249                           
  1250                           ; BSR set to: 0
  1251                           ;usb_device_cdc.c: 885:          byte_to_send = cdc_tx_len;
  1252  001482  C0C6  F0EA         	movff	_cdc_tx_len,CDCTxService@byte_to_send
  1253  001486                     l6976:
  1254                           
  1255                           ; BSR set to: 0
  1256                           ;usb_device_cdc.c: 890:      cdc_tx_len = cdc_tx_len - byte_to_send;
  1257  001486  51EA               	movf	CDCTxService@byte_to_send& (0+255),w,b
  1258  001488  5DC6               	subwf	_cdc_tx_len& (0+255),w,b
  1259  00148A  6FC6               	movwf	_cdc_tx_len& (0+255),b
  1260                           
  1261                           ;usb_device_cdc.c: 892:         pCDCDst.bRam = (uint8_t*)&cdc_data_tx;
  1262  00148C  0E00               	movlw	0
  1263  00148E  6FB8               	movwf	_pCDCDst& (0+255),b
  1264  001490  0E05               	movlw	5
  1265  001492  6FB9               	movwf	(_pCDCDst+1)& (0+255),b
  1266  001494                     
  1267                           ; BSR set to: 0
  1268                           ;usb_device_cdc.c: 894:         i = byte_to_send;
  1269  001494  C0EA  F0E9         	movff	CDCTxService@byte_to_send,CDCTxService@i
  1270  001498                     
  1271                           ; BSR set to: 0
  1272                           ;usb_device_cdc.c: 895:         if(cdc_mem_type == 0x00)
  1273  001498  51C5               	movf	_cdc_mem_type& (0+255),w,b
  1274  00149A  A4D8               	btfss	status,2,c
  1275  00149C  EF52  F00A         	goto	u6371
  1276  0014A0  EF54  F00A         	goto	u6370
  1277  0014A4                     u6371:
  1278  0014A4  EF7E  F00A         	goto	l7002
  1279  0014A8                     u6370:
  1280  0014A8  EF65  F00A         	goto	l6992
  1281  0014AC                     l6984:
  1282                           
  1283                           ; BSR set to: 0
  1284                           ;usb_device_cdc.c: 898:             {;usb_device_cdc.c: 899:                 *pCDCDst.bR
      +                          am = *pCDCSrc.bRom;
  1285  0014AC  C0BB  FFD9         	movff	_pCDCSrc,fsr2l
  1286  0014B0  C0BC  FFDA         	movff	_pCDCSrc+1,fsr2h
  1287  0014B4  C0B8  FFE1         	movff	_pCDCDst,fsr1l
  1288  0014B8  C0B9  FFE2         	movff	_pCDCDst+1,fsr1h
  1289  0014BC  CFDF FFE7          	movff	indf2,indf1
  1290  0014C0                     
  1291                           ; BSR set to: 0
  1292                           ;usb_device_cdc.c: 900:                 pCDCDst.bRam++;
  1293  0014C0  4BB8               	infsnz	_pCDCDst& (0+255),f,b
  1294  0014C2  2BB9               	incf	(_pCDCDst+1)& (0+255),f,b
  1295  0014C4                     
  1296                           ; BSR set to: 0
  1297                           ;usb_device_cdc.c: 901:                 pCDCSrc.bRom++;
  1298  0014C4  4BBB               	infsnz	_pCDCSrc& (0+255),f,b
  1299  0014C6  2BBC               	incf	(_pCDCSrc+1)& (0+255),f,b
  1300  0014C8                     
  1301                           ; BSR set to: 0
  1302                           ;usb_device_cdc.c: 902:                 i--;
  1303  0014C8  07E9               	decf	CDCTxService@i& (0+255),f,b
  1304  0014CA                     l6992:
  1305                           
  1306                           ; BSR set to: 0
  1307                           ;usb_device_cdc.c: 897:             while(i)
  1308  0014CA  51E9               	movf	CDCTxService@i& (0+255),w,b
  1309  0014CC  A4D8               	btfss	status,2,c
  1310  0014CE  EF6B  F00A         	goto	u6381
  1311  0014D2  EF6D  F00A         	goto	u6380
  1312  0014D6                     u6381:
  1313  0014D6  EF56  F00A         	goto	l6984
  1314  0014DA                     u6380:
  1315  0014DA  EF86  F00A         	goto	l7004
  1316  0014DE                     l6994:
  1317                           
  1318                           ; BSR set to: 0
  1319                           ;usb_device_cdc.c: 908:             {;usb_device_cdc.c: 909:                 *pCDCDst.bR
      +                          am = *pCDCSrc.bRam;
  1320  0014DE  C0BB  FFD9         	movff	_pCDCSrc,fsr2l
  1321  0014E2  C0BC  FFDA         	movff	_pCDCSrc+1,fsr2h
  1322  0014E6  C0B8  FFE1         	movff	_pCDCDst,fsr1l
  1323  0014EA  C0B9  FFE2         	movff	_pCDCDst+1,fsr1h
  1324  0014EE  CFDF FFE7          	movff	indf2,indf1
  1325  0014F2                     
  1326                           ; BSR set to: 0
  1327                           ;usb_device_cdc.c: 910:                 pCDCDst.bRam++;
  1328  0014F2  4BB8               	infsnz	_pCDCDst& (0+255),f,b
  1329  0014F4  2BB9               	incf	(_pCDCDst+1)& (0+255),f,b
  1330  0014F6                     
  1331                           ; BSR set to: 0
  1332                           ;usb_device_cdc.c: 911:                 pCDCSrc.bRam++;
  1333  0014F6  4BBB               	infsnz	_pCDCSrc& (0+255),f,b
  1334  0014F8  2BBC               	incf	(_pCDCSrc+1)& (0+255),f,b
  1335  0014FA                     
  1336                           ; BSR set to: 0
  1337                           ;usb_device_cdc.c: 912:                 i--;
  1338  0014FA  07E9               	decf	CDCTxService@i& (0+255),f,b
  1339  0014FC                     l7002:
  1340                           
  1341                           ; BSR set to: 0
  1342                           ;usb_device_cdc.c: 907:             while(i)
  1343  0014FC  51E9               	movf	CDCTxService@i& (0+255),w,b
  1344  0014FE  A4D8               	btfss	status,2,c
  1345  001500  EF84  F00A         	goto	u6391
  1346  001504  EF86  F00A         	goto	u6390
  1347  001508                     u6391:
  1348  001508  EF6F  F00A         	goto	l6994
  1349  00150C                     u6390:
  1350  00150C                     l7004:
  1351                           
  1352                           ; BSR set to: 0
  1353                           ;usb_device_cdc.c: 920:         if(cdc_tx_len == 0)
  1354  00150C  51C6               	movf	_cdc_tx_len& (0+255),w,b
  1355  00150E  A4D8               	btfss	status,2,c
  1356  001510  EF8C  F00A         	goto	u6401
  1357  001514  EF8E  F00A         	goto	u6400
  1358  001518                     u6401:
  1359  001518  EF9D  F00A         	goto	l7012
  1360  00151C                     u6400:
  1361  00151C                     
  1362                           ; BSR set to: 0
  1363                           ;usb_device_cdc.c: 921:         {;usb_device_cdc.c: 922:             if(byte_to_send == 
      +                          64)
  1364  00151C  0E40               	movlw	64
  1365  00151E  19EA               	xorwf	CDCTxService@byte_to_send& (0+255),w,b
  1366  001520  A4D8               	btfss	status,2,c
  1367  001522  EF95  F00A         	goto	u6411
  1368  001526  EF97  F00A         	goto	u6410
  1369  00152A                     u6411:
  1370  00152A  EF9B  F00A         	goto	l7010
  1371  00152E                     u6410:
  1372  00152E                     
  1373                           ; BSR set to: 0
  1374                           ;usb_device_cdc.c: 923:                 cdc_trf_state = 2;
  1375  00152E  0E02               	movlw	2
  1376  001530  6E1F               	movwf	_cdc_trf_state^0,c
  1377  001532  EF9D  F00A         	goto	l7012
  1378  001536                     l7010:
  1379                           
  1380                           ; BSR set to: 0
  1381                           ;usb_device_cdc.c: 925:                 cdc_trf_state = 3;
  1382  001536  0E03               	movlw	3
  1383  001538  6E1F               	movwf	_cdc_trf_state^0,c
  1384  00153A                     l7012:
  1385                           
  1386                           ; BSR set to: 0
  1387                           ;usb_device_cdc.c: 927:         CDCDataInHandle = USBTransferOnePacket(2,1,(uint8_t*)&cd
      +                          c_data_tx,byte_to_send);
  1388  00153A  0E01               	movlw	1
  1389  00153C  6FDE               	movwf	USBTransferOnePacket@dir& (0+255),b
  1390  00153E  0E00               	movlw	0
  1391  001540  6FDF               	movwf	USBTransferOnePacket@data& (0+255),b
  1392  001542  0E05               	movlw	5
  1393  001544  6FE0               	movwf	(USBTransferOnePacket@data+1)& (0+255),b
  1394  001546  C0EA  F0E1         	movff	CDCTxService@byte_to_send,USBTransferOnePacket@len
  1395  00154A  0E02               	movlw	2
  1396  00154C  EC1A  F010         	call	_USBTransferOnePacket
  1397  001550  C0DE  F0BE         	movff	?_USBTransferOnePacket,_CDCDataInHandle
  1398  001554  C0DF  F0BF         	movff	?_USBTransferOnePacket+1,_CDCDataInHandle+1
  1399  001558                     l7014:
  1400                           
  1401                           ;usb_device_cdc.c: 931:     {PIE2bits.USBIE = 1;};
  1402  001558  8AA0               	bsf	160,5,c	;volatile
  1403  00155A                     l599:
  1404  00155A  0012               	return		;funcret
  1405  00155C                     __end_of_CDCTxService:
  1406                           	opt callstack 0
  1407                           
  1408 ;; *************** function _isUSBReady *****************
  1409 ;; Defined at:
  1410 ;;		line 31 in file "usb_cdc_lib.c"
  1411 ;; Parameters:    Size  Location     Type
  1412 ;;		None
  1413 ;; Auto vars:     Size  Location     Type
  1414 ;;		None
  1415 ;; Return value:  Size  Location     Type
  1416 ;;                  1    wreg      unsigned char 
  1417 ;; Registers used:
  1418 ;;		wreg, status,2, status,0
  1419 ;; Tracked objects:
  1420 ;;		On entry : 0/0
  1421 ;;		On exit  : 0/0
  1422 ;;		Unchanged: 0/0
  1423 ;; Data sizes:     COMRAM   BANK0   BANK1   BANK2   BANK3  BANK4h  BANK4l   BANK5   BANK6   BANK7
  1424 ;;      Params:         0       0       0       0       0       0       0       0       0       0
  1425 ;;      Locals:         0       2       0       0       0       0       0       0       0       0
  1426 ;;      Temps:          0       0       0       0       0       0       0       0       0       0
  1427 ;;      Totals:         0       2       0       0       0       0       0       0       0       0
  1428 ;;Total ram usage:        2 bytes
  1429 ;; Hardware stack levels used:    1
  1430 ;; Hardware stack levels required when called:   11
  1431 ;; This function calls:
  1432 ;;		Nothing
  1433 ;; This function is called by:
  1434 ;;		_main
  1435 ;; This function uses a non-reentrant model
  1436 ;;
  1437                           
  1438                           	psect	text4
  1439  003FA4                     __ptext4:
  1440                           	opt callstack 0
  1441  003FA4                     _isUSBReady:
  1442                           	opt callstack 19
  1443  003FA4                     
  1444                           ;usb_cdc_lib.c: 33:     return ((USBDeviceState < CONFIGURED_STATE) || (UCONbits.SUSPND 
      +                          == 1)) ? 0x00 : 0xFF;
  1445  003FA4  0E1F               	movlw	31
  1446  003FA6  6429               	cpfsgt	_USBDeviceState^0,c	;volatile
  1447  003FA8  EFD8  F01F         	goto	u6791
  1448  003FAC  EFDA  F01F         	goto	u6790
  1449  003FB0                     u6791:
  1450  003FB0  EFE7  F01F         	goto	l7286
  1451  003FB4                     u6790:
  1452  003FB4  B26D               	btfsc	109,1,c	;volatile
  1453  003FB6  EFDF  F01F         	goto	u6801
  1454  003FBA  EFE1  F01F         	goto	u6800
  1455  003FBE                     u6801:
  1456  003FBE  EFE7  F01F         	goto	l7286
  1457  003FC2                     u6800:
  1458  003FC2  0E00               	movlw	0
  1459  003FC4  0100               	movlb	0	; () banked
  1460  003FC6  6FDF               	movwf	(_isUSBReady$397+1)& (0+255),b
  1461  003FC8  69DE               	setf	_isUSBReady$397& (0+255),b
  1462  003FCA  EFEC  F01F         	goto	l90
  1463  003FCE                     l7286:
  1464  003FCE  0E00               	movlw	0
  1465  003FD0  0100               	movlb	0	; () banked
  1466  003FD2  6FDF               	movwf	(_isUSBReady$397+1)& (0+255),b
  1467  003FD4  0E00               	movlw	0
  1468  003FD6  6FDE               	movwf	_isUSBReady$397& (0+255),b
  1469  003FD8                     l90:
  1470                           
  1471                           ; BSR set to: 0
  1472  003FD8  51DE               	movf	_isUSBReady$397& (0+255),w,b
  1473  003FDA                     
  1474                           ; BSR set to: 0
  1475  003FDA  0012               	return		;funcret
  1476  003FDC                     __end_of_isUSBReady:
  1477                           	opt callstack 0
  1478                           
  1479 ;; *************** function _initUSBLib *****************
  1480 ;; Defined at:
  1481 ;;		line 10 in file "usb_cdc_lib.c"
  1482 ;; Parameters:    Size  Location     Type
  1483 ;;		None
  1484 ;; Auto vars:     Size  Location     Type
  1485 ;;		None
  1486 ;; Return value:  Size  Location     Type
  1487 ;;                  1    wreg      void 
  1488 ;; Registers used:
  1489 ;;		wreg, fsr2l, fsr2h, status,2, status,0, prodl, prodh, cstack
  1490 ;; Tracked objects:
  1491 ;;		On entry : 0/0
  1492 ;;		On exit  : 0/0
  1493 ;;		Unchanged: 0/0
  1494 ;; Data sizes:     COMRAM   BANK0   BANK1   BANK2   BANK3  BANK4h  BANK4l   BANK5   BANK6   BANK7
  1495 ;;      Params:         0       0       0       0       0       0       0       0       0       0
  1496 ;;      Locals:         0       0       0       0       0       0       0       0       0       0
  1497 ;;      Temps:          0       0       0       0       0       0       0       0       0       0
  1498 ;;      Totals:         0       0       0       0       0       0       0       0       0       0
  1499 ;;Total ram usage:        0 bytes
  1500 ;; Hardware stack levels used:    1
  1501 ;; Hardware stack levels required when called:   13
  1502 ;; This function calls:
  1503 ;;		_USBDeviceAttach
  1504 ;;		_USBDeviceInit
  1505 ;; This function is called by:
  1506 ;;		_main
  1507 ;; This function uses a non-reentrant model
  1508 ;;
  1509                           
  1510                           	psect	text5
  1511  004126                     __ptext5:
  1512                           	opt callstack 0
  1513  004126                     _initUSBLib:
  1514                           	opt callstack 17
  1515  004126                     
  1516                           ;usb_cdc_lib.c: 13:     INTCONbits.GIE = 1;
  1517  004126  8EF2               	bsf	242,7,c	;volatile
  1518                           
  1519                           ;usb_cdc_lib.c: 14:     INTCONbits.PEIE = 1;
  1520  004128  8CF2               	bsf	242,6,c	;volatile
  1521  00412A                     
  1522                           ;usb_cdc_lib.c: 16:     USBDeviceInit();
  1523  00412A  EC8B  F00D         	call	_USBDeviceInit	;wreg free
  1524  00412E                     
  1525                           ;usb_cdc_lib.c: 17:     USBDeviceAttach();
  1526  00412E  EC70  F01F         	call	_USBDeviceAttach	;wreg free
  1527  004132  0012               	return		;funcret
  1528  004134                     __end_of_initUSBLib:
  1529                           	opt callstack 0
  1530                           
  1531 ;; *************** function _USBDeviceAttach *****************
  1532 ;; Defined at:
  1533 ;;		line 1358 in file "usb_device.c"
  1534 ;; Parameters:    Size  Location     Type
  1535 ;;		None
  1536 ;; Auto vars:     Size  Location     Type
  1537 ;;		None
  1538 ;; Return value:  Size  Location     Type
  1539 ;;                  1    wreg      void 
  1540 ;; Registers used:
  1541 ;;		wreg, status,2
  1542 ;; Tracked objects:
  1543 ;;		On entry : 0/0
  1544 ;;		On exit  : 0/0
  1545 ;;		Unchanged: 0/0
  1546 ;; Data sizes:     COMRAM   BANK0   BANK1   BANK2   BANK3  BANK4h  BANK4l   BANK5   BANK6   BANK7
  1547 ;;      Params:         0       0       0       0       0       0       0       0       0       0
  1548 ;;      Locals:         0       0       0       0       0       0       0       0       0       0
  1549 ;;      Temps:          0       0       0       0       0       0       0       0       0       0
  1550 ;;      Totals:         0       0       0       0       0       0       0       0       0       0
  1551 ;;Total ram usage:        0 bytes
  1552 ;; Hardware stack levels used:    1
  1553 ;; Hardware stack levels required when called:   11
  1554 ;; This function calls:
  1555 ;;		Nothing
  1556 ;; This function is called by:
  1557 ;;		_initUSBLib
  1558 ;; This function uses a non-reentrant model
  1559 ;;
  1560                           
  1561                           	psect	text6
  1562  003EE0                     __ptext6:
  1563                           	opt callstack 0
  1564  003EE0                     _USBDeviceAttach:
  1565                           	opt callstack 18
  1566  003EE0                     
  1567                           ;usb_device.c: 1362:     {;usb_device.c: 1363:         if(1 == 1)
  1568  003EE0  5029               	movf	_USBDeviceState^0,w,c	;volatile
  1569  003EE2  A4D8               	btfss	status,2,c
  1570  003EE4  EF76  F01F         	goto	u6451
  1571  003EE8  EF78  F01F         	goto	u6450
  1572  003EEC                     u6451:
  1573  003EEC  EF90  F01F         	goto	l304
  1574  003EF0                     u6450:
  1575  003EF0                     
  1576                           ;usb_device.c: 1364:         {;usb_device.c: 1366:             UCON = 0;
  1577  003EF0  0E00               	movlw	0
  1578  003EF2  6E6D               	movwf	109,c	;volatile
  1579                           
  1580                           ;usb_device.c: 1369:             UIE = 0;
  1581  003EF4  0E00               	movlw	0
  1582  003EF6  6E69               	movwf	105,c	;volatile
  1583                           
  1584                           ;usb_device.c: 1373:             { UCFG = 0x10 | 0x00 | 0x04 | 0x02; UEIE = 0x9F; UIE = 
      +                          0x39 | 0x40 | 0x02; };
  1585  003EF8  0E16               	movlw	22
  1586  003EFA  6E6F               	movwf	111,c	;volatile
  1587  003EFC  0E9F               	movlw	159
  1588  003EFE  6E6B               	movwf	107,c	;volatile
  1589  003F00  0E7B               	movlw	123
  1590  003F02  6E69               	movwf	105,c	;volatile
  1591  003F04                     
  1592                           ;usb_device.c: 1375:             {IPR2bits.USBIP = 1;PIE2bits.USBIE = 1;};
  1593  003F04  8AA2               	bsf	162,5,c	;volatile
  1594  003F06  8AA0               	bsf	160,5,c	;volatile
  1595                           
  1596                           ;usb_device.c: 1378:             while(!UCONbits.USBEN){UCONbits.USBEN = 1;}
  1597  003F08  EF87  F01F         	goto	l301
  1598  003F0C                     l302:
  1599  003F0C  866D               	bsf	109,3,c	;volatile
  1600  003F0E                     l301:
  1601  003F0E  A66D               	btfss	109,3,c	;volatile
  1602  003F10  EF8C  F01F         	goto	u6461
  1603  003F14  EF8E  F01F         	goto	u6460
  1604  003F18                     u6461:
  1605  003F18  EF86  F01F         	goto	l302
  1606  003F1C                     u6460:
  1607  003F1C                     
  1608                           ;usb_device.c: 1381:             USBDeviceState = ATTACHED_STATE;
  1609  003F1C  0E01               	movlw	1
  1610  003F1E  6E29               	movwf	_USBDeviceState^0,c	;volatile
  1611  003F20                     l304:
  1612  003F20  0012               	return		;funcret
  1613  003F22                     __end_of_USBDeviceAttach:
  1614                           	opt callstack 0
  1615                           
  1616 ;; *************** function _debounceDelay *****************
  1617 ;; Defined at:
  1618 ;;		line 47 in file "main.c"
  1619 ;; Parameters:    Size  Location     Type
  1620 ;;		None
  1621 ;; Auto vars:     Size  Location     Type
  1622 ;;  j               2    2[BANK0 ] volatile int 
  1623 ;;  i               2    0[BANK0 ] volatile int 
  1624 ;; Return value:  Size  Location     Type
  1625 ;;                  1    wreg      void 
  1626 ;; Registers used:
  1627 ;;		wreg, status,2, status,0
  1628 ;; Tracked objects:
  1629 ;;		On entry : 0/0
  1630 ;;		On exit  : 0/0
  1631 ;;		Unchanged: 0/0
  1632 ;; Data sizes:     COMRAM   BANK0   BANK1   BANK2   BANK3  BANK4h  BANK4l   BANK5   BANK6   BANK7
  1633 ;;      Params:         0       0       0       0       0       0       0       0       0       0
  1634 ;;      Locals:         0       4       0       0       0       0       0       0       0       0
  1635 ;;      Temps:          0       0       0       0       0       0       0       0       0       0
  1636 ;;      Totals:         0       4       0       0       0       0       0       0       0       0
  1637 ;;Total ram usage:        4 bytes
  1638 ;; Hardware stack levels used:    1
  1639 ;; Hardware stack levels required when called:   11
  1640 ;; This function calls:
  1641 ;;		Nothing
  1642 ;; This function is called by:
  1643 ;;		_main
  1644 ;; This function uses a non-reentrant model
  1645 ;;
  1646                           
  1647                           	psect	text7
  1648  003B88                     __ptext7:
  1649                           	opt callstack 0
  1650  003B88                     _debounceDelay:
  1651                           	opt callstack 19
  1652  003B88                     
  1653                           ;main.c: 48:     for (volatile int i=0; i<255; i++)
  1654  003B88  0E00               	movlw	0
  1655  003B8A  0100               	movlb	0	; () banked
  1656  003B8C  6FDF               	movwf	(debounceDelay@i+1)& (0+255),b	;volatile
  1657  003B8E  0E00               	movlw	0
  1658  003B90  6FDE               	movwf	debounceDelay@i& (0+255),b	;volatile
  1659  003B92                     l7298:
  1660                           
  1661                           ; BSR set to: 0
  1662  003B92  BFDF               	btfsc	(debounceDelay@i+1)& (0+255),7,b	;volatile
  1663  003B94  EFD4  F01D         	goto	u6821
  1664  003B98  51DF               	movf	(debounceDelay@i+1)& (0+255),w,b	;volatile
  1665  003B9A  E108               	bnz	u6820
  1666  003B9C  29DE               	incf	debounceDelay@i& (0+255),w,b	;volatile
  1667  003B9E  A0D8               	btfss	status,0,c
  1668  003BA0  EFD4  F01D         	goto	u6821
  1669  003BA4  EFD6  F01D         	goto	u6820
  1670  003BA8                     u6821:
  1671  003BA8  EFD8  F01D         	goto	l7302
  1672  003BAC                     u6820:
  1673  003BAC  EFF3  F01D         	goto	l55
  1674  003BB0                     l7302:
  1675                           
  1676                           ; BSR set to: 0
  1677                           ;main.c: 49:         for (volatile int j=0; j<255; j++);
  1678  003BB0  0E00               	movlw	0
  1679  003BB2  6FE1               	movwf	(debounceDelay@j+1)& (0+255),b	;volatile
  1680  003BB4  0E00               	movlw	0
  1681  003BB6  6FE0               	movwf	debounceDelay@j& (0+255),b	;volatile
  1682  003BB8                     l7304:
  1683                           
  1684                           ; BSR set to: 0
  1685  003BB8  BFE1               	btfsc	(debounceDelay@j+1)& (0+255),7,b	;volatile
  1686  003BBA  EFE7  F01D         	goto	u6831
  1687  003BBE  51E1               	movf	(debounceDelay@j+1)& (0+255),w,b	;volatile
  1688  003BC0  E108               	bnz	u6830
  1689  003BC2  29E0               	incf	debounceDelay@j& (0+255),w,b	;volatile
  1690  003BC4  A0D8               	btfss	status,0,c
  1691  003BC6  EFE7  F01D         	goto	u6831
  1692  003BCA  EFE9  F01D         	goto	u6830
  1693  003BCE                     u6831:
  1694  003BCE  EFEB  F01D         	goto	l7308
  1695  003BD2                     u6830:
  1696  003BD2  EFEF  F01D         	goto	l7312
  1697  003BD6                     l7308:
  1698                           
  1699                           ; BSR set to: 0
  1700  003BD6  4BE0               	infsnz	debounceDelay@j& (0+255),f,b	;volatile
  1701  003BD8  2BE1               	incf	(debounceDelay@j+1)& (0+255),f,b	;volatile
  1702  003BDA  EFDC  F01D         	goto	l7304
  1703  003BDE                     l7312:
  1704                           
  1705                           ; BSR set to: 0
  1706  003BDE  4BDE               	infsnz	debounceDelay@i& (0+255),f,b	;volatile
  1707  003BE0  2BDF               	incf	(debounceDelay@i+1)& (0+255),f,b	;volatile
  1708  003BE2  EFC9  F01D         	goto	l7298
  1709  003BE6                     l55:
  1710                           
  1711                           ; BSR set to: 0
  1712  003BE6  0012               	return		;funcret
  1713  003BE8                     __end_of_debounceDelay:
  1714                           	opt callstack 0
  1715                           
  1716 ;; *************** function _USBDeviceTasks *****************
  1717 ;; Defined at:
  1718 ;;		line 481 in file "usb_device.c"
  1719 ;; Parameters:    Size  Location     Type
  1720 ;;		None
  1721 ;; Auto vars:     Size  Location     Type
  1722 ;;  i               1    3[BANK1 ] unsigned char 
  1723 ;; Return value:  Size  Location     Type
  1724 ;;                  1    wreg      void 
  1725 ;; Registers used:
  1726 ;;		wreg, fsr1l, fsr1h, fsr2l, fsr2h, status,2, status,0, tblptrl, tblptrh, tblptru, prodl, prodh, cstack
  1727 ;; Tracked objects:
  1728 ;;		On entry : 0/0
  1729 ;;		On exit  : 0/0
  1730 ;;		Unchanged: 0/0
  1731 ;; Data sizes:     COMRAM   BANK0   BANK1   BANK2   BANK3  BANK4h  BANK4l   BANK5   BANK6   BANK7
  1732 ;;      Params:         0       0       0       0       0       0       0       0       0       0
  1733 ;;      Locals:         0       0       1       0       0       0       0       0       0       0
  1734 ;;      Temps:          0       0       0       0       0       0       0       0       0       0
  1735 ;;      Totals:         0       0       1       0       0       0       0       0       0       0
  1736 ;;Total ram usage:        1 bytes
  1737 ;; Hardware stack levels used:    1
  1738 ;; Hardware stack levels required when called:   19
  1739 ;; This function calls:
  1740 ;;		_USBCtrlEPAllowStatusStage
  1741 ;;		_USBCtrlEPService
  1742 ;;		_USBDeviceInit
  1743 ;;		_USBIncrement1msInternalTimers
  1744 ;;		_USBStallHandler
  1745 ;;		_USBSuspend
  1746 ;;		_USBWakeFromSuspend
  1747 ;;		_USER_USB_CALLBACK_EVENT_HANDLER
  1748 ;; This function is called by:
  1749 ;;		_main
  1750 ;; This function uses a non-reentrant model
  1751 ;;
  1752                           
  1753                           	psect	text8
  1754  000F6C                     __ptext8:
  1755                           	opt callstack 0
  1756  000F6C                     _USBDeviceTasks:
  1757                           	opt callstack 11
  1758  000F6C                     
  1759                           ;usb_device.c: 483:     uint8_t i;;usb_device.c: 594:     if(USBDeviceState == ATTACHED_
      +                          STATE)
  1760  000F6C  0429               	decf	_USBDeviceState^0,w,c	;volatile
  1761  000F6E  A4D8               	btfss	status,2,c
  1762  000F70  EFBC  F007         	goto	u6561
  1763  000F74  EFBE  F007         	goto	u6560
  1764  000F78                     u6561:
  1765  000F78  EFCB  F007         	goto	l7188
  1766  000F7C                     u6560:
  1767  000F7C                     
  1768                           ;usb_device.c: 595:     {;usb_device.c: 605:         if(!UCONbits.SE0)
  1769  000F7C  BA6D               	btfsc	109,5,c	;volatile
  1770  000F7E  EFC3  F007         	goto	u6571
  1771  000F82  EFC5  F007         	goto	u6570
  1772  000F86                     u6571:
  1773  000F86  EFCB  F007         	goto	l7188
  1774  000F8A                     u6570:
  1775  000F8A                     
  1776                           ;usb_device.c: 606:         {;usb_device.c: 612:                 {UIR = 0;};
  1777  000F8A  0E00               	movlw	0
  1778  000F8C  6E68               	movwf	104,c	;volatile
  1779  000F8E                     
  1780                           ;usb_device.c: 618:             UIEbits.URSTIE = 1;
  1781  000F8E  8069               	bsf	105,0,c	;volatile
  1782  000F90                     
  1783                           ;usb_device.c: 619:             UIEbits.IDLEIE = 1;
  1784  000F90  8869               	bsf	105,4,c	;volatile
  1785                           
  1786                           ;usb_device.c: 620:             USBDeviceState = POWERED_STATE;
  1787  000F92  0E02               	movlw	2
  1788  000F94  6E29               	movwf	_USBDeviceState^0,c	;volatile
  1789  000F96                     l7188:
  1790                           
  1791                           ;usb_device.c: 640:     if(UIRbits.ACTVIF && UIEbits.ACTVIE)
  1792  000F96  A468               	btfss	104,2,c	;volatile
  1793  000F98  EFD0  F007         	goto	u6581
  1794  000F9C  EFD2  F007         	goto	u6580
  1795  000FA0                     u6581:
  1796  000FA0  EFDC  F007         	goto	l7196
  1797  000FA4                     u6580:
  1798  000FA4  A469               	btfss	105,2,c	;volatile
  1799  000FA6  EFD7  F007         	goto	u6591
  1800  000FAA  EFD9  F007         	goto	u6590
  1801  000FAE                     u6591:
  1802  000FAE  EFDC  F007         	goto	l7196
  1803  000FB2                     u6590:
  1804  000FB2                     
  1805                           ;usb_device.c: 641:     {;usb_device.c: 642:         (UIR &= 0xFB);
  1806  000FB2  9468               	bcf	104,2,c	;volatile
  1807  000FB4                     
  1808                           ;usb_device.c: 646:             USBWakeFromSuspend();
  1809  000FB4  EC91  F01F         	call	_USBWakeFromSuspend	;wreg free
  1810  000FB8                     l7196:
  1811                           
  1812                           ;usb_device.c: 653:     if(UCONbits.SUSPND==1)
  1813  000FB8  A26D               	btfss	109,1,c	;volatile
  1814  000FBA  EFE1  F007         	goto	u6601
  1815  000FBE  EFE3  F007         	goto	u6600
  1816  000FC2                     u6601:
  1817  000FC2  EFE6  F007         	goto	l252
  1818  000FC6                     u6600:
  1819  000FC6                     
  1820                           ;usb_device.c: 654:     {;usb_device.c: 655:         {PIR2bits.USBIF = 0;};
  1821  000FC6  9AA1               	bcf	161,5,c	;volatile
  1822                           
  1823                           ;usb_device.c: 656:         return;
  1824  000FC8  EFCD  F008         	goto	l253
  1825  000FCC                     l252:
  1826                           
  1827                           ;usb_device.c: 669:     if(UIRbits.URSTIF && UIEbits.URSTIE)
  1828  000FCC  A068               	btfss	104,0,c	;volatile
  1829  000FCE  EFEB  F007         	goto	u6611
  1830  000FD2  EFED  F007         	goto	u6610
  1831  000FD6                     u6611:
  1832  000FD6  EFFA  F007         	goto	l7210
  1833  000FDA                     u6610:
  1834  000FDA  A069               	btfss	105,0,c	;volatile
  1835  000FDC  EFF2  F007         	goto	u6621
  1836  000FE0  EFF4  F007         	goto	u6620
  1837  000FE4                     u6621:
  1838  000FE4  EFFA  F007         	goto	l7210
  1839  000FE8                     u6620:
  1840  000FE8                     
  1841                           ;usb_device.c: 670:     {;usb_device.c: 671:         USBDeviceInit();
  1842  000FE8  EC8B  F00D         	call	_USBDeviceInit	;wreg free
  1843  000FEC                     
  1844                           ;usb_device.c: 675:         {PIE2bits.USBIE = 1;};
  1845  000FEC  8AA0               	bsf	160,5,c	;volatile
  1846  000FEE                     
  1847                           ;usb_device.c: 677:         USBDeviceState = DEFAULT_STATE;
  1848  000FEE  0E04               	movlw	4
  1849  000FF0  6E29               	movwf	_USBDeviceState^0,c	;volatile
  1850  000FF2                     
  1851                           ;usb_device.c: 687:         (UIR &= 0xFE);
  1852  000FF2  9068               	bcf	104,0,c	;volatile
  1853  000FF4                     l7210:
  1854                           
  1855                           ;usb_device.c: 693:     if(UIRbits.IDLEIF && UIEbits.IDLEIE)
  1856  000FF4  A868               	btfss	104,4,c	;volatile
  1857  000FF6  EFFF  F007         	goto	u6631
  1858  000FFA  EF01  F008         	goto	u6630
  1859  000FFE                     u6631:
  1860  000FFE  EF0A  F008         	goto	l7216
  1861  001002                     u6630:
  1862  001002  A869               	btfss	105,4,c	;volatile
  1863  001004  EF06  F008         	goto	u6641
  1864  001008  EF08  F008         	goto	u6640
  1865  00100C                     u6641:
  1866  00100C  EF0A  F008         	goto	l7216
  1867  001010                     u6640:
  1868  001010                     
  1869                           ;usb_device.c: 694:     {;usb_device.c: 700:             USBSuspend();
  1870  001010  EC3A  F020         	call	_USBSuspend	;wreg free
  1871  001014                     l7216:
  1872                           
  1873                           ;usb_device.c: 714:     if(UIRbits.SOFIF)
  1874  001014  AC68               	btfss	104,6,c	;volatile
  1875  001016  EF0F  F008         	goto	u6651
  1876  00101A  EF11  F008         	goto	u6650
  1877  00101E                     u6651:
  1878  00101E  EF3E  F008         	goto	l7234
  1879  001022                     u6650:
  1880  001022                     
  1881                           ;usb_device.c: 715:     {;usb_device.c: 717:         if(UIEbits.SOFIE)
  1882  001022  AC69               	btfss	105,6,c	;volatile
  1883  001024  EF16  F008         	goto	u6661
  1884  001028  EF18  F008         	goto	u6660
  1885  00102C                     u6661:
  1886  00102C  EF27  F008         	goto	l7222
  1887  001030                     u6660:
  1888  001030                     
  1889                           ;usb_device.c: 718:         {;usb_device.c: 719:             USER_USB_CALLBACK_EVENT_HAN
      +                          DLER((USB_EVENT)EVENT_SOF,0,1);
  1890  001030  0E00               	movlw	0
  1891  001032  0100               	movlb	0	; () banked
  1892  001034  6FEB               	movwf	(USER_USB_CALLBACK_EVENT_HANDLER@event+1)& (0+255),b
  1893  001036  0E73               	movlw	115
  1894  001038  6FEA               	movwf	USER_USB_CALLBACK_EVENT_HANDLER@event& (0+255),b
  1895  00103A  0E00               	movlw	0
  1896  00103C  6FEC               	movwf	USER_USB_CALLBACK_EVENT_HANDLER@pdata& (0+255),b
  1897  00103E  0E00               	movlw	0
  1898  001040  6FED               	movwf	(USER_USB_CALLBACK_EVENT_HANDLER@pdata+1)& (0+255),b
  1899  001042  0E00               	movlw	0
  1900  001044  6FEF               	movwf	(USER_USB_CALLBACK_EVENT_HANDLER@size+1)& (0+255),b
  1901  001046  0E01               	movlw	1
  1902  001048  6FEE               	movwf	USER_USB_CALLBACK_EVENT_HANDLER@size& (0+255),b
  1903  00104A  EC61  F01C         	call	_USER_USB_CALLBACK_EVENT_HANDLER	;wreg free
  1904  00104E                     l7222:
  1905                           
  1906                           ;usb_device.c: 721:         (UIR &= 0xBF);
  1907  00104E  9C68               	bcf	104,6,c	;volatile
  1908  001050                     
  1909                           ;usb_device.c: 724:             USBIncrement1msInternalTimers();
  1910  001050  ECEE  F01F         	call	_USBIncrement1msInternalTimers	;wreg free
  1911  001054                     
  1912                           ;usb_device.c: 741:             if(USBStatusStageTimeoutCounter != 0u)
  1913  001054  0100               	movlb	0	; () banked
  1914  001056  51CA               	movf	_USBStatusStageTimeoutCounter& (0+255),w,b	;volatile
  1915  001058  B4D8               	btfsc	status,2,c
  1916  00105A  EF31  F008         	goto	u6671
  1917  00105E  EF33  F008         	goto	u6670
  1918  001062                     u6671:
  1919  001062  EF34  F008         	goto	l7230
  1920  001066                     u6670:
  1921  001066                     
  1922                           ; BSR set to: 0
  1923                           ;usb_device.c: 742:             {;usb_device.c: 743:                 USBStatusStageTimeo
      +                          utCounter--;
  1924  001066  07CA               	decf	_USBStatusStageTimeoutCounter& (0+255),f,b	;volatile
  1925  001068                     l7230:
  1926                           
  1927                           ; BSR set to: 0
  1928                           ;usb_device.c: 750:             if(USBStatusStageTimeoutCounter == 0)
  1929  001068  51CA               	movf	_USBStatusStageTimeoutCounter& (0+255),w,b	;volatile
  1930  00106A  A4D8               	btfss	status,2,c
  1931  00106C  EF3A  F008         	goto	u6681
  1932  001070  EF3C  F008         	goto	u6680
  1933  001074                     u6681:
  1934  001074  EF3E  F008         	goto	l7234
  1935  001078                     u6680:
  1936  001078                     
  1937                           ; BSR set to: 0
  1938                           ;usb_device.c: 751:             {;usb_device.c: 752:                 USBCtrlEPAllowStatu
      +                          sStage();
  1939  001078  ECDD  F017         	call	_USBCtrlEPAllowStatusStage	;wreg free
  1940  00107C                     l7234:
  1941                           
  1942                           ;usb_device.c: 757:     if(UIRbits.STALLIF && UIEbits.STALLIE)
  1943  00107C  AA68               	btfss	104,5,c	;volatile
  1944  00107E  EF43  F008         	goto	u6691
  1945  001082  EF45  F008         	goto	u6690
  1946  001086                     u6691:
  1947  001086  EF4E  F008         	goto	l7240
  1948  00108A                     u6690:
  1949  00108A  AA69               	btfss	105,5,c	;volatile
  1950  00108C  EF4A  F008         	goto	u6701
  1951  001090  EF4C  F008         	goto	u6700
  1952  001094                     u6701:
  1953  001094  EF4E  F008         	goto	l7240
  1954  001098                     u6700:
  1955  001098                     
  1956                           ;usb_device.c: 758:     {;usb_device.c: 759:         USBStallHandler();
  1957  001098  ECF4  F01D         	call	_USBStallHandler	;wreg free
  1958  00109C                     l7240:
  1959                           
  1960                           ;usb_device.c: 762:     if(UIRbits.UERRIF && UIEbits.UERRIE)
  1961  00109C  A268               	btfss	104,1,c	;volatile
  1962  00109E  EF53  F008         	goto	u6711
  1963  0010A2  EF55  F008         	goto	u6710
  1964  0010A6                     u6711:
  1965  0010A6  EF6C  F008         	goto	l7248
  1966  0010AA                     u6710:
  1967  0010AA  A269               	btfss	105,1,c	;volatile
  1968  0010AC  EF5A  F008         	goto	u6721
  1969  0010B0  EF5C  F008         	goto	u6720
  1970  0010B4                     u6721:
  1971  0010B4  EF6C  F008         	goto	l7248
  1972  0010B8                     u6720:
  1973  0010B8                     
  1974                           ;usb_device.c: 763:     {;usb_device.c: 764:         USER_USB_CALLBACK_EVENT_HANDLER((US
      +                          B_EVENT)EVENT_BUS_ERROR,0,1);
  1975  0010B8  0E7F               	movlw	127
  1976  0010BA  0100               	movlb	0	; () banked
  1977  0010BC  6FEB               	movwf	(USER_USB_CALLBACK_EVENT_HANDLER@event+1)& (0+255),b
  1978  0010BE  69EA               	setf	USER_USB_CALLBACK_EVENT_HANDLER@event& (0+255),b
  1979  0010C0  0E00               	movlw	0
  1980  0010C2  6FEC               	movwf	USER_USB_CALLBACK_EVENT_HANDLER@pdata& (0+255),b
  1981  0010C4  0E00               	movlw	0
  1982  0010C6  6FED               	movwf	(USER_USB_CALLBACK_EVENT_HANDLER@pdata+1)& (0+255),b
  1983  0010C8  0E00               	movlw	0
  1984  0010CA  6FEF               	movwf	(USER_USB_CALLBACK_EVENT_HANDLER@size+1)& (0+255),b
  1985  0010CC  0E01               	movlw	1
  1986  0010CE  6FEE               	movwf	USER_USB_CALLBACK_EVENT_HANDLER@size& (0+255),b
  1987  0010D0  EC61  F01C         	call	_USER_USB_CALLBACK_EVENT_HANDLER	;wreg free
  1988  0010D4                     
  1989                           ;usb_device.c: 765:         {UEIR = 0;};
  1990  0010D4  0E00               	movlw	0
  1991  0010D6  6E6A               	movwf	106,c	;volatile
  1992  0010D8                     l7248:
  1993                           
  1994                           ;usb_device.c: 780:     if(USBDeviceState < DEFAULT_STATE)
  1995  0010D8  0E04               	movlw	4
  1996  0010DA  6029               	cpfslt	_USBDeviceState^0,c	;volatile
  1997  0010DC  EF72  F008         	goto	u6731
  1998  0010E0  EF74  F008         	goto	u6730
  1999  0010E4                     u6731:
  2000  0010E4  EF77  F008         	goto	l262
  2001  0010E8                     u6730:
  2002  0010E8                     
  2003                           ;usb_device.c: 781:     {;usb_device.c: 782:         {PIR2bits.USBIF = 0;};
  2004  0010E8  9AA1               	bcf	161,5,c	;volatile
  2005                           
  2006                           ;usb_device.c: 783:         return;
  2007  0010EA  EFCD  F008         	goto	l253
  2008  0010EE                     l262:
  2009                           
  2010                           ;usb_device.c: 789:     if(UIEbits.TRNIE)
  2011  0010EE  A669               	btfss	105,3,c	;volatile
  2012  0010F0  EF7C  F008         	goto	u6741
  2013  0010F4  EF7E  F008         	goto	u6740
  2014  0010F8                     u6741:
  2015  0010F8  EFCC  F008         	goto	l263
  2016  0010FC                     u6740:
  2017  0010FC                     
  2018                           ;usb_device.c: 790:     {;usb_device.c: 791:         for(i = 0; i < 4u; i++)
  2019  0010FC  0E00               	movlw	0
  2020  0010FE  0101               	movlb	1	; () banked
  2021  001100  6F03               	movwf	USBDeviceTasks@i& (0+255),b
  2022  001102                     l264:
  2023                           
  2024                           ; BSR set to: 1
  2025                           ;usb_device.c: 792:         {;usb_device.c: 793:             if(UIRbits.TRNIF)
  2026  001102  A668               	btfss	104,3,c	;volatile
  2027  001104  EF86  F008         	goto	u6751
  2028  001108  EF88  F008         	goto	u6750
  2029  00110C                     u6751:
  2030  00110C  EFCC  F008         	goto	l263
  2031  001110                     u6750:
  2032  001110                     
  2033                           ; BSR set to: 1
  2034                           ;usb_device.c: 794:             {;usb_device.c: 796:                 USTATcopy.Val = UST
      +                          AT;
  2035  001110  CF6C F0DD          	movff	3948,_USTATcopy	;volatile
  2036  001114                     
  2037                           ; BSR set to: 1
  2038                           ;usb_device.c: 797:                 endpoint_number = USTATcopy.endpoint_number;
  2039  001114  0100               	movlb	0	; () banked
  2040  001116  31DD               	rrcf	_USTATcopy& (0+255),w,b	;volatile
  2041  001118  32E8               	rrcf	wreg,f,c
  2042  00111A  32E8               	rrcf	wreg,f,c
  2043  00111C  0B0F               	andlw	15
  2044  00111E  6FCB               	movwf	_endpoint_number& (0+255),b	;volatile
  2045  001120                     
  2046                           ; BSR set to: 0
  2047                           ;usb_device.c: 799:                 (UIR &= 0xF7);
  2048  001120  9668               	bcf	104,3,c	;volatile
  2049  001122                     
  2050                           ; BSR set to: 0
  2051                           ;usb_device.c: 804:                 if(USTATcopy.direction == 0)
  2052  001122  B5DD               	btfsc	_USTATcopy& (0+255),2,b	;volatile
  2053  001124  EF96  F008         	goto	u6761
  2054  001128  EF98  F008         	goto	u6760
  2055  00112C                     u6761:
  2056  00112C  EFA1  F008         	goto	l7268
  2057  001130                     u6760:
  2058  001130                     
  2059                           ; BSR set to: 0
  2060                           ;usb_device.c: 805:                 {;usb_device.c: 806:                     ep_data_out
      +                          [endpoint_number].bits.ping_pong_state ^= 1;
  2061  001130  0E15               	movlw	low _ep_data_out
  2062  001132  25CB               	addwf	_endpoint_number& (0+255),w,b	;volatile
  2063  001134  6ED9               	movwf	fsr2l,c
  2064  001136  6ADA               	clrf	fsr2h,c
  2065  001138  0E00               	movlw	high _ep_data_out
  2066  00113A  22DA               	addwfc	fsr2h,f,c
  2067  00113C  70DF               	btg	indf2,0,c
  2068                           
  2069                           ;usb_device.c: 807:                 }
  2070  00113E  EFA8  F008         	goto	l7270
  2071  001142                     l7268:
  2072                           
  2073                           ; BSR set to: 0
  2074                           ;usb_device.c: 809:                 {;usb_device.c: 810:                     ep_data_in[
      +                          endpoint_number].bits.ping_pong_state ^= 1;
  2075  001142  0E18               	movlw	low _ep_data_in
  2076  001144  25CB               	addwf	_endpoint_number& (0+255),w,b	;volatile
  2077  001146  6ED9               	movwf	fsr2l,c
  2078  001148  6ADA               	clrf	fsr2h,c
  2079  00114A  0E00               	movlw	high _ep_data_in
  2080  00114C  22DA               	addwfc	fsr2h,f,c
  2081  00114E  70DF               	btg	indf2,0,c
  2082  001150                     l7270:
  2083                           
  2084                           ; BSR set to: 0
  2085                           ;usb_device.c: 816:                 if(endpoint_number == 0)
  2086  001150  51CB               	movf	_endpoint_number& (0+255),w,b	;volatile
  2087  001152  A4D8               	btfss	status,2,c
  2088  001154  EFAE  F008         	goto	u6771
  2089  001158  EFB0  F008         	goto	u6770
  2090  00115C                     u6771:
  2091  00115C  EFB4  F008         	goto	l7274
  2092  001160                     u6770:
  2093  001160                     
  2094                           ; BSR set to: 0
  2095                           ;usb_device.c: 817:                 {;usb_device.c: 818:                     USBCtrlEPSe
      +                          rvice();
  2096  001160  ECB7  F019         	call	_USBCtrlEPService	;wreg free
  2097                           
  2098                           ;usb_device.c: 819:                 }
  2099  001164  EFC2  F008         	goto	l7276
  2100  001168                     l7274:
  2101                           
  2102                           ; BSR set to: 0
  2103                           ;usb_device.c: 821:                 {;usb_device.c: 822:                     USER_USB_CA
      +                          LLBACK_EVENT_HANDLER((USB_EVENT)EVENT_TRANSFER,(uint8_t*)&USTATcopy.Val,0);
  2104  001168  0E00               	movlw	0
  2105  00116A  6FEB               	movwf	(USER_USB_CALLBACK_EVENT_HANDLER@event+1)& (0+255),b
  2106  00116C  0E72               	movlw	114
  2107  00116E  6FEA               	movwf	USER_USB_CALLBACK_EVENT_HANDLER@event& (0+255),b
  2108  001170  0EDD               	movlw	low _USTATcopy
  2109  001172  6FEC               	movwf	USER_USB_CALLBACK_EVENT_HANDLER@pdata& (0+255),b
  2110  001174  0E00               	movlw	high _USTATcopy
  2111  001176  6FED               	movwf	(USER_USB_CALLBACK_EVENT_HANDLER@pdata+1)& (0+255),b
  2112  001178  0E00               	movlw	0
  2113  00117A  6FEF               	movwf	(USER_USB_CALLBACK_EVENT_HANDLER@size+1)& (0+255),b
  2114  00117C  0E00               	movlw	0
  2115  00117E  6FEE               	movwf	USER_USB_CALLBACK_EVENT_HANDLER@size& (0+255),b
  2116  001180  EC61  F01C         	call	_USER_USB_CALLBACK_EVENT_HANDLER	;wreg free
  2117  001184                     l7276:
  2118                           
  2119                           ;usb_device.c: 829:         }
  2120  001184  0101               	movlb	1	; () banked
  2121  001186  2B03               	incf	USBDeviceTasks@i& (0+255),f,b
  2122  001188                     
  2123                           ; BSR set to: 1
  2124  001188  0E03               	movlw	3
  2125  00118A  6503               	cpfsgt	USBDeviceTasks@i& (0+255),b
  2126  00118C  EFCA  F008         	goto	u6781
  2127  001190  EFCC  F008         	goto	u6780
  2128  001194                     u6781:
  2129  001194  EF81  F008         	goto	l264
  2130  001198                     u6780:
  2131  001198                     l263:
  2132                           
  2133                           ;usb_device.c: 832:     {PIR2bits.USBIF = 0;};
  2134  001198  9AA1               	bcf	161,5,c	;volatile
  2135  00119A                     l253:
  2136  00119A  0012               	return		;funcret
  2137  00119C                     __end_of_USBDeviceTasks:
  2138                           	opt callstack 0
  2139                           
  2140 ;; *************** function _USBWakeFromSuspend *****************
  2141 ;; Defined at:
  2142 ;;		line 2309 in file "usb_device.c"
  2143 ;; Parameters:    Size  Location     Type
  2144 ;;		None
  2145 ;; Auto vars:     Size  Location     Type
  2146 ;;		None
  2147 ;; Return value:  Size  Location     Type
  2148 ;;                  1    wreg      void 
  2149 ;; Registers used:
  2150 ;;		wreg, fsr2l, fsr2h, status,2, status,0, prodl, prodh, cstack
  2151 ;; Tracked objects:
  2152 ;;		On entry : 0/0
  2153 ;;		On exit  : 0/0
  2154 ;;		Unchanged: 0/0
  2155 ;; Data sizes:     COMRAM   BANK0   BANK1   BANK2   BANK3  BANK4h  BANK4l   BANK5   BANK6   BANK7
  2156 ;;      Params:         0       0       0       0       0       0       0       0       0       0
  2157 ;;      Locals:         0       0       0       0       0       0       0       0       0       0
  2158 ;;      Temps:          0       0       0       0       0       0       0       0       0       0
  2159 ;;      Totals:         0       0       0       0       0       0       0       0       0       0
  2160 ;;Total ram usage:        0 bytes
  2161 ;; Hardware stack levels used:    1
  2162 ;; Hardware stack levels required when called:   15
  2163 ;; This function calls:
  2164 ;;		_USER_USB_CALLBACK_EVENT_HANDLER
  2165 ;; This function is called by:
  2166 ;;		_USBDeviceTasks
  2167 ;; This function uses a non-reentrant model
  2168 ;;
  2169                           
  2170                           	psect	text9
  2171  003F22                     __ptext9:
  2172                           	opt callstack 0
  2173  003F22                     _USBWakeFromSuspend:
  2174                           	opt callstack 14
  2175  003F22                     
  2176                           ;usb_device.c: 2311:     USBBusIsSuspended = 0;
  2177  003F22  0E00               	movlw	0
  2178  003F24  6E25               	movwf	_USBBusIsSuspended^0,c	;volatile
  2179  003F26                     
  2180                           ;usb_device.c: 2317:     USER_USB_CALLBACK_EVENT_HANDLER((USB_EVENT)EVENT_RESUME,0,0);
  2181  003F26  0E00               	movlw	0
  2182  003F28  0100               	movlb	0	; () banked
  2183  003F2A  6FEB               	movwf	(USER_USB_CALLBACK_EVENT_HANDLER@event+1)& (0+255),b
  2184  003F2C  0E74               	movlw	116
  2185  003F2E  6FEA               	movwf	USER_USB_CALLBACK_EVENT_HANDLER@event& (0+255),b
  2186  003F30  0E00               	movlw	0
  2187  003F32  6FEC               	movwf	USER_USB_CALLBACK_EVENT_HANDLER@pdata& (0+255),b
  2188  003F34  0E00               	movlw	0
  2189  003F36  6FED               	movwf	(USER_USB_CALLBACK_EVENT_HANDLER@pdata+1)& (0+255),b
  2190  003F38  0E00               	movlw	0
  2191  003F3A  6FEF               	movwf	(USER_USB_CALLBACK_EVENT_HANDLER@size+1)& (0+255),b
  2192  003F3C  0E00               	movlw	0
  2193  003F3E  6FEE               	movwf	USER_USB_CALLBACK_EVENT_HANDLER@size& (0+255),b
  2194  003F40  EC61  F01C         	call	_USER_USB_CALLBACK_EVENT_HANDLER	;wreg free
  2195  003F44                     
  2196                           ;usb_device.c: 2324:         UCONbits.SUSPND = 0;
  2197  003F44  926D               	bcf	109,1,c	;volatile
  2198  003F46                     
  2199                           ;usb_device.c: 2329:     UIEbits.ACTVIE = 0;
  2200  003F46  9469               	bcf	105,2,c	;volatile
  2201                           
  2202                           ;usb_device.c: 2347:     while(UIRbits.ACTVIF)
  2203  003F48  EFA7  F01F         	goto	l7112
  2204  003F4C                     l7110:
  2205                           
  2206                           ;usb_device.c: 2349:     {;usb_device.c: 2350:         (UIR &= 0xFB);
  2207  003F4C  9468               	bcf	104,2,c	;volatile
  2208  003F4E                     l7112:
  2209                           
  2210                           ;usb_device.c: 2347:     while(UIRbits.ACTVIF)
  2211  003F4E  B468               	btfsc	104,2,c	;volatile
  2212  003F50  EFAC  F01F         	goto	u6471
  2213  003F54  EFAE  F01F         	goto	u6470
  2214  003F58                     u6471:
  2215  003F58  EFA6  F01F         	goto	l7110
  2216  003F5C                     u6470:
  2217  003F5C                     
  2218                           ;usb_device.c: 2353:     USBTicksSinceSuspendEnd = 0;
  2219  003F5C  0E00               	movlw	0
  2220  003F5E  0100               	movlb	0	; () banked
  2221  003F60  6FC8               	movwf	_USBTicksSinceSuspendEnd& (0+255),b	;volatile
  2222  003F62                     
  2223                           ; BSR set to: 0
  2224  003F62  0012               	return		;funcret
  2225  003F64                     __end_of_USBWakeFromSuspend:
  2226                           	opt callstack 0
  2227                           
  2228 ;; *************** function _USBSuspend *****************
  2229 ;; Defined at:
  2230 ;;		line 2251 in file "usb_device.c"
  2231 ;; Parameters:    Size  Location     Type
  2232 ;;		None
  2233 ;; Auto vars:     Size  Location     Type
  2234 ;;		None
  2235 ;; Return value:  Size  Location     Type
  2236 ;;                  1    wreg      void 
  2237 ;; Registers used:
  2238 ;;		wreg, fsr2l, fsr2h, status,2, status,0, prodl, prodh, cstack
  2239 ;; Tracked objects:
  2240 ;;		On entry : 0/0
  2241 ;;		On exit  : 0/0
  2242 ;;		Unchanged: 0/0
  2243 ;; Data sizes:     COMRAM   BANK0   BANK1   BANK2   BANK3  BANK4h  BANK4l   BANK5   BANK6   BANK7
  2244 ;;      Params:         0       0       0       0       0       0       0       0       0       0
  2245 ;;      Locals:         0       0       0       0       0       0       0       0       0       0
  2246 ;;      Temps:          0       0       0       0       0       0       0       0       0       0
  2247 ;;      Totals:         0       0       0       0       0       0       0       0       0       0
  2248 ;;Total ram usage:        0 bytes
  2249 ;; Hardware stack levels used:    1
  2250 ;; Hardware stack levels required when called:   15
  2251 ;; This function calls:
  2252 ;;		_USER_USB_CALLBACK_EVENT_HANDLER
  2253 ;; This function is called by:
  2254 ;;		_USBDeviceTasks
  2255 ;; This function uses a non-reentrant model
  2256 ;;
  2257                           
  2258                           	psect	text10
  2259  004074                     __ptext10:
  2260                           	opt callstack 0
  2261  004074                     _USBSuspend:
  2262                           	opt callstack 14
  2263  004074                     
  2264                           ;usb_device.c: 2276:     UIEbits.ACTVIE = 1;
  2265  004074  8469               	bsf	105,2,c	;volatile
  2266  004076                     
  2267                           ;usb_device.c: 2277:     (UIR &= 0xEF);
  2268  004076  9868               	bcf	104,4,c	;volatile
  2269  004078                     
  2270                           ;usb_device.c: 2280:         UCONbits.SUSPND = 1;
  2271  004078  826D               	bsf	109,1,c	;volatile
  2272  00407A                     
  2273                           ;usb_device.c: 2283:     USBBusIsSuspended = 1;
  2274  00407A  0E01               	movlw	1
  2275  00407C  6E25               	movwf	_USBBusIsSuspended^0,c	;volatile
  2276  00407E                     
  2277                           ;usb_device.c: 2284:     USBTicksSinceSuspendEnd = 0;
  2278  00407E  0E00               	movlw	0
  2279  004080  0100               	movlb	0	; () banked
  2280  004082  6FC8               	movwf	_USBTicksSinceSuspendEnd& (0+255),b	;volatile
  2281  004084                     
  2282                           ; BSR set to: 0
  2283                           ;usb_device.c: 2291:     USER_USB_CALLBACK_EVENT_HANDLER((USB_EVENT)EVENT_SUSPEND,0,0);
  2284  004084  0E00               	movlw	0
  2285  004086  6FEB               	movwf	(USER_USB_CALLBACK_EVENT_HANDLER@event+1)& (0+255),b
  2286  004088  0E75               	movlw	117
  2287  00408A  6FEA               	movwf	USER_USB_CALLBACK_EVENT_HANDLER@event& (0+255),b
  2288  00408C  0E00               	movlw	0
  2289  00408E  6FEC               	movwf	USER_USB_CALLBACK_EVENT_HANDLER@pdata& (0+255),b
  2290  004090  0E00               	movlw	0
  2291  004092  6FED               	movwf	(USER_USB_CALLBACK_EVENT_HANDLER@pdata+1)& (0+255),b
  2292  004094  0E00               	movlw	0
  2293  004096  6FEF               	movwf	(USER_USB_CALLBACK_EVENT_HANDLER@size+1)& (0+255),b
  2294  004098  0E00               	movlw	0
  2295  00409A  6FEE               	movwf	USER_USB_CALLBACK_EVENT_HANDLER@size& (0+255),b
  2296  00409C  EC61  F01C         	call	_USER_USB_CALLBACK_EVENT_HANDLER	;wreg free
  2297  0040A0  0012               	return		;funcret
  2298  0040A2                     __end_of_USBSuspend:
  2299                           	opt callstack 0
  2300                           
  2301 ;; *************** function _USBStallHandler *****************
  2302 ;; Defined at:
  2303 ;;		line 2208 in file "usb_device.c"
  2304 ;; Parameters:    Size  Location     Type
  2305 ;;		None
  2306 ;; Auto vars:     Size  Location     Type
  2307 ;;		None
  2308 ;; Return value:  Size  Location     Type
  2309 ;;                  1    wreg      void 
  2310 ;; Registers used:
  2311 ;;		wreg, fsr2l, fsr2h, status,2, status,0
  2312 ;; Tracked objects:
  2313 ;;		On entry : 0/0
  2314 ;;		On exit  : 0/0
  2315 ;;		Unchanged: 0/0
  2316 ;; Data sizes:     COMRAM   BANK0   BANK1   BANK2   BANK3  BANK4h  BANK4l   BANK5   BANK6   BANK7
  2317 ;;      Params:         0       0       0       0       0       0       0       0       0       0
  2318 ;;      Locals:         0       0       0       0       0       0       0       0       0       0
  2319 ;;      Temps:          0       1       0       0       0       0       0       0       0       0
  2320 ;;      Totals:         0       1       0       0       0       0       0       0       0       0
  2321 ;;Total ram usage:        1 bytes
  2322 ;; Hardware stack levels used:    1
  2323 ;; Hardware stack levels required when called:   11
  2324 ;; This function calls:
  2325 ;;		Nothing
  2326 ;; This function is called by:
  2327 ;;		_USBDeviceTasks
  2328 ;; This function uses a non-reentrant model
  2329 ;;
  2330                           
  2331                           	psect	text11
  2332  003BE8                     __ptext11:
  2333                           	opt callstack 0
  2334  003BE8                     _USBStallHandler:
  2335                           	opt callstack 18
  2336  003BE8                     
  2337                           ;usb_device.c: 2220:     if(UEP0bits.EPSTALL == 1)
  2338  003BE8  A070               	btfss	112,0,c	;volatile
  2339  003BEA  EFF9  F01D         	goto	u6501
  2340  003BEE  EFFB  F01D         	goto	u6500
  2341  003BF2                     u6501:
  2342  003BF2  EF22  F01E         	goto	l402
  2343  003BF6                     u6500:
  2344  003BF6                     
  2345                           ;usb_device.c: 2221:     {;usb_device.c: 2223:         if((pBDTEntryEP0OutCurrent->STAT.
      +                          Val == 0x80) && (pBDTEntryIn[0]->STAT.Val == (0x80|0x04)))
  2346  003BF6  C01D  FFD9         	movff	_pBDTEntryEP0OutCurrent,fsr2l
  2347  003BFA  C01E  FFDA         	movff	_pBDTEntryEP0OutCurrent+1,fsr2h
  2348  003BFE  0E80               	movlw	128
  2349  003C00  18DE               	xorwf	postinc2,w,c
  2350  003C02  A4D8               	btfss	status,2,c
  2351  003C04  EF06  F01E         	goto	u6511
  2352  003C08  EF08  F01E         	goto	u6510
  2353  003C0C                     u6511:
  2354  003C0C  EF21  F01E         	goto	l7148
  2355  003C10                     u6510:
  2356  003C10  C00F  FFD9         	movff	_pBDTEntryIn,fsr2l
  2357  003C14  C010  FFDA         	movff	_pBDTEntryIn+1,fsr2h
  2358  003C18  0E84               	movlw	132
  2359  003C1A  18DE               	xorwf	postinc2,w,c
  2360  003C1C  A4D8               	btfss	status,2,c
  2361  003C1E  EF13  F01E         	goto	u6521
  2362  003C22  EF15  F01E         	goto	u6520
  2363  003C26                     u6521:
  2364  003C26  EF21  F01E         	goto	l7148
  2365  003C2A                     u6520:
  2366  003C2A                     
  2367                           ;usb_device.c: 2224:         {;usb_device.c: 2226:             pBDTEntryEP0OutCurrent->S
      +                          TAT.Val = 0x00|(0x08 & 0x08)|0x04;
  2368  003C2A  C01D  FFD9         	movff	_pBDTEntryEP0OutCurrent,fsr2l
  2369  003C2E  C01E  FFDA         	movff	_pBDTEntryEP0OutCurrent+1,fsr2h
  2370  003C32  0E0C               	movlw	12
  2371  003C34  6EDF               	movwf	indf2,c
  2372  003C36                     
  2373                           ;usb_device.c: 2227:             pBDTEntryEP0OutCurrent->STAT.Val |= 0x80;
  2374  003C36  C01D  FFD9         	movff	_pBDTEntryEP0OutCurrent,fsr2l
  2375  003C3A  C01E  FFDA         	movff	_pBDTEntryEP0OutCurrent+1,fsr2h
  2376  003C3E  0E00               	movlw	0
  2377  003C40  8EDB               	bsf	plusw2,7,c
  2378  003C42                     l7148:
  2379                           
  2380                           ;usb_device.c: 2229:         UEP0bits.EPSTALL = 0;
  2381  003C42  9070               	bcf	112,0,c	;volatile
  2382  003C44                     l402:
  2383                           
  2384                           ;usb_device.c: 2232:     (UIR &= 0xDF);
  2385  003C44  9A68               	bcf	104,5,c	;volatile
  2386  003C46  0012               	return		;funcret
  2387  003C48                     __end_of_USBStallHandler:
  2388                           	opt callstack 0
  2389                           
  2390 ;; *************** function _USBIncrement1msInternalTimers *****************
  2391 ;; Defined at:
  2392 ;;		line 3031 in file "usb_device.c"
  2393 ;; Parameters:    Size  Location     Type
  2394 ;;		None
  2395 ;; Auto vars:     Size  Location     Type
  2396 ;;		None
  2397 ;; Return value:  Size  Location     Type
  2398 ;;                  1    wreg      void 
  2399 ;; Registers used:
  2400 ;;		wreg, status,2, status,0
  2401 ;; Tracked objects:
  2402 ;;		On entry : 0/0
  2403 ;;		On exit  : 0/0
  2404 ;;		Unchanged: 0/0
  2405 ;; Data sizes:     COMRAM   BANK0   BANK1   BANK2   BANK3  BANK4h  BANK4l   BANK5   BANK6   BANK7
  2406 ;;      Params:         0       0       0       0       0       0       0       0       0       0
  2407 ;;      Locals:         0       0       0       0       0       0       0       0       0       0
  2408 ;;      Temps:          0       0       0       0       0       0       0       0       0       0
  2409 ;;      Totals:         0       0       0       0       0       0       0       0       0       0
  2410 ;;Total ram usage:        0 bytes
  2411 ;; Hardware stack levels used:    1
  2412 ;; Hardware stack levels required when called:   11
  2413 ;; This function calls:
  2414 ;;		Nothing
  2415 ;; This function is called by:
  2416 ;;		_USBDeviceTasks
  2417 ;; This function uses a non-reentrant model
  2418 ;;
  2419                           
  2420                           	psect	text12
  2421  003FDC                     __ptext12:
  2422                           	opt callstack 0
  2423  003FDC                     _USBIncrement1msInternalTimers:
  2424                           	opt callstack 18
  2425  003FDC                     
  2426                           ;usb_device.c: 3039:     USB1msTickCount++;
  2427  003FDC  0E01               	movlw	1
  2428  003FDE  0100               	movlb	0	; () banked
  2429  003FE0  27B4               	addwf	_USB1msTickCount& (0+255),f,b	;volatile
  2430  003FE2  0E00               	movlw	0
  2431  003FE4  23B5               	addwfc	(_USB1msTickCount+1)& (0+255),f,b	;volatile
  2432  003FE6  23B6               	addwfc	(_USB1msTickCount+2)& (0+255),f,b	;volatile
  2433  003FE8  23B7               	addwfc	(_USB1msTickCount+3)& (0+255),f,b	;volatile
  2434  003FEA                     
  2435                           ; BSR set to: 0
  2436                           ;usb_device.c: 3040:     if(USBBusIsSuspended == 0)
  2437  003FEA  5025               	movf	_USBBusIsSuspended^0,w,c	;volatile
  2438  003FEC  A4D8               	btfss	status,2,c
  2439  003FEE  EFFB  F01F         	goto	u6481
  2440  003FF2  EFFD  F01F         	goto	u6480
  2441  003FF6                     u6481:
  2442  003FF6  EF07  F020         	goto	l494
  2443  003FFA                     u6480:
  2444  003FFA                     
  2445                           ; BSR set to: 0
  2446                           ;usb_device.c: 3041:     {;usb_device.c: 3042:         USBTicksSinceSuspendEnd++;
  2447  003FFA  2BC8               	incf	_USBTicksSinceSuspendEnd& (0+255),f,b	;volatile
  2448  003FFC                     
  2449                           ; BSR set to: 0
  2450                           ;usb_device.c: 3044:         if(USBTicksSinceSuspendEnd == 0)
  2451  003FFC  51C8               	movf	_USBTicksSinceSuspendEnd& (0+255),w,b	;volatile
  2452  003FFE  A4D8               	btfss	status,2,c
  2453  004000  EF04  F020         	goto	u6491
  2454  004004  EF06  F020         	goto	u6490
  2455  004008                     u6491:
  2456  004008  EF07  F020         	goto	l494
  2457  00400C                     u6490:
  2458  00400C                     
  2459                           ; BSR set to: 0
  2460                           ;usb_device.c: 3045:         {;usb_device.c: 3046:             USBTicksSinceSuspendEnd =
      +                           255;
  2461  00400C  69C8               	setf	_USBTicksSinceSuspendEnd& (0+255),b	;volatile
  2462  00400E                     l494:
  2463                           
  2464                           ; BSR set to: 0
  2465  00400E  0012               	return		;funcret
  2466  004010                     __end_of_USBIncrement1msInternalTimers:
  2467                           	opt callstack 0
  2468                           
  2469 ;; *************** function _USBDeviceInit *****************
  2470 ;; Defined at:
  2471 ;;		line 281 in file "usb_device.c"
  2472 ;; Parameters:    Size  Location     Type
  2473 ;;		None
  2474 ;; Auto vars:     Size  Location     Type
  2475 ;;  i               1   12[BANK0 ] unsigned char 
  2476 ;; Return value:  Size  Location     Type
  2477 ;;                  1    wreg      void 
  2478 ;; Registers used:
  2479 ;;		wreg, fsr2l, fsr2h, status,2, status,0, prodl, prodh, cstack
  2480 ;; Tracked objects:
  2481 ;;		On entry : 0/0
  2482 ;;		On exit  : 0/0
  2483 ;;		Unchanged: 0/0
  2484 ;; Data sizes:     COMRAM   BANK0   BANK1   BANK2   BANK3  BANK4h  BANK4l   BANK5   BANK6   BANK7
  2485 ;;      Params:         0       0       0       0       0       0       0       0       0       0
  2486 ;;      Locals:         0       1       0       0       0       0       0       0       0       0
  2487 ;;      Temps:          0       0       0       0       0       0       0       0       0       0
  2488 ;;      Totals:         0       1       0       0       0       0       0       0       0       0
  2489 ;;Total ram usage:        1 bytes
  2490 ;; Hardware stack levels used:    1
  2491 ;; Hardware stack levels required when called:   12
  2492 ;; This function calls:
  2493 ;;		_memset
  2494 ;; This function is called by:
  2495 ;;		_initUSBLib
  2496 ;;		_USBDeviceTasks
  2497 ;; This function uses a non-reentrant model
  2498 ;;
  2499                           
  2500                           	psect	text13
  2501  001B16                     __ptext13:
  2502                           	opt callstack 0
  2503  001B16                     _USBDeviceInit:
  2504                           	opt callstack 17
  2505  001B16                     
  2506                           ;usb_device.c: 283:     uint8_t i;;usb_device.c: 285:     {PIE2bits.USBIE = 0;};
  2507  001B16  9AA0               	bcf	160,5,c	;volatile
  2508  001B18                     
  2509                           ;usb_device.c: 292:     {UEIR = 0;};
  2510  001B18  0E00               	movlw	0
  2511  001B1A  6E6A               	movwf	106,c	;volatile
  2512                           
  2513                           ;usb_device.c: 295:     {UIR = 0;};
  2514  001B1C  0E00               	movlw	0
  2515  001B1E  6E68               	movwf	104,c	;volatile
  2516                           
  2517                           ;usb_device.c: 298:     UEP0 = 0;
  2518  001B20  0E00               	movlw	0
  2519  001B22  6E70               	movwf	112,c	;volatile
  2520  001B24                     
  2521                           ;usb_device.c: 300:     memset((void*)&UEP1,0x00,(2));;
  2522  001B24  0E71               	movlw	113
  2523  001B26  0100               	movlb	0	; () banked
  2524  001B28  6FDE               	movwf	memset@dest& (0+255),b
  2525  001B2A  0E0F               	movlw	15
  2526  001B2C  6FDF               	movwf	(memset@dest+1)& (0+255),b
  2527  001B2E  0E00               	movlw	0
  2528  001B30  6FE1               	movwf	(memset@c+1)& (0+255),b
  2529  001B32  0E00               	movlw	0
  2530  001B34  6FE0               	movwf	memset@c& (0+255),b
  2531  001B36  0E00               	movlw	0
  2532  001B38  6FE3               	movwf	(memset@n+1)& (0+255),b
  2533  001B3A  0E02               	movlw	2
  2534  001B3C  6FE2               	movwf	memset@n& (0+255),b
  2535  001B3E  ECAE  F00A         	call	_memset	;wreg free
  2536  001B42                     
  2537                           ;usb_device.c: 302:     { UCFG = 0x10 | 0x00 | 0x04 | 0x02; UEIE = 0x9F; UIE = 0x39 | 0x
      +                          40 | 0x02; };
  2538  001B42  0E16               	movlw	22
  2539  001B44  6E6F               	movwf	111,c	;volatile
  2540  001B46  0E9F               	movlw	159
  2541  001B48  6E6B               	movwf	107,c	;volatile
  2542  001B4A  0E7B               	movlw	123
  2543  001B4C  6E69               	movwf	105,c	;volatile
  2544  001B4E                     
  2545                           ;usb_device.c: 311:     for(i = 0; i < (sizeof(BDT)/sizeof(BDT_ENTRY)); i++)
  2546  001B4E  0E00               	movlw	0
  2547  001B50  0100               	movlb	0	; () banked
  2548  001B52  6FEA               	movwf	USBDeviceInit@i& (0+255),b
  2549  001B54                     l7034:
  2550                           
  2551                           ; BSR set to: 0
  2552                           ;usb_device.c: 312:     {;usb_device.c: 313:         BDT[i].Val = 0x00;
  2553  001B54  51EA               	movf	USBDeviceInit@i& (0+255),w,b
  2554  001B56  0D04               	mullw	4
  2555  001B58  0E00               	movlw	0
  2556  001B5A  24F3               	addwf	243,w,c
  2557  001B5C  6ED9               	movwf	fsr2l,c
  2558  001B5E  0E04               	movlw	4
  2559  001B60  20F4               	addwfc	prodh,w,c
  2560  001B62  6EDA               	movwf	fsr2h,c
  2561  001B64  6ADE               	clrf	postinc2,c
  2562  001B66  6ADE               	clrf	postinc2,c
  2563  001B68  6ADE               	clrf	postinc2,c
  2564  001B6A  6ADD               	clrf	postdec2,c
  2565  001B6C                     
  2566                           ; BSR set to: 0
  2567                           ;usb_device.c: 314:     }
  2568  001B6C  2BEA               	incf	USBDeviceInit@i& (0+255),f,b
  2569  001B6E                     
  2570                           ; BSR set to: 0
  2571  001B6E  0E0B               	movlw	11
  2572  001B70  65EA               	cpfsgt	USBDeviceInit@i& (0+255),b
  2573  001B72  EFBD  F00D         	goto	u6421
  2574  001B76  EFBF  F00D         	goto	u6420
  2575  001B7A                     u6421:
  2576  001B7A  EFAA  F00D         	goto	l7034
  2577  001B7E                     u6420:
  2578  001B7E                     
  2579                           ; BSR set to: 0
  2580                           ;usb_device.c: 317:     UCONbits.PPBRST = 1;
  2581  001B7E  8C6D               	bsf	109,6,c	;volatile
  2582  001B80                     
  2583                           ; BSR set to: 0
  2584                           ;usb_device.c: 320:     UADDR = 0x00;
  2585  001B80  0E00               	movlw	0
  2586  001B82  6E6E               	movwf	110,c	;volatile
  2587  001B84                     
  2588                           ; BSR set to: 0
  2589                           ;usb_device.c: 323:     UCONbits.PKTDIS = 0;
  2590  001B84  986D               	bcf	109,4,c	;volatile
  2591  001B86                     
  2592                           ; BSR set to: 0
  2593                           ;usb_device.c: 326:     UCONbits.PPBRST = 0;
  2594  001B86  9C6D               	bcf	109,6,c	;volatile
  2595  001B88                     l7046:
  2596                           
  2597                           ;usb_device.c: 330:     {;usb_device.c: 331:         (UIR &= 0xF7);
  2598  001B88  9668               	bcf	104,3,c	;volatile
  2599  001B8A                     
  2600                           ;usb_device.c: 333:         inPipes[0].info.Val = 0;
  2601  001B8A  0E00               	movlw	0
  2602  001B8C  6E0C               	movwf	(_inPipes+3)^0,c	;volatile
  2603  001B8E                     
  2604                           ;usb_device.c: 334:         outPipes[0].info.Val = 0;
  2605  001B8E  0E00               	movlw	0
  2606  001B90  6E04               	movwf	(_outPipes+3)^0,c	;volatile
  2607  001B92                     
  2608                           ;usb_device.c: 335:         outPipes[0].wCount.Val = 0;
  2609  001B92  0E00               	movlw	0
  2610  001B94  6E06               	movwf	(_outPipes+5)^0,c	;volatile
  2611  001B96  0E00               	movlw	0
  2612  001B98  6E05               	movwf	(_outPipes+4)^0,c	;volatile
  2613  001B9A                     
  2614                           ;usb_device.c: 336:     }while(UIRbits.TRNIF == 1);
  2615  001B9A  B668               	btfsc	104,3,c	;volatile
  2616  001B9C  EFD2  F00D         	goto	u6431
  2617  001BA0  EFD4  F00D         	goto	u6430
  2618  001BA4                     u6431:
  2619  001BA4  EFC4  F00D         	goto	l7046
  2620  001BA8                     u6430:
  2621  001BA8                     
  2622                           ;usb_device.c: 340:     USBStatusStageEnabledFlag1 = 1;
  2623  001BA8  0E01               	movlw	1
  2624  001BAA  6E22               	movwf	_USBStatusStageEnabledFlag1^0,c	;volatile
  2625                           
  2626                           ;usb_device.c: 341:     USBStatusStageEnabledFlag2 = 1;
  2627  001BAC  0E01               	movlw	1
  2628  001BAE  6E21               	movwf	_USBStatusStageEnabledFlag2^0,c	;volatile
  2629                           
  2630                           ;usb_device.c: 343:     USBDeferINDataStagePackets = 0;
  2631  001BB0  0E00               	movlw	0
  2632  001BB2  6E20               	movwf	_USBDeferINDataStagePackets^0,c	;volatile
  2633                           
  2634                           ;usb_device.c: 344:     USBDeferOUTDataStagePackets = 0;
  2635  001BB4  0E00               	movlw	0
  2636  001BB6  0100               	movlb	0	; () banked
  2637  001BB8  6FC9               	movwf	_USBDeferOUTDataStagePackets& (0+255),b	;volatile
  2638                           
  2639                           ;usb_device.c: 345:     USBBusIsSuspended = 0;
  2640  001BBA  0E00               	movlw	0
  2641  001BBC  6E25               	movwf	_USBBusIsSuspended^0,c	;volatile
  2642                           
  2643                           ;usb_device.c: 349:     for(i = 0; i < (uint8_t)(2 +1u); i++)
  2644  001BBE  0E00               	movlw	0
  2645  001BC0  6FEA               	movwf	USBDeviceInit@i& (0+255),b
  2646  001BC2                     l7062:
  2647                           
  2648                           ; BSR set to: 0
  2649                           ;usb_device.c: 350:     {;usb_device.c: 351:         pBDTEntryIn[i] = 0u;
  2650  001BC2  51EA               	movf	USBDeviceInit@i& (0+255),w,b
  2651  001BC4  0D02               	mullw	2
  2652  001BC6  0E0F               	movlw	low _pBDTEntryIn
  2653  001BC8  24F3               	addwf	243,w,c
  2654  001BCA  6ED9               	movwf	fsr2l,c
  2655  001BCC  0E00               	movlw	high _pBDTEntryIn
  2656  001BCE  20F4               	addwfc	prodh,w,c
  2657  001BD0  6EDA               	movwf	fsr2h,c
  2658  001BD2  0E00               	movlw	0
  2659  001BD4  6EDE               	movwf	postinc2,c
  2660  001BD6  0E00               	movlw	0
  2661  001BD8  6EDD               	movwf	postdec2,c
  2662                           
  2663                           ;usb_device.c: 352:         pBDTEntryOut[i] = 0u;
  2664  001BDA  51EA               	movf	USBDeviceInit@i& (0+255),w,b
  2665  001BDC  0D02               	mullw	2
  2666  001BDE  0EAA               	movlw	low _pBDTEntryOut
  2667  001BE0  24F3               	addwf	243,w,c
  2668  001BE2  6ED9               	movwf	fsr2l,c
  2669  001BE4  0E00               	movlw	high _pBDTEntryOut
  2670  001BE6  20F4               	addwfc	prodh,w,c
  2671  001BE8  6EDA               	movwf	fsr2h,c
  2672  001BEA  0E00               	movlw	0
  2673  001BEC  6EDE               	movwf	postinc2,c
  2674  001BEE  0E00               	movlw	0
  2675  001BF0  6EDD               	movwf	postdec2,c
  2676  001BF2                     
  2677                           ; BSR set to: 0
  2678                           ;usb_device.c: 353:         ep_data_in[i].Val = 0u;
  2679  001BF2  0E18               	movlw	low _ep_data_in
  2680  001BF4  25EA               	addwf	USBDeviceInit@i& (0+255),w,b
  2681  001BF6  6ED9               	movwf	fsr2l,c
  2682  001BF8  6ADA               	clrf	fsr2h,c
  2683  001BFA  0E00               	movlw	high _ep_data_in
  2684  001BFC  22DA               	addwfc	fsr2h,f,c
  2685  001BFE  0E00               	movlw	0
  2686  001C00  6EDF               	movwf	indf2,c
  2687  001C02                     
  2688                           ; BSR set to: 0
  2689                           ;usb_device.c: 354:         ep_data_out[i].Val = 0u;
  2690  001C02  0E15               	movlw	low _ep_data_out
  2691  001C04  25EA               	addwf	USBDeviceInit@i& (0+255),w,b
  2692  001C06  6ED9               	movwf	fsr2l,c
  2693  001C08  6ADA               	clrf	fsr2h,c
  2694  001C0A  0E00               	movlw	high _ep_data_out
  2695  001C0C  22DA               	addwfc	fsr2h,f,c
  2696  001C0E  0E00               	movlw	0
  2697  001C10  6EDF               	movwf	indf2,c
  2698  001C12                     
  2699                           ; BSR set to: 0
  2700                           ;usb_device.c: 355:     }
  2701  001C12  2BEA               	incf	USBDeviceInit@i& (0+255),f,b
  2702  001C14                     
  2703                           ; BSR set to: 0
  2704  001C14  0E02               	movlw	2
  2705  001C16  65EA               	cpfsgt	USBDeviceInit@i& (0+255),b
  2706  001C18  EF10  F00E         	goto	u6441
  2707  001C1C  EF12  F00E         	goto	u6440
  2708  001C20                     u6441:
  2709  001C20  EFE1  F00D         	goto	l7062
  2710  001C24                     u6440:
  2711  001C24                     
  2712                           ; BSR set to: 0
  2713                           ;usb_device.c: 358:     pBDTEntryIn[0] = (volatile BDT_ENTRY*)&BDT[2];
  2714  001C24  0E08               	movlw	8
  2715  001C26  6E0F               	movwf	_pBDTEntryIn^0,c
  2716  001C28  0E04               	movlw	4
  2717  001C2A  6E10               	movwf	(_pBDTEntryIn+1)^0,c
  2718  001C2C                     
  2719                           ; BSR set to: 0
  2720                           ;usb_device.c: 360:     UEP0 = 0x06|0x10;
  2721  001C2C  0E16               	movlw	22
  2722  001C2E  6E70               	movwf	112,c	;volatile
  2723  001C30                     
  2724                           ; BSR set to: 0
  2725                           ;usb_device.c: 362:     BDT[0].ADR = ((uint16_t)(&SetupPkt));
  2726  001C30  0E04               	movlw	4
  2727  001C32  0104               	movlb	4	; () banked
  2728  001C34  6F03               	movwf	3,b	;volatile
  2729  001C36  0E30               	movlw	48
  2730  001C38  6F02               	movwf	2,b	;volatile
  2731  001C3A                     
  2732                           ; BSR set to: 4
  2733                           ;usb_device.c: 363:     BDT[0].CNT = 32;
  2734  001C3A  0E20               	movlw	32
  2735  001C3C  6F01               	movwf	1,b	;volatile
  2736  001C3E                     
  2737                           ; BSR set to: 4
  2738                           ;usb_device.c: 364:     BDT[0].STAT.Val = 0x00|0x04;
  2739  001C3E  0E04               	movlw	4
  2740  001C40  6F00               	movwf	0,b	;volatile
  2741  001C42                     
  2742                           ; BSR set to: 4
  2743                           ;usb_device.c: 365:     BDT[0].STAT.Val |= 0x80;
  2744  001C42  8F00               	bsf	0,7,b	;volatile
  2745  001C44                     
  2746                           ; BSR set to: 4
  2747                           ;usb_device.c: 368:     USBActiveConfiguration = 0;
  2748  001C44  0E00               	movlw	0
  2749  001C46  6E2A               	movwf	_USBActiveConfiguration^0,c	;volatile
  2750  001C48                     
  2751                           ; BSR set to: 4
  2752                           ;usb_device.c: 370:     USB1msTickCount = 0;
  2753  001C48  0E00               	movlw	0
  2754  001C4A  0100               	movlb	0	; () banked
  2755  001C4C  6FB4               	movwf	_USB1msTickCount& (0+255),b	;volatile
  2756  001C4E  0E00               	movlw	0
  2757  001C50  6FB5               	movwf	(_USB1msTickCount+1)& (0+255),b	;volatile
  2758  001C52  0E00               	movlw	0
  2759  001C54  6FB6               	movwf	(_USB1msTickCount+2)& (0+255),b	;volatile
  2760  001C56  0E00               	movlw	0
  2761  001C58  6FB7               	movwf	(_USB1msTickCount+3)& (0+255),b	;volatile
  2762  001C5A                     
  2763                           ; BSR set to: 0
  2764                           ;usb_device.c: 371:     USBTicksSinceSuspendEnd = 0;
  2765  001C5A  0E00               	movlw	0
  2766  001C5C  6FC8               	movwf	_USBTicksSinceSuspendEnd& (0+255),b	;volatile
  2767  001C5E                     
  2768                           ; BSR set to: 0
  2769                           ;usb_device.c: 374:     USBDeviceState = DETACHED_STATE;
  2770  001C5E  0E00               	movlw	0
  2771  001C60  6E29               	movwf	_USBDeviceState^0,c	;volatile
  2772  001C62                     
  2773                           ; BSR set to: 0
  2774  001C62  0012               	return		;funcret
  2775  001C64                     __end_of_USBDeviceInit:
  2776                           	opt callstack 0
  2777                           
  2778 ;; *************** function _USBCtrlEPService *****************
  2779 ;; Defined at:
  2780 ;;		line 2378 in file "usb_device.c"
  2781 ;; Parameters:    Size  Location     Type
  2782 ;;		None
  2783 ;; Auto vars:     Size  Location     Type
  2784 ;;		None
  2785 ;; Return value:  Size  Location     Type
  2786 ;;                  1    wreg      void 
  2787 ;; Registers used:
  2788 ;;		wreg, fsr1l, fsr1h, fsr2l, fsr2h, status,2, status,0, tblptrl, tblptrh, tblptru, prodl, prodh, cstack
  2789 ;; Tracked objects:
  2790 ;;		On entry : 0/0
  2791 ;;		On exit  : 0/0
  2792 ;;		Unchanged: 0/0
  2793 ;; Data sizes:     COMRAM   BANK0   BANK1   BANK2   BANK3  BANK4h  BANK4l   BANK5   BANK6   BANK7
  2794 ;;      Params:         0       0       0       0       0       0       0       0       0       0
  2795 ;;      Locals:         0       0       0       0       0       0       0       0       0       0
  2796 ;;      Temps:          0       0       1       0       0       0       0       0       0       0
  2797 ;;      Totals:         0       0       1       0       0       0       0       0       0       0
  2798 ;;Total ram usage:        1 bytes
  2799 ;; Hardware stack levels used:    1
  2800 ;; Hardware stack levels required when called:   18
  2801 ;; This function calls:
  2802 ;;		_USBCtrlTrfInHandler
  2803 ;;		_USBCtrlTrfOutHandler
  2804 ;;		_USBCtrlTrfSetupHandler
  2805 ;;		_memcpy
  2806 ;; This function is called by:
  2807 ;;		_USBDeviceTasks
  2808 ;; This function uses a non-reentrant model
  2809 ;;
  2810                           
  2811                           	psect	text14
  2812  00336E                     __ptext14:
  2813                           	opt callstack 0
  2814  00336E                     _USBCtrlEPService:
  2815                           	opt callstack 11
  2816  00336E                     
  2817                           ;usb_device.c: 2384:         USBStatusStageTimeoutCounter = (uint8_t)45;
  2818  00336E  0E2D               	movlw	45
  2819  003370  0100               	movlb	0	; () banked
  2820  003372  6FCA               	movwf	_USBStatusStageTimeoutCounter& (0+255),b	;volatile
  2821  003374                     
  2822                           ; BSR set to: 0
  2823                           ;usb_device.c: 2388:     if((USTATcopy.Val & ~0x02) == 0x00)
  2824  003374  C0DD  F102         	movff	_USTATcopy,??_USBCtrlEPService	;volatile
  2825  003378  0EFD               	movlw	253
  2826  00337A  0101               	movlb	1	; () banked
  2827  00337C  1702               	andwf	??_USBCtrlEPService& (0+255),f,b
  2828  00337E  A4D8               	btfss	status,2,c
  2829  003380  EFC4  F019         	goto	u6531
  2830  003384  EFC6  F019         	goto	u6530
  2831  003388                     u6531:
  2832  003388  EF09  F01A         	goto	l7168
  2833  00338C                     u6530:
  2834  00338C                     
  2835                           ; BSR set to: 1
  2836                           ;usb_device.c: 2389:     {;usb_device.c: 2392:             pBDTEntryEP0OutCurrent = (vol
      +                          atile BDT_ENTRY*)&BDT[(USTATcopy.Val & 0x7E)>>1];
  2837  00338C  C0DD  F102         	movff	_USTATcopy,??_USBCtrlEPService	;volatile
  2838  003390  90D8               	bcf	status,0,c
  2839  003392  3302               	rrcf	??_USBCtrlEPService& (0+255),f,b
  2840  003394  0E3F               	movlw	63
  2841  003396  1702               	andwf	??_USBCtrlEPService& (0+255),f,b
  2842  003398  5102               	movf	??_USBCtrlEPService& (0+255),w,b
  2843  00339A  0D04               	mullw	4
  2844  00339C  0E00               	movlw	0
  2845  00339E  24F3               	addwf	243,w,c
  2846  0033A0  6E1D               	movwf	_pBDTEntryEP0OutCurrent^0,c
  2847  0033A2  0E04               	movlw	4
  2848  0033A4  20F4               	addwfc	prodh,w,c
  2849  0033A6  6E1E               	movwf	(_pBDTEntryEP0OutCurrent+1)^0,c
  2850  0033A8                     
  2851                           ; BSR set to: 1
  2852                           ;usb_device.c: 2400:         pBDTEntryEP0OutNext = pBDTEntryEP0OutCurrent;
  2853  0033A8  C01D  F01B         	movff	_pBDTEntryEP0OutCurrent,_pBDTEntryEP0OutNext
  2854  0033AC  C01E  F01C         	movff	_pBDTEntryEP0OutCurrent+1,_pBDTEntryEP0OutNext+1
  2855  0033B0                     
  2856                           ; BSR set to: 1
  2857                           ;usb_device.c: 2402:         pBDTEntryEP0OutNext = (volatile BDT_ENTRY*)(((uint16_t)pBDT
      +                          EntryEP0OutNext) ^ 0x0004);
  2858  0033B0  0E04               	movlw	4
  2859  0033B2  181B               	xorwf	_pBDTEntryEP0OutNext^0,w,c
  2860  0033B4  6E1B               	movwf	_pBDTEntryEP0OutNext^0,c
  2861  0033B6  501C               	movf	(_pBDTEntryEP0OutNext+1)^0,w,c
  2862  0033B8  6E1C               	movwf	(_pBDTEntryEP0OutNext+1)^0,c
  2863  0033BA                     
  2864                           ; BSR set to: 1
  2865                           ;usb_device.c: 2405:         if(pBDTEntryEP0OutCurrent->STAT.PID == 0xD)
  2866  0033BA  C01D  FFD9         	movff	_pBDTEntryEP0OutCurrent,fsr2l
  2867  0033BE  C01E  FFDA         	movff	_pBDTEntryEP0OutCurrent+1,fsr2h
  2868  0033C2  30DF               	rrcf	indf2,w,c
  2869  0033C4  32E8               	rrcf	wreg,f,c
  2870  0033C6  0B0F               	andlw	15
  2871  0033C8  0A0D               	xorlw	13
  2872  0033CA  A4D8               	btfss	status,2,c
  2873  0033CC  EFEA  F019         	goto	u6541
  2874  0033D0  EFEC  F019         	goto	u6540
  2875  0033D4                     u6541:
  2876  0033D4  EF05  F01A         	goto	l7166
  2877  0033D8                     u6540:
  2878  0033D8                     
  2879                           ; BSR set to: 1
  2880                           ;usb_device.c: 2406:         {;usb_device.c: 2411:             memcpy((uint8_t*)&SetupPk
      +                          t, (uint8_t*)((void *)(pBDTEntryEP0OutCurrent->ADR)), 8);
  2881  0033D8  0E30               	movlw	48
  2882  0033DA  0100               	movlb	0	; () banked
  2883  0033DC  6FDE               	movwf	memcpy@d1& (0+255),b
  2884  0033DE  0E04               	movlw	4
  2885  0033E0  6FDF               	movwf	(memcpy@d1+1)& (0+255),b
  2886  0033E2  EE20 F002          	lfsr	2,2
  2887  0033E6  501D               	movf	_pBDTEntryEP0OutCurrent^0,w,c
  2888  0033E8  26D9               	addwf	fsr2l,f,c
  2889  0033EA  501E               	movf	(_pBDTEntryEP0OutCurrent+1)^0,w,c
  2890  0033EC  22DA               	addwfc	fsr2h,f,c
  2891  0033EE  CFDE F0E0          	movff	postinc2,memcpy@s1
  2892  0033F2  CFDD F0E1          	movff	postdec2,memcpy@s1+1
  2893  0033F6  0E00               	movlw	0
  2894  0033F8  6FE3               	movwf	(memcpy@n+1)& (0+255),b
  2895  0033FA  0E08               	movlw	8
  2896  0033FC  6FE2               	movwf	memcpy@n& (0+255),b
  2897  0033FE  ECD6  F01E         	call	_memcpy	;wreg free
  2898  003402                     
  2899                           ;usb_device.c: 2414:             USBCtrlTrfSetupHandler();
  2900  003402  ECD0  F01B         	call	_USBCtrlTrfSetupHandler	;wreg free
  2901                           
  2902                           ;usb_device.c: 2415:         }
  2903  003406  EF16  F01A         	goto	l421
  2904  00340A                     l7166:
  2905                           
  2906                           ; BSR set to: 1
  2907                           ;usb_device.c: 2417:         {;usb_device.c: 2419:             USBCtrlTrfOutHandler();
  2908  00340A  ECEA  F01C         	call	_USBCtrlTrfOutHandler	;wreg free
  2909  00340E  EF16  F01A         	goto	l421
  2910  003412                     l7168:
  2911                           
  2912                           ; BSR set to: 1
  2913  003412  0100               	movlb	0	; () banked
  2914  003414  51DD               	movf	_USTATcopy& (0+255),w,b	;volatile
  2915  003416  0BFD               	andlw	253
  2916  003418  0A04               	xorlw	4
  2917  00341A  A4D8               	btfss	status,2,c
  2918  00341C  EF12  F01A         	goto	u6551
  2919  003420  EF14  F01A         	goto	u6550
  2920  003424                     u6551:
  2921  003424  EF16  F01A         	goto	l421
  2922  003428                     u6550:
  2923  003428                     
  2924                           ; BSR set to: 0
  2925                           ;usb_device.c: 2423:     {;usb_device.c: 2426:         USBCtrlTrfInHandler();
  2926  003428  EC53  F015         	call	_USBCtrlTrfInHandler	;wreg free
  2927  00342C                     l421:
  2928  00342C  0012               	return		;funcret
  2929  00342E                     __end_of_USBCtrlEPService:
  2930                           	opt callstack 0
  2931                           
  2932 ;; *************** function _memcpy *****************
  2933 ;; Defined at:
  2934 ;;		line 4 in file "C:\Program Files (x86)\Microchip\xc8\v2.10\pic\sources\c99\common\memcpy.c"
  2935 ;; Parameters:    Size  Location     Type
  2936 ;;  d1              2    0[BANK0 ] PTR void 
  2937 ;;		 -> SetupPkt(8), 
  2938 ;;  s1              2    2[BANK0 ] PTR const void 
  2939 ;;		 -> CtrlTrfData(32), RAM(2047), SetupPkt(8), 
  2940 ;;  n               2    4[BANK0 ] unsigned int 
  2941 ;; Auto vars:     Size  Location     Type
  2942 ;;  s               2    9[BANK0 ] PTR const unsigned char 
  2943 ;;		 -> CtrlTrfData(32), RAM(2047), SetupPkt(8), 
  2944 ;;  d               2    7[BANK0 ] PTR unsigned char 
  2945 ;;		 -> SetupPkt(8), 
  2946 ;;  tmp             1    6[BANK0 ] unsigned char 
  2947 ;; Return value:  Size  Location     Type
  2948 ;;                  2    0[BANK0 ] PTR void 
  2949 ;; Registers used:
  2950 ;;		wreg, fsr2l, fsr2h, status,2, status,0
  2951 ;; Tracked objects:
  2952 ;;		On entry : 0/0
  2953 ;;		On exit  : 0/0
  2954 ;;		Unchanged: 0/0
  2955 ;; Data sizes:     COMRAM   BANK0   BANK1   BANK2   BANK3  BANK4h  BANK4l   BANK5   BANK6   BANK7
  2956 ;;      Params:         0       6       0       0       0       0       0       0       0       0
  2957 ;;      Locals:         0       5       0       0       0       0       0       0       0       0
  2958 ;;      Temps:          0       0       0       0       0       0       0       0       0       0
  2959 ;;      Totals:         0      11       0       0       0       0       0       0       0       0
  2960 ;;Total ram usage:       11 bytes
  2961 ;; Hardware stack levels used:    1
  2962 ;; Hardware stack levels required when called:   11
  2963 ;; This function calls:
  2964 ;;		Nothing
  2965 ;; This function is called by:
  2966 ;;		_USBCtrlEPService
  2967 ;; This function uses a non-reentrant model
  2968 ;;
  2969                           
  2970                           	psect	text15
  2971  003DAC                     __ptext15:
  2972                           	opt callstack 0
  2973  003DAC                     _memcpy:
  2974                           	opt callstack 17
  2975  003DAC  C0E0  F0E7         	movff	memcpy@s1,memcpy@s
  2976  003DB0  C0E1  F0E8         	movff	memcpy@s1+1,memcpy@s+1
  2977  003DB4  C0DE  F0E5         	movff	memcpy@d1,memcpy@d
  2978  003DB8  C0DF  F0E6         	movff	memcpy@d1+1,memcpy@d+1
  2979  003DBC  EFF0  F01E         	goto	l6854
  2980  003DC0                     l6846:
  2981                           
  2982                           ; BSR set to: 0
  2983  003DC0  C0E7  FFD9         	movff	memcpy@s,fsr2l
  2984  003DC4  C0E8  FFDA         	movff	memcpy@s+1,fsr2h
  2985  003DC8  50DF               	movf	indf2,w,c
  2986  003DCA  6FE4               	movwf	memcpy@tmp& (0+255),b
  2987  003DCC                     
  2988                           ; BSR set to: 0
  2989  003DCC  4BE7               	infsnz	memcpy@s& (0+255),f,b
  2990  003DCE  2BE8               	incf	(memcpy@s+1)& (0+255),f,b
  2991  003DD0                     
  2992                           ; BSR set to: 0
  2993  003DD0  C0E5  FFD9         	movff	memcpy@d,fsr2l
  2994  003DD4  C0E6  FFDA         	movff	memcpy@d+1,fsr2h
  2995  003DD8  C0E4  FFDF         	movff	memcpy@tmp,indf2
  2996  003DDC                     
  2997                           ; BSR set to: 0
  2998  003DDC  4BE5               	infsnz	memcpy@d& (0+255),f,b
  2999  003DDE  2BE6               	incf	(memcpy@d+1)& (0+255),f,b
  3000  003DE0                     l6854:
  3001  003DE0  0100               	movlb	0	; () banked
  3002  003DE2  07E2               	decf	memcpy@n& (0+255),f,b
  3003  003DE4  A0D8               	btfss	status,0,c
  3004  003DE6  07E3               	decf	(memcpy@n+1)& (0+255),f,b
  3005  003DE8  29E2               	incf	memcpy@n& (0+255),w,b
  3006  003DEA  E106               	bnz	u6201
  3007  003DEC  29E3               	incf	(memcpy@n+1)& (0+255),w,b
  3008  003DEE  A4D8               	btfss	status,2,c
  3009  003DF0  EFFC  F01E         	goto	u6201
  3010  003DF4  EFFE  F01E         	goto	u6200
  3011  003DF8                     u6201:
  3012  003DF8  EFE0  F01E         	goto	l6846
  3013  003DFC                     u6200:
  3014  003DFC                     
  3015                           ; BSR set to: 0
  3016  003DFC  0012               	return		;funcret
  3017  003DFE                     __end_of_memcpy:
  3018                           	opt callstack 0
  3019                           
  3020 ;; *************** function _USBCtrlTrfSetupHandler *****************
  3021 ;; Defined at:
  3022 ;;		line 2471 in file "usb_device.c"
  3023 ;; Parameters:    Size  Location     Type
  3024 ;;		None
  3025 ;; Auto vars:     Size  Location     Type
  3026 ;;		None
  3027 ;; Return value:  Size  Location     Type
  3028 ;;                  1    wreg      void 
  3029 ;; Registers used:
  3030 ;;		wreg, fsr1l, fsr1h, fsr2l, fsr2h, status,2, status,0, tblptrl, tblptrh, tblptru, prodl, prodh, cstack
  3031 ;; Tracked objects:
  3032 ;;		On entry : 0/0
  3033 ;;		On exit  : 0/0
  3034 ;;		Unchanged: 0/0
  3035 ;; Data sizes:     COMRAM   BANK0   BANK1   BANK2   BANK3  BANK4h  BANK4l   BANK5   BANK6   BANK7
  3036 ;;      Params:         0       0       0       0       0       0       0       0       0       0
  3037 ;;      Locals:         0       0       0       0       0       0       0       0       0       0
  3038 ;;      Temps:          0       0       0       0       0       0       0       0       0       0
  3039 ;;      Totals:         0       0       0       0       0       0       0       0       0       0
  3040 ;;Total ram usage:        0 bytes
  3041 ;; Hardware stack levels used:    1
  3042 ;; Hardware stack levels required when called:   17
  3043 ;; This function calls:
  3044 ;;		_USBCheckStdRequest
  3045 ;;		_USBCtrlEPServiceComplete
  3046 ;;		_USER_USB_CALLBACK_EVENT_HANDLER
  3047 ;; This function is called by:
  3048 ;;		_USBCtrlEPService
  3049 ;; This function uses a non-reentrant model
  3050 ;;
  3051                           
  3052                           	psect	text16
  3053  0037A0                     __ptext16:
  3054                           	opt callstack 0
  3055  0037A0                     _USBCtrlTrfSetupHandler:
  3056                           	opt callstack 11
  3057  0037A0                     
  3058                           ;usb_device.c: 2476:     shortPacketStatus = 0;
  3059  0037A0  0E00               	movlw	0
  3060  0037A2  6E28               	movwf	_shortPacketStatus^0,c	;volatile
  3061                           
  3062                           ;usb_device.c: 2477:     USBDeferStatusStagePacket = 0;
  3063  0037A4  0E00               	movlw	0
  3064  0037A6  6E23               	movwf	_USBDeferStatusStagePacket^0,c	;volatile
  3065                           
  3066                           ;usb_device.c: 2478:     USBDeferINDataStagePackets = 0;
  3067  0037A8  0E00               	movlw	0
  3068  0037AA  6E20               	movwf	_USBDeferINDataStagePackets^0,c	;volatile
  3069                           
  3070                           ;usb_device.c: 2479:     USBDeferOUTDataStagePackets = 0;
  3071  0037AC  0E00               	movlw	0
  3072  0037AE  0100               	movlb	0	; () banked
  3073  0037B0  6FC9               	movwf	_USBDeferOUTDataStagePackets& (0+255),b	;volatile
  3074                           
  3075                           ;usb_device.c: 2480:     BothEP0OutUOWNsSet = 0;
  3076  0037B2  0E00               	movlw	0
  3077  0037B4  6E24               	movwf	_BothEP0OutUOWNsSet^0,c	;volatile
  3078                           
  3079                           ;usb_device.c: 2481:     controlTransferState = 0;
  3080  0037B6  0E00               	movlw	0
  3081  0037B8  6E27               	movwf	_controlTransferState^0,c	;volatile
  3082  0037BA                     
  3083                           ; BSR set to: 0
  3084                           ;usb_device.c: 2490:     pBDTEntryIn[0]->STAT.Val &= ~(0x80);
  3085  0037BA  C00F  FFD9         	movff	_pBDTEntryIn,fsr2l
  3086  0037BE  C010  FFDA         	movff	_pBDTEntryIn+1,fsr2h
  3087  0037C2  0E7F               	movlw	127
  3088  0037C4  16DF               	andwf	indf2,f,c
  3089  0037C6                     
  3090                           ; BSR set to: 0
  3091                           ;usb_device.c: 2492:     pBDTEntryIn[0] = (volatile BDT_ENTRY*)(((uint16_t)pBDTEntryIn[0
      +                          ]) ^ 0x0004);
  3092  0037C6  0E04               	movlw	4
  3093  0037C8  180F               	xorwf	_pBDTEntryIn^0,w,c
  3094  0037CA  6E0F               	movwf	_pBDTEntryIn^0,c
  3095  0037CC  5010               	movf	(_pBDTEntryIn+1)^0,w,c
  3096  0037CE  6E10               	movwf	(_pBDTEntryIn+1)^0,c
  3097  0037D0                     
  3098                           ; BSR set to: 0
  3099                           ;usb_device.c: 2493:     pBDTEntryIn[0]->STAT.Val &= ~(0x80);
  3100  0037D0  C00F  FFD9         	movff	_pBDTEntryIn,fsr2l
  3101  0037D4  C010  FFDA         	movff	_pBDTEntryIn+1,fsr2h
  3102  0037D8  0E7F               	movlw	127
  3103  0037DA  16DF               	andwf	indf2,f,c
  3104  0037DC                     
  3105                           ; BSR set to: 0
  3106                           ;usb_device.c: 2494:     pBDTEntryIn[0] = (volatile BDT_ENTRY*)(((uint16_t)pBDTEntryIn[0
      +                          ]) ^ 0x0004);
  3107  0037DC  0E04               	movlw	4
  3108  0037DE  180F               	xorwf	_pBDTEntryIn^0,w,c
  3109  0037E0  6E0F               	movwf	_pBDTEntryIn^0,c
  3110  0037E2  5010               	movf	(_pBDTEntryIn+1)^0,w,c
  3111  0037E4  6E10               	movwf	(_pBDTEntryIn+1)^0,c
  3112  0037E6                     
  3113                           ; BSR set to: 0
  3114                           ;usb_device.c: 2495:     pBDTEntryEP0OutNext->STAT.Val &= ~(0x80);
  3115  0037E6  C01B  FFD9         	movff	_pBDTEntryEP0OutNext,fsr2l
  3116  0037EA  C01C  FFDA         	movff	_pBDTEntryEP0OutNext+1,fsr2h
  3117  0037EE  0E7F               	movlw	127
  3118  0037F0  16DF               	andwf	indf2,f,c
  3119  0037F2                     
  3120                           ; BSR set to: 0
  3121                           ;usb_device.c: 2497:     inPipes[0].info.Val = 0;
  3122  0037F2  0E00               	movlw	0
  3123  0037F4  6E0C               	movwf	(_inPipes+3)^0,c	;volatile
  3124  0037F6                     
  3125                           ; BSR set to: 0
  3126                           ;usb_device.c: 2498:     inPipes[0].wCount.Val = 0;
  3127  0037F6  0E00               	movlw	0
  3128  0037F8  6E0E               	movwf	(_inPipes+5)^0,c	;volatile
  3129  0037FA  0E00               	movlw	0
  3130  0037FC  6E0D               	movwf	(_inPipes+4)^0,c	;volatile
  3131  0037FE                     
  3132                           ; BSR set to: 0
  3133                           ;usb_device.c: 2499:     outPipes[0].info.Val = 0;
  3134  0037FE  0E00               	movlw	0
  3135  003800  6E04               	movwf	(_outPipes+3)^0,c	;volatile
  3136  003802                     
  3137                           ; BSR set to: 0
  3138                           ;usb_device.c: 2500:     outPipes[0].wCount.Val = 0;
  3139  003802  0E00               	movlw	0
  3140  003804  6E06               	movwf	(_outPipes+5)^0,c	;volatile
  3141  003806  0E00               	movlw	0
  3142  003808  6E05               	movwf	(_outPipes+4)^0,c	;volatile
  3143  00380A                     
  3144                           ; BSR set to: 0
  3145                           ;usb_device.c: 2506:     USBCheckStdRequest();
  3146  00380A  EC9C  F012         	call	_USBCheckStdRequest	;wreg free
  3147  00380E                     
  3148                           ;usb_device.c: 2507:     USER_USB_CALLBACK_EVENT_HANDLER((USB_EVENT)EVENT_EP0_REQUEST,0,
      +                          0);
  3149  00380E  0E00               	movlw	0
  3150  003810  0100               	movlb	0	; () banked
  3151  003812  6FEB               	movwf	(USER_USB_CALLBACK_EVENT_HANDLER@event+1)& (0+255),b
  3152  003814  0E03               	movlw	3
  3153  003816  6FEA               	movwf	USER_USB_CALLBACK_EVENT_HANDLER@event& (0+255),b
  3154  003818  0E00               	movlw	0
  3155  00381A  6FEC               	movwf	USER_USB_CALLBACK_EVENT_HANDLER@pdata& (0+255),b
  3156  00381C  0E00               	movlw	0
  3157  00381E  6FED               	movwf	(USER_USB_CALLBACK_EVENT_HANDLER@pdata+1)& (0+255),b
  3158  003820  0E00               	movlw	0
  3159  003822  6FEF               	movwf	(USER_USB_CALLBACK_EVENT_HANDLER@size+1)& (0+255),b
  3160  003824  0E00               	movlw	0
  3161  003826  6FEE               	movwf	USER_USB_CALLBACK_EVENT_HANDLER@size& (0+255),b
  3162  003828  EC61  F01C         	call	_USER_USB_CALLBACK_EVENT_HANDLER	;wreg free
  3163  00382C                     
  3164                           ;usb_device.c: 2520:     USBCtrlEPServiceComplete();
  3165  00382C  EC79  F00F         	call	_USBCtrlEPServiceComplete	;wreg free
  3166  003830  0012               	return		;funcret
  3167  003832                     __end_of_USBCtrlTrfSetupHandler:
  3168                           	opt callstack 0
  3169                           
  3170 ;; *************** function _USBCtrlEPServiceComplete *****************
  3171 ;; Defined at:
  3172 ;;		line 1622 in file "usb_device.c"
  3173 ;; Parameters:    Size  Location     Type
  3174 ;;		None
  3175 ;; Auto vars:     Size  Location     Type
  3176 ;;		None
  3177 ;; Return value:  Size  Location     Type
  3178 ;;                  1    wreg      void 
  3179 ;; Registers used:
  3180 ;;		wreg, fsr1l, fsr1h, fsr2l, fsr2h, status,2, status,0, tblptrl, tblptrh, tblptru, cstack
  3181 ;; Tracked objects:
  3182 ;;		On entry : 0/0
  3183 ;;		On exit  : 0/0
  3184 ;;		Unchanged: 0/0
  3185 ;; Data sizes:     COMRAM   BANK0   BANK1   BANK2   BANK3  BANK4h  BANK4l   BANK5   BANK6   BANK7
  3186 ;;      Params:         0       0       0       0       0       0       0       0       0       0
  3187 ;;      Locals:         0       0       0       0       0       0       0       0       0       0
  3188 ;;      Temps:          0       0       0       0       0       0       0       0       0       0
  3189 ;;      Totals:         0       0       0       0       0       0       0       0       0       0
  3190 ;;Total ram usage:        0 bytes
  3191 ;; Hardware stack levels used:    1
  3192 ;; Hardware stack levels required when called:   13
  3193 ;; This function calls:
  3194 ;;		_USBCtrlEPAllowDataStage
  3195 ;;		_USBCtrlEPAllowStatusStage
  3196 ;; This function is called by:
  3197 ;;		_USBCtrlTrfSetupHandler
  3198 ;; This function uses a non-reentrant model
  3199 ;;
  3200                           
  3201                           	psect	text17
  3202  001EF2                     __ptext17:
  3203                           	opt callstack 0
  3204  001EF2                     _USBCtrlEPServiceComplete:
  3205                           	opt callstack 14
  3206  001EF2                     
  3207                           ;usb_device.c: 1628:     UCONbits.PKTDIS = 0;
  3208  001EF2  986D               	bcf	109,4,c	;volatile
  3209                           
  3210                           ;usb_device.c: 1634:     if(inPipes[0].info.bits.busy == 0)
  3211  001EF4  BE0C               	btfsc	(_inPipes+3)^0,7,c	;volatile
  3212  001EF6  EF7F  F00F         	goto	u6071
  3213  001EFA  EF81  F00F         	goto	u6070
  3214  001EFE                     u6071:
  3215  001EFE  EFC7  F00F         	goto	l326
  3216  001F02                     u6070:
  3217  001F02                     
  3218                           ;usb_device.c: 1635:     {;usb_device.c: 1636:         if(outPipes[0].info.bits.busy == 
      +                          1)
  3219  001F02  AE04               	btfss	(_outPipes+3)^0,7,c	;volatile
  3220  001F04  EF86  F00F         	goto	u6081
  3221  001F08  EF88  F00F         	goto	u6080
  3222  001F0C                     u6081:
  3223  001F0C  EF9B  F00F         	goto	l6718
  3224  001F10                     u6080:
  3225  001F10                     
  3226                           ;usb_device.c: 1637:         {;usb_device.c: 1638:             controlTransferState = 2;
  3227  001F10  0E02               	movlw	2
  3228  001F12  6E27               	movwf	_controlTransferState^0,c	;volatile
  3229                           
  3230                           ;usb_device.c: 1649:             if(USBDeferOUTDataStagePackets == 0)
  3231  001F14  0100               	movlb	0	; () banked
  3232  001F16  51C9               	movf	_USBDeferOUTDataStagePackets& (0+255),w,b	;volatile
  3233  001F18  A4D8               	btfss	status,2,c
  3234  001F1A  EF91  F00F         	goto	u6091
  3235  001F1E  EF93  F00F         	goto	u6090
  3236  001F22                     u6091:
  3237  001F22  EF95  F00F         	goto	l6714
  3238  001F26                     u6090:
  3239  001F26                     
  3240                           ; BSR set to: 0
  3241                           ;usb_device.c: 1650:             {;usb_device.c: 1651:                 USBCtrlEPAllowDat
      +                          aStage();
  3242  001F26  ECCC  F01A         	call	_USBCtrlEPAllowDataStage	;wreg free
  3243  001F2A                     l6714:
  3244                           
  3245                           ;usb_device.c: 1656:             USBStatusStageEnabledFlag2 = 0;
  3246  001F2A  0E00               	movlw	0
  3247  001F2C  6E21               	movwf	_USBStatusStageEnabledFlag2^0,c	;volatile
  3248  001F2E                     
  3249                           ;usb_device.c: 1657:             USBStatusStageEnabledFlag1 = 0;
  3250  001F2E  0E00               	movlw	0
  3251  001F30  6E22               	movwf	_USBStatusStageEnabledFlag1^0,c	;volatile
  3252                           
  3253                           ;usb_device.c: 1658:         }
  3254  001F32  EF19  F010         	goto	l336
  3255  001F36                     l6718:
  3256                           
  3257                           ;usb_device.c: 1660:         {;usb_device.c: 1665:             pBDTEntryEP0OutNext->CNT 
      +                          = 32;
  3258  001F36  EE20 F001          	lfsr	2,1
  3259  001F3A  501B               	movf	_pBDTEntryEP0OutNext^0,w,c
  3260  001F3C  26D9               	addwf	fsr2l,f,c
  3261  001F3E  501C               	movf	(_pBDTEntryEP0OutNext+1)^0,w,c
  3262  001F40  22DA               	addwfc	fsr2h,f,c
  3263  001F42  0E20               	movlw	32
  3264  001F44  6EDF               	movwf	indf2,c
  3265                           
  3266                           ;usb_device.c: 1666:             pBDTEntryEP0OutNext->ADR = ((uint16_t)(&SetupPkt));
  3267  001F46  EE20 F002          	lfsr	2,2
  3268  001F4A  501B               	movf	_pBDTEntryEP0OutNext^0,w,c
  3269  001F4C  26D9               	addwf	fsr2l,f,c
  3270  001F4E  501C               	movf	(_pBDTEntryEP0OutNext+1)^0,w,c
  3271  001F50  22DA               	addwfc	fsr2h,f,c
  3272  001F52  0E30               	movlw	48
  3273  001F54  6EDE               	movwf	postinc2,c
  3274  001F56  0E04               	movlw	4
  3275  001F58  6EDD               	movwf	postdec2,c
  3276  001F5A                     
  3277                           ;usb_device.c: 1667:             pBDTEntryEP0OutNext->STAT.Val = 0x00|(0x08 & 0x08)|0x04
      +                          ;
  3278  001F5A  C01B  FFD9         	movff	_pBDTEntryEP0OutNext,fsr2l
  3279  001F5E  C01C  FFDA         	movff	_pBDTEntryEP0OutNext+1,fsr2h
  3280  001F62  0E0C               	movlw	12
  3281  001F64  6EDF               	movwf	indf2,c
  3282  001F66                     
  3283                           ;usb_device.c: 1668:             pBDTEntryEP0OutNext->STAT.Val |= 0x80;
  3284  001F66  C01B  FFD9         	movff	_pBDTEntryEP0OutNext,fsr2l
  3285  001F6A  C01C  FFDA         	movff	_pBDTEntryEP0OutNext+1,fsr2h
  3286  001F6E  0E00               	movlw	0
  3287  001F70  8EDB               	bsf	plusw2,7,c
  3288                           
  3289                           ;usb_device.c: 1669:             pBDTEntryIn[0]->STAT.Val = 0x04;
  3290  001F72  C00F  FFD9         	movff	_pBDTEntryIn,fsr2l
  3291  001F76  C010  FFDA         	movff	_pBDTEntryIn+1,fsr2h
  3292  001F7A  0E04               	movlw	4
  3293  001F7C  6EDF               	movwf	indf2,c
  3294  001F7E                     
  3295                           ;usb_device.c: 1670:             pBDTEntryIn[0]->STAT.Val |= 0x80;
  3296  001F7E  C00F  FFD9         	movff	_pBDTEntryIn,fsr2l
  3297  001F82  C010  FFDA         	movff	_pBDTEntryIn+1,fsr2h
  3298  001F86  0E00               	movlw	0
  3299  001F88  8EDB               	bsf	plusw2,7,c
  3300  001F8A  EF19  F010         	goto	l336
  3301  001F8E                     l326:
  3302                           
  3303                           ;usb_device.c: 1674:     {;usb_device.c: 1675:   if(SetupPkt.DataDir == (0x80>>7))
  3304  001F8E  0104               	movlb	4	; () banked
  3305  001F90  AF30               	btfss	48,7,b	;volatile
  3306  001F92  EFCD  F00F         	goto	u6101
  3307  001F96  EFCF  F00F         	goto	u6100
  3308  001F9A                     u6101:
  3309  001F9A  EFEB  F00F         	goto	l6738
  3310  001F9E                     u6100:
  3311  001F9E                     
  3312                           ; BSR set to: 4
  3313                           ;usb_device.c: 1676:   {;usb_device.c: 1677:    controlTransferState = 1;
  3314  001F9E  0E01               	movlw	1
  3315  001FA0  6E27               	movwf	_controlTransferState^0,c	;volatile
  3316                           
  3317                           ;usb_device.c: 1691:    if(USBDeferINDataStagePackets == 0)
  3318  001FA2  5020               	movf	_USBDeferINDataStagePackets^0,w,c	;volatile
  3319  001FA4  A4D8               	btfss	status,2,c
  3320  001FA6  EFD7  F00F         	goto	u6111
  3321  001FAA  EFD9  F00F         	goto	u6110
  3322  001FAE                     u6111:
  3323  001FAE  EFDB  F00F         	goto	l6730
  3324  001FB2                     u6110:
  3325  001FB2                     
  3326                           ; BSR set to: 4
  3327                           ;usb_device.c: 1692:             {;usb_device.c: 1693:                 USBCtrlEPAllowDat
      +                          aStage();
  3328  001FB2  ECCC  F01A         	call	_USBCtrlEPAllowDataStage	;wreg free
  3329  001FB6                     l6730:
  3330                           
  3331                           ;usb_device.c: 1716:             USBStatusStageEnabledFlag2 = 0;
  3332  001FB6  0E00               	movlw	0
  3333  001FB8  6E21               	movwf	_USBStatusStageEnabledFlag2^0,c	;volatile
  3334  001FBA                     
  3335                           ;usb_device.c: 1717:             USBStatusStageEnabledFlag1 = 0;
  3336  001FBA  0E00               	movlw	0
  3337  001FBC  6E22               	movwf	_USBStatusStageEnabledFlag1^0,c	;volatile
  3338  001FBE                     
  3339                           ;usb_device.c: 1718:             if(USBDeferStatusStagePacket == 0)
  3340  001FBE  5023               	movf	_USBDeferStatusStagePacket^0,w,c	;volatile
  3341  001FC0  A4D8               	btfss	status,2,c
  3342  001FC2  EFE5  F00F         	goto	u6121
  3343  001FC6  EFE7  F00F         	goto	u6120
  3344  001FCA                     u6121:
  3345  001FCA  EF19  F010         	goto	l336
  3346  001FCE                     u6120:
  3347  001FCE                     l6736:
  3348                           
  3349                           ;usb_device.c: 1719:             {;usb_device.c: 1720:                 USBCtrlEPAllowSta
      +                          tusStage();
  3350  001FCE  ECDD  F017         	call	_USBCtrlEPAllowStatusStage	;wreg free
  3351  001FD2  EF19  F010         	goto	l336
  3352  001FD6                     l6738:
  3353                           
  3354                           ; BSR set to: 4
  3355                           ;usb_device.c: 1724:   {;usb_device.c: 1735:    controlTransferState = 2;
  3356  001FD6  0E02               	movlw	2
  3357  001FD8  6E27               	movwf	_controlTransferState^0,c	;volatile
  3358  001FDA                     
  3359                           ; BSR set to: 4
  3360                           ;usb_device.c: 1738:    pBDTEntryEP0OutNext->CNT = 32;
  3361  001FDA  EE20 F001          	lfsr	2,1
  3362  001FDE  501B               	movf	_pBDTEntryEP0OutNext^0,w,c
  3363  001FE0  26D9               	addwf	fsr2l,f,c
  3364  001FE2  501C               	movf	(_pBDTEntryEP0OutNext+1)^0,w,c
  3365  001FE4  22DA               	addwfc	fsr2h,f,c
  3366  001FE6  0E20               	movlw	32
  3367  001FE8  6EDF               	movwf	indf2,c
  3368  001FEA                     
  3369                           ; BSR set to: 4
  3370                           ;usb_device.c: 1739:    pBDTEntryEP0OutNext->ADR = ((uint16_t)(&SetupPkt));
  3371  001FEA  EE20 F002          	lfsr	2,2
  3372  001FEE  501B               	movf	_pBDTEntryEP0OutNext^0,w,c
  3373  001FF0  26D9               	addwf	fsr2l,f,c
  3374  001FF2  501C               	movf	(_pBDTEntryEP0OutNext+1)^0,w,c
  3375  001FF4  22DA               	addwfc	fsr2h,f,c
  3376  001FF6  0E30               	movlw	48
  3377  001FF8  6EDE               	movwf	postinc2,c
  3378  001FFA  0E04               	movlw	4
  3379  001FFC  6EDD               	movwf	postdec2,c
  3380  001FFE                     
  3381                           ; BSR set to: 4
  3382                           ;usb_device.c: 1740:    pBDTEntryEP0OutNext->STAT.Val = 0x04;
  3383  001FFE  C01B  FFD9         	movff	_pBDTEntryEP0OutNext,fsr2l
  3384  002002  C01C  FFDA         	movff	_pBDTEntryEP0OutNext+1,fsr2h
  3385  002006  0E04               	movlw	4
  3386  002008  6EDF               	movwf	indf2,c
  3387  00200A                     
  3388                           ; BSR set to: 4
  3389                           ;usb_device.c: 1741:             pBDTEntryEP0OutNext->STAT.Val |= 0x80;
  3390  00200A  C01B  FFD9         	movff	_pBDTEntryEP0OutNext,fsr2l
  3391  00200E  C01C  FFDA         	movff	_pBDTEntryEP0OutNext+1,fsr2h
  3392  002012  0E00               	movlw	0
  3393  002014  8EDB               	bsf	plusw2,7,c
  3394  002016                     
  3395                           ; BSR set to: 4
  3396                           ;usb_device.c: 1744:             USBStatusStageEnabledFlag2 = 0;
  3397  002016  0E00               	movlw	0
  3398  002018  6E21               	movwf	_USBStatusStageEnabledFlag2^0,c	;volatile
  3399  00201A                     
  3400                           ; BSR set to: 4
  3401                           ;usb_device.c: 1745:             USBStatusStageEnabledFlag1 = 0;
  3402  00201A  0E00               	movlw	0
  3403  00201C  6E22               	movwf	_USBStatusStageEnabledFlag1^0,c	;volatile
  3404  00201E                     
  3405                           ; BSR set to: 4
  3406                           ;usb_device.c: 1746:    if(USBDeferStatusStagePacket == 0)
  3407  00201E  5023               	movf	_USBDeferStatusStagePacket^0,w,c	;volatile
  3408  002020  A4D8               	btfss	status,2,c
  3409  002022  EF15  F010         	goto	u6131
  3410  002026  EF17  F010         	goto	u6130
  3411  00202A                     u6131:
  3412  00202A  EF19  F010         	goto	l336
  3413  00202E                     u6130:
  3414  00202E  EFE7  F00F         	goto	l6736
  3415  002032                     l336:
  3416  002032  0012               	return		;funcret
  3417  002034                     __end_of_USBCtrlEPServiceComplete:
  3418                           	opt callstack 0
  3419                           
  3420 ;; *************** function _USBCtrlEPAllowDataStage *****************
  3421 ;; Defined at:
  3422 ;;		line 1494 in file "usb_device.c"
  3423 ;; Parameters:    Size  Location     Type
  3424 ;;		None
  3425 ;; Auto vars:     Size  Location     Type
  3426 ;;		None
  3427 ;; Return value:  Size  Location     Type
  3428 ;;                  1    wreg      void 
  3429 ;; Registers used:
  3430 ;;		wreg, fsr1l, fsr1h, fsr2l, fsr2h, status,2, status,0, tblptrl, tblptrh, tblptru, cstack
  3431 ;; Tracked objects:
  3432 ;;		On entry : 0/0
  3433 ;;		On exit  : 0/0
  3434 ;;		Unchanged: 0/0
  3435 ;; Data sizes:     COMRAM   BANK0   BANK1   BANK2   BANK3  BANK4h  BANK4l   BANK5   BANK6   BANK7
  3436 ;;      Params:         0       0       0       0       0       0       0       0       0       0
  3437 ;;      Locals:         0       0       0       0       0       0       0       0       0       0
  3438 ;;      Temps:          0       0       0       0       0       0       0       0       0       0
  3439 ;;      Totals:         0       0       0       0       0       0       0       0       0       0
  3440 ;;Total ram usage:        0 bytes
  3441 ;; Hardware stack levels used:    1
  3442 ;; Hardware stack levels required when called:   12
  3443 ;; This function calls:
  3444 ;;		_USBCtrlTrfTxService
  3445 ;; This function is called by:
  3446 ;;		_USBCtrlEPServiceComplete
  3447 ;; This function uses a non-reentrant model
  3448 ;;
  3449                           
  3450                           	psect	text18
  3451  003598                     __ptext18:
  3452                           	opt callstack 0
  3453  003598                     _USBCtrlEPAllowDataStage:
  3454                           	opt callstack 14
  3455  003598                     
  3456                           ;usb_device.c: 1496:     USBDeferINDataStagePackets = 0;
  3457  003598  0E00               	movlw	0
  3458  00359A  6E20               	movwf	_USBDeferINDataStagePackets^0,c	;volatile
  3459                           
  3460                           ;usb_device.c: 1497:     USBDeferOUTDataStagePackets = 0;
  3461  00359C  0E00               	movlw	0
  3462  00359E  0100               	movlb	0	; () banked
  3463  0035A0  6FC9               	movwf	_USBDeferOUTDataStagePackets& (0+255),b	;volatile
  3464  0035A2                     
  3465                           ; BSR set to: 0
  3466                           ;usb_device.c: 1499:     if(controlTransferState == 2)
  3467  0035A2  0E02               	movlw	2
  3468  0035A4  1827               	xorwf	_controlTransferState^0,w,c	;volatile
  3469  0035A6  A4D8               	btfss	status,2,c
  3470  0035A8  EFD8  F01A         	goto	u5741
  3471  0035AC  EFDA  F01A         	goto	u5740
  3472  0035B0                     u5741:
  3473  0035B0  EFFA  F01A         	goto	l6500
  3474  0035B4                     u5740:
  3475  0035B4                     
  3476                           ; BSR set to: 0
  3477                           ;usb_device.c: 1500:     {;usb_device.c: 1502:         pBDTEntryEP0OutNext->CNT = 32;
  3478  0035B4  EE20 F001          	lfsr	2,1
  3479  0035B8  501B               	movf	_pBDTEntryEP0OutNext^0,w,c
  3480  0035BA  26D9               	addwf	fsr2l,f,c
  3481  0035BC  501C               	movf	(_pBDTEntryEP0OutNext+1)^0,w,c
  3482  0035BE  22DA               	addwfc	fsr2h,f,c
  3483  0035C0  0E20               	movlw	32
  3484  0035C2  6EDF               	movwf	indf2,c
  3485                           
  3486                           ;usb_device.c: 1503:         pBDTEntryEP0OutNext->ADR = ((uint16_t)(&CtrlTrfData));
  3487  0035C4  EE20 F002          	lfsr	2,2
  3488  0035C8  501B               	movf	_pBDTEntryEP0OutNext^0,w,c
  3489  0035CA  26D9               	addwf	fsr2l,f,c
  3490  0035CC  501C               	movf	(_pBDTEntryEP0OutNext+1)^0,w,c
  3491  0035CE  22DA               	addwfc	fsr2h,f,c
  3492  0035D0  0E50               	movlw	80
  3493  0035D2  6EDE               	movwf	postinc2,c
  3494  0035D4  0E04               	movlw	4
  3495  0035D6  6EDD               	movwf	postdec2,c
  3496  0035D8                     
  3497                           ; BSR set to: 0
  3498                           ;usb_device.c: 1504:         pBDTEntryEP0OutNext->STAT.Val = 0x40|(0x08 & 0x08);
  3499  0035D8  C01B  FFD9         	movff	_pBDTEntryEP0OutNext,fsr2l
  3500  0035DC  C01C  FFDA         	movff	_pBDTEntryEP0OutNext+1,fsr2h
  3501  0035E0  0E48               	movlw	72
  3502  0035E2  6EDF               	movwf	indf2,c
  3503  0035E4                     
  3504                           ; BSR set to: 0
  3505                           ;usb_device.c: 1505:         pBDTEntryEP0OutNext->STAT.Val |= 0x80;
  3506  0035E4  C01B  FFD9         	movff	_pBDTEntryEP0OutNext,fsr2l
  3507  0035E8  C01C  FFDA         	movff	_pBDTEntryEP0OutNext+1,fsr2h
  3508  0035EC  0E00               	movlw	0
  3509  0035EE  8EDB               	bsf	plusw2,7,c
  3510                           
  3511                           ;usb_device.c: 1506:     }
  3512  0035F0  EF22  F01B         	goto	l318
  3513  0035F4                     l6500:
  3514                           
  3515                           ; BSR set to: 0
  3516                           ;usb_device.c: 1508:     {;usb_device.c: 1511:   if(SetupPkt.wLength < inPipes[0].wCount
      +                          .Val)
  3517  0035F4  500D               	movf	(_inPipes+4)^0,w,c	;volatile
  3518  0035F6  0104               	movlb	4	; () banked
  3519  0035F8  5D36               	subwf	54,w,b	;volatile
  3520  0035FA  500E               	movf	(_inPipes+5)^0,w,c	;volatile
  3521  0035FC  5937               	subwfb	55,w,b	;volatile
  3522  0035FE  B0D8               	btfsc	status,0,c
  3523  003600  EF04  F01B         	goto	u5751
  3524  003604  EF06  F01B         	goto	u5750
  3525  003608                     u5751:
  3526  003608  EF0A  F01B         	goto	l6504
  3527  00360C                     u5750:
  3528  00360C                     
  3529                           ; BSR set to: 4
  3530                           ;usb_device.c: 1512:   {;usb_device.c: 1513:    inPipes[0].wCount.Val = SetupPkt.wLength
      +                          ;
  3531  00360C  C436 F00D          	movff	1078,_inPipes+4	;volatile
  3532  003610  C437 F00E          	movff	1079,_inPipes+5	;volatile
  3533  003614                     l6504:
  3534                           
  3535                           ; BSR set to: 4
  3536                           ;usb_device.c: 1515:   USBCtrlTrfTxService();
  3537  003614  ECBC  F013         	call	_USBCtrlTrfTxService	;wreg free
  3538  003618                     
  3539                           ;usb_device.c: 1520:   pBDTEntryIn[0]->ADR = ((uint16_t)(&CtrlTrfData));
  3540  003618  EE20 F002          	lfsr	2,2
  3541  00361C  500F               	movf	_pBDTEntryIn^0,w,c
  3542  00361E  26D9               	addwf	fsr2l,f,c
  3543  003620  5010               	movf	(_pBDTEntryIn+1)^0,w,c
  3544  003622  22DA               	addwfc	fsr2h,f,c
  3545  003624  0E50               	movlw	80
  3546  003626  6EDE               	movwf	postinc2,c
  3547  003628  0E04               	movlw	4
  3548  00362A  6EDD               	movwf	postdec2,c
  3549  00362C                     
  3550                           ;usb_device.c: 1521:   pBDTEntryIn[0]->STAT.Val = 0x40|(0x08 & 0x08);
  3551  00362C  C00F  FFD9         	movff	_pBDTEntryIn,fsr2l
  3552  003630  C010  FFDA         	movff	_pBDTEntryIn+1,fsr2h
  3553  003634  0E48               	movlw	72
  3554  003636  6EDF               	movwf	indf2,c
  3555  003638                     
  3556                           ;usb_device.c: 1522:         pBDTEntryIn[0]->STAT.Val |= 0x80;
  3557  003638  C00F  FFD9         	movff	_pBDTEntryIn,fsr2l
  3558  00363C  C010  FFDA         	movff	_pBDTEntryIn+1,fsr2h
  3559  003640  0E00               	movlw	0
  3560  003642  8EDB               	bsf	plusw2,7,c
  3561  003644                     l318:
  3562  003644  0012               	return		;funcret
  3563  003646                     __end_of_USBCtrlEPAllowDataStage:
  3564                           	opt callstack 0
  3565                           
  3566 ;; *************** function _USBCheckStdRequest *****************
  3567 ;; Defined at:
  3568 ;;		line 2692 in file "usb_device.c"
  3569 ;; Parameters:    Size  Location     Type
  3570 ;;		None
  3571 ;; Auto vars:     Size  Location     Type
  3572 ;;		None
  3573 ;; Return value:  Size  Location     Type
  3574 ;;                  1    wreg      void 
  3575 ;; Registers used:
  3576 ;;		wreg, fsr1l, fsr1h, fsr2l, fsr2h, status,2, status,0, tblptrl, tblptrh, tblptru, prodl, prodh, cstack
  3577 ;; Tracked objects:
  3578 ;;		On entry : 0/0
  3579 ;;		On exit  : 0/0
  3580 ;;		Unchanged: 0/0
  3581 ;; Data sizes:     COMRAM   BANK0   BANK1   BANK2   BANK3  BANK4h  BANK4l   BANK5   BANK6   BANK7
  3582 ;;      Params:         0       0       0       0       0       0       0       0       0       0
  3583 ;;      Locals:         0       0       0       0       0       0       0       0       0       0
  3584 ;;      Temps:          0       0       2       0       0       0       0       0       0       0
  3585 ;;      Totals:         0       0       2       0       0       0       0       0       0       0
  3586 ;;Total ram usage:        2 bytes
  3587 ;; Hardware stack levels used:    1
  3588 ;; Hardware stack levels required when called:   16
  3589 ;; This function calls:
  3590 ;;		_USBStdFeatureReqHandler
  3591 ;;		_USBStdGetDscHandler
  3592 ;;		_USBStdGetStatusHandler
  3593 ;;		_USBStdSetCfgHandler
  3594 ;;		_USER_USB_CALLBACK_EVENT_HANDLER
  3595 ;; This function is called by:
  3596 ;;		_USBCtrlTrfSetupHandler
  3597 ;; This function uses a non-reentrant model
  3598 ;;
  3599                           
  3600                           	psect	text19
  3601  002538                     __ptext19:
  3602                           	opt callstack 0
  3603  002538                     _USBCheckStdRequest:
  3604                           	opt callstack 11
  3605  002538                     
  3606                           ;usb_device.c: 2694:     if(SetupPkt.RequestType != (0x00>>5)) return;
  3607  002538  0104               	movlb	4	; () banked
  3608  00253A  3930               	swapf	48,w,b	;volatile
  3609  00253C  32E8               	rrcf	wreg,f,c
  3610  00253E  0B03               	andlw	3
  3611  002540  0900               	iorlw	0
  3612  002542  B4D8               	btfsc	status,2,c
  3613  002544  EFA6  F012         	goto	u6191
  3614  002548  EFA8  F012         	goto	u6190
  3615  00254C                     u6191:
  3616  00254C  EFF3  F012         	goto	l6836
  3617  002550                     u6190:
  3618  002550  EF2D  F013         	goto	l449
  3619  002554                     l451:
  3620                           
  3621                           ; BSR set to: 1
  3622                           ;usb_device.c: 2699:             inPipes[0].info.bits.busy = 1;
  3623  002554  8E0C               	bsf	(_inPipes+3)^0,7,c	;volatile
  3624  002556                     
  3625                           ; BSR set to: 1
  3626                           ;usb_device.c: 2700:             USBDeviceState = ADR_PENDING_STATE;
  3627  002556  0E08               	movlw	8
  3628  002558  6E29               	movwf	_USBDeviceState^0,c	;volatile
  3629                           
  3630                           ;usb_device.c: 2702:             break;
  3631  00255A  EF2D  F013         	goto	l449
  3632  00255E                     l6806:
  3633                           
  3634                           ; BSR set to: 1
  3635                           ;usb_device.c: 2704:             USBStdGetDscHandler();
  3636  00255E  EC25  F00C         	call	_USBStdGetDscHandler	;wreg free
  3637                           
  3638                           ;usb_device.c: 2705:             break;
  3639  002562  EF2D  F013         	goto	l449
  3640  002566                     l6808:
  3641                           
  3642                           ; BSR set to: 1
  3643                           ;usb_device.c: 2707:             USBStdSetCfgHandler();
  3644  002566  ECCD  F018         	call	_USBStdSetCfgHandler	;wreg free
  3645                           
  3646                           ;usb_device.c: 2708:             break;
  3647  00256A  EF2D  F013         	goto	l449
  3648  00256E                     l6810:
  3649                           
  3650                           ; BSR set to: 1
  3651                           ;usb_device.c: 2710:             inPipes[0].pSrc.bRam = (uint8_t*)&USBActiveConfiguratio
      +                          n;
  3652  00256E  0E2A               	movlw	low _USBActiveConfiguration
  3653  002570  6E09               	movwf	_inPipes^0,c	;volatile
  3654  002572  0E00               	movlw	high _USBActiveConfiguration
  3655  002574  6E0A               	movwf	(_inPipes+1)^0,c	;volatile
  3656  002576                     
  3657                           ; BSR set to: 1
  3658                           ;usb_device.c: 2711:             inPipes[0].info.bits.ctrl_trf_mem = 0x01;
  3659  002576  800C               	bsf	(_inPipes+3)^0,0,c	;volatile
  3660  002578                     
  3661                           ; BSR set to: 1
  3662                           ;usb_device.c: 2712:             inPipes[0].wCount.v[0] = 1;
  3663  002578  0E01               	movlw	1
  3664  00257A  6E0D               	movwf	(_inPipes+4)^0,c	;volatile
  3665  00257C                     
  3666                           ; BSR set to: 1
  3667                           ;usb_device.c: 2713:             inPipes[0].info.bits.busy = 1;
  3668  00257C  8E0C               	bsf	(_inPipes+3)^0,7,c	;volatile
  3669                           
  3670                           ;usb_device.c: 2714:             break;
  3671  00257E  EF2D  F013         	goto	l449
  3672  002582                     l6818:
  3673                           
  3674                           ; BSR set to: 1
  3675                           ;usb_device.c: 2716:             USBStdGetStatusHandler();
  3676  002582  ECCC  F014         	call	_USBStdGetStatusHandler	;wreg free
  3677                           
  3678                           ;usb_device.c: 2717:             break;
  3679  002586  EF2D  F013         	goto	l449
  3680  00258A                     l6820:
  3681                           
  3682                           ; BSR set to: 1
  3683                           ;usb_device.c: 2720:             USBStdFeatureReqHandler();
  3684  00258A  EC55  F004         	call	_USBStdFeatureReqHandler	;wreg free
  3685                           
  3686                           ;usb_device.c: 2721:             break;
  3687  00258E  EF2D  F013         	goto	l449
  3688  002592                     l6822:
  3689                           
  3690                           ; BSR set to: 1
  3691                           ;usb_device.c: 2723:             inPipes[0].pSrc.bRam = (uint8_t*)&USBAlternateInterface
      +                          [SetupPkt.bIntfID];
  3692  002592  0EDB               	movlw	low _USBAlternateInterface
  3693  002594  0104               	movlb	4	; () banked
  3694  002596  2534               	addwf	52,w,b	;volatile
  3695  002598  6E09               	movwf	_inPipes^0,c	;volatile
  3696  00259A  6A0A               	clrf	(_inPipes+1)^0,c	;volatile
  3697  00259C  0E00               	movlw	high _USBAlternateInterface
  3698  00259E  220A               	addwfc	(_inPipes+1)^0,f,c	;volatile
  3699  0025A0                     
  3700                           ; BSR set to: 4
  3701                           ;usb_device.c: 2724:             inPipes[0].info.bits.ctrl_trf_mem = 0x01;
  3702  0025A0  800C               	bsf	(_inPipes+3)^0,0,c	;volatile
  3703  0025A2                     
  3704                           ; BSR set to: 4
  3705                           ;usb_device.c: 2725:             inPipes[0].wCount.v[0] = 1;
  3706  0025A2  0E01               	movlw	1
  3707  0025A4  6E0D               	movwf	(_inPipes+4)^0,c	;volatile
  3708  0025A6                     
  3709                           ; BSR set to: 4
  3710                           ;usb_device.c: 2726:             inPipes[0].info.bits.busy = 1;
  3711  0025A6  8E0C               	bsf	(_inPipes+3)^0,7,c	;volatile
  3712                           
  3713                           ;usb_device.c: 2727:             break;
  3714  0025A8  EF2D  F013         	goto	l449
  3715  0025AC                     l460:
  3716                           
  3717                           ; BSR set to: 1
  3718                           ;usb_device.c: 2729:             inPipes[0].info.bits.busy = 1;
  3719  0025AC  8E0C               	bsf	(_inPipes+3)^0,7,c	;volatile
  3720  0025AE                     
  3721                           ; BSR set to: 1
  3722                           ;usb_device.c: 2730:             USBAlternateInterface[SetupPkt.bIntfID] = SetupPkt.bAlt
      +                          ID;
  3723  0025AE  0EDB               	movlw	low _USBAlternateInterface
  3724  0025B0  0104               	movlb	4	; () banked
  3725  0025B2  2534               	addwf	52,w,b	;volatile
  3726  0025B4  6ED9               	movwf	fsr2l,c
  3727  0025B6  6ADA               	clrf	fsr2h,c
  3728  0025B8  0E00               	movlw	high _USBAlternateInterface
  3729  0025BA  22DA               	addwfc	fsr2h,f,c
  3730  0025BC  C432 FFDF          	movff	1074,indf2	;volatile
  3731                           
  3732                           ;usb_device.c: 2731:             break;
  3733  0025C0  EF2D  F013         	goto	l449
  3734  0025C4                     l6832:
  3735                           
  3736                           ; BSR set to: 1
  3737                           ;usb_device.c: 2733:             USER_USB_CALLBACK_EVENT_HANDLER((USB_EVENT)EVENT_SET_DE
      +                          SCRIPTOR,0,0);
  3738  0025C4  0E00               	movlw	0
  3739  0025C6  0100               	movlb	0	; () banked
  3740  0025C8  6FEB               	movwf	(USER_USB_CALLBACK_EVENT_HANDLER@event+1)& (0+255),b
  3741  0025CA  0E02               	movlw	2
  3742  0025CC  6FEA               	movwf	USER_USB_CALLBACK_EVENT_HANDLER@event& (0+255),b
  3743  0025CE  0E00               	movlw	0
  3744  0025D0  6FEC               	movwf	USER_USB_CALLBACK_EVENT_HANDLER@pdata& (0+255),b
  3745  0025D2  0E00               	movlw	0
  3746  0025D4  6FED               	movwf	(USER_USB_CALLBACK_EVENT_HANDLER@pdata+1)& (0+255),b
  3747  0025D6  0E00               	movlw	0
  3748  0025D8  6FEF               	movwf	(USER_USB_CALLBACK_EVENT_HANDLER@size+1)& (0+255),b
  3749  0025DA  0E00               	movlw	0
  3750  0025DC  6FEE               	movwf	USER_USB_CALLBACK_EVENT_HANDLER@size& (0+255),b
  3751  0025DE  EC61  F01C         	call	_USER_USB_CALLBACK_EVENT_HANDLER	;wreg free
  3752                           
  3753                           ;usb_device.c: 2734:             break;
  3754  0025E2  EF2D  F013         	goto	l449
  3755  0025E6                     l6836:
  3756                           
  3757                           ; BSR set to: 4
  3758  0025E6  5131               	movf	49,w,b	;volatile
  3759  0025E8  0101               	movlb	1	; () banked
  3760  0025EA  6F00               	movwf	??_USBCheckStdRequest& (0+255),b
  3761  0025EC  6B01               	clrf	(??_USBCheckStdRequest+1)& (0+255),b
  3762                           
  3763                           ; Switch on 2 bytes has been partitioned into a top level switch of size 1, and 1 sub-sw
      +                          itches
  3764                           ; Switch size 1, requested type "simple"
  3765                           ; Number of cases is 1, Range of values is 0 to 0
  3766                           ; switch strategies available:
  3767                           ; Name         Instructions Cycles
  3768                           ; simple_byte            4     3 (average)
  3769                           ;	Chosen strategy is simple_byte
  3770  0025EE  5101               	movf	(??_USBCheckStdRequest+1)& (0+255),w,b
  3771  0025F0  0A00               	xorlw	0	; case 0
  3772  0025F2  B4D8               	btfsc	status,2,c
  3773  0025F4  EFFE  F012         	goto	l7694
  3774  0025F8  EF2D  F013         	goto	l449
  3775  0025FC                     l7694:
  3776                           
  3777                           ; BSR set to: 1
  3778                           ; Switch size 1, requested type "simple"
  3779                           ; Number of cases is 11, Range of values is 0 to 12
  3780                           ; switch strategies available:
  3781                           ; Name         Instructions Cycles
  3782                           ; simple_byte           34    18 (average)
  3783                           ;	Chosen strategy is simple_byte
  3784  0025FC  5100               	movf	??_USBCheckStdRequest& (0+255),w,b
  3785  0025FE  0A00               	xorlw	0	; case 0
  3786  002600  B4D8               	btfsc	status,2,c
  3787  002602  EFC1  F012         	goto	l6818
  3788  002606  0A01               	xorlw	1	; case 1
  3789  002608  B4D8               	btfsc	status,2,c
  3790  00260A  EFC5  F012         	goto	l6820
  3791  00260E  0A02               	xorlw	2	; case 3
  3792  002610  B4D8               	btfsc	status,2,c
  3793  002612  EFC5  F012         	goto	l6820
  3794  002616  0A06               	xorlw	6	; case 5
  3795  002618  B4D8               	btfsc	status,2,c
  3796  00261A  EFAA  F012         	goto	l451
  3797  00261E  0A03               	xorlw	3	; case 6
  3798  002620  B4D8               	btfsc	status,2,c
  3799  002622  EFAF  F012         	goto	l6806
  3800  002626  0A01               	xorlw	1	; case 7
  3801  002628  B4D8               	btfsc	status,2,c
  3802  00262A  EFE2  F012         	goto	l6832
  3803  00262E  0A0F               	xorlw	15	; case 8
  3804  002630  B4D8               	btfsc	status,2,c
  3805  002632  EFB7  F012         	goto	l6810
  3806  002636  0A01               	xorlw	1	; case 9
  3807  002638  B4D8               	btfsc	status,2,c
  3808  00263A  EFB3  F012         	goto	l6808
  3809  00263E  0A03               	xorlw	3	; case 10
  3810  002640  B4D8               	btfsc	status,2,c
  3811  002642  EFC9  F012         	goto	l6822
  3812  002646  0A01               	xorlw	1	; case 11
  3813  002648  B4D8               	btfsc	status,2,c
  3814  00264A  EFD6  F012         	goto	l460
  3815  00264E  0A07               	xorlw	7	; case 12
  3816  002650  B4D8               	btfsc	status,2,c
  3817  002652  EF2D  F013         	goto	l449
  3818  002656  EF2D  F013         	goto	l449
  3819  00265A                     l449:
  3820  00265A  0012               	return		;funcret
  3821  00265C                     __end_of_USBCheckStdRequest:
  3822                           	opt callstack 0
  3823                           
  3824 ;; *************** function _USBStdSetCfgHandler *****************
  3825 ;; Defined at:
  3826 ;;		line 1974 in file "usb_device.c"
  3827 ;; Parameters:    Size  Location     Type
  3828 ;;		None
  3829 ;; Auto vars:     Size  Location     Type
  3830 ;;  i               1   20[BANK0 ] unsigned char 
  3831 ;; Return value:  Size  Location     Type
  3832 ;;                  1    wreg      void 
  3833 ;; Registers used:
  3834 ;;		wreg, fsr2l, fsr2h, status,2, status,0, prodl, prodh, cstack
  3835 ;; Tracked objects:
  3836 ;;		On entry : 0/0
  3837 ;;		On exit  : 0/0
  3838 ;;		Unchanged: 0/0
  3839 ;; Data sizes:     COMRAM   BANK0   BANK1   BANK2   BANK3  BANK4h  BANK4l   BANK5   BANK6   BANK7
  3840 ;;      Params:         0       0       0       0       0       0       0       0       0       0
  3841 ;;      Locals:         0       1       0       0       0       0       0       0       0       0
  3842 ;;      Temps:          0       0       0       0       0       0       0       0       0       0
  3843 ;;      Totals:         0       1       0       0       0       0       0       0       0       0
  3844 ;;Total ram usage:        1 bytes
  3845 ;; Hardware stack levels used:    1
  3846 ;; Hardware stack levels required when called:   15
  3847 ;; This function calls:
  3848 ;;		_USER_USB_CALLBACK_EVENT_HANDLER
  3849 ;;		_memset
  3850 ;; This function is called by:
  3851 ;;		_USBCheckStdRequest
  3852 ;; This function uses a non-reentrant model
  3853 ;;
  3854                           
  3855                           	psect	text20
  3856  00319A                     __ptext20:
  3857                           	opt callstack 0
  3858  00319A                     _USBStdSetCfgHandler:
  3859                           	opt callstack 11
  3860  00319A                     
  3861                           ;usb_device.c: 1976:     uint8_t i;;usb_device.c: 1979:     inPipes[0].info.bits.busy = 
      +                          1;
  3862  00319A  8E0C               	bsf	(_inPipes+3)^0,7,c	;volatile
  3863  00319C                     
  3864                           ;usb_device.c: 1982:     memset((void*)&UEP1,0x00,(2));;
  3865  00319C  0E71               	movlw	113
  3866  00319E  0100               	movlb	0	; () banked
  3867  0031A0  6FDE               	movwf	memset@dest& (0+255),b
  3868  0031A2  0E0F               	movlw	15
  3869  0031A4  6FDF               	movwf	(memset@dest+1)& (0+255),b
  3870  0031A6  0E00               	movlw	0
  3871  0031A8  6FE1               	movwf	(memset@c+1)& (0+255),b
  3872  0031AA  0E00               	movlw	0
  3873  0031AC  6FE0               	movwf	memset@c& (0+255),b
  3874  0031AE  0E00               	movlw	0
  3875  0031B0  6FE3               	movwf	(memset@n+1)& (0+255),b
  3876  0031B2  0E02               	movlw	2
  3877  0031B4  6FE2               	movwf	memset@n& (0+255),b
  3878  0031B6  ECAE  F00A         	call	_memset	;wreg free
  3879                           
  3880                           ;usb_device.c: 1985:     memset((void*)&BDT[0], 0x00, sizeof(BDT));
  3881  0031BA  0E00               	movlw	0
  3882  0031BC  0100               	movlb	0	; () banked
  3883  0031BE  6FDE               	movwf	memset@dest& (0+255),b
  3884  0031C0  0E04               	movlw	4
  3885  0031C2  6FDF               	movwf	(memset@dest+1)& (0+255),b
  3886  0031C4  0E00               	movlw	0
  3887  0031C6  6FE1               	movwf	(memset@c+1)& (0+255),b
  3888  0031C8  0E00               	movlw	0
  3889  0031CA  6FE0               	movwf	memset@c& (0+255),b
  3890  0031CC  0E00               	movlw	0
  3891  0031CE  6FE3               	movwf	(memset@n+1)& (0+255),b
  3892  0031D0  0E30               	movlw	48
  3893  0031D2  6FE2               	movwf	memset@n& (0+255),b
  3894  0031D4  ECAE  F00A         	call	_memset	;wreg free
  3895  0031D8                     
  3896                           ;usb_device.c: 1988:     UCONbits.PPBRST = 1;
  3897  0031D8  8C6D               	bsf	109,6,c	;volatile
  3898  0031DA                     
  3899                           ;usb_device.c: 1993:  for(i = 0; i < (uint8_t)(2 +1u); i++)
  3900  0031DA  0E00               	movlw	0
  3901  0031DC  0100               	movlb	0	; () banked
  3902  0031DE  6FF2               	movwf	USBStdSetCfgHandler@i& (0+255),b
  3903  0031E0                     l6524:
  3904                           
  3905                           ; BSR set to: 0
  3906                           ;usb_device.c: 1994:  {;usb_device.c: 1995:   ep_data_in[i].Val = 0u;
  3907  0031E0  0E18               	movlw	low _ep_data_in
  3908  0031E2  25F2               	addwf	USBStdSetCfgHandler@i& (0+255),w,b
  3909  0031E4  6ED9               	movwf	fsr2l,c
  3910  0031E6  6ADA               	clrf	fsr2h,c
  3911  0031E8  0E00               	movlw	high _ep_data_in
  3912  0031EA  22DA               	addwfc	fsr2h,f,c
  3913  0031EC  0E00               	movlw	0
  3914  0031EE  6EDF               	movwf	indf2,c
  3915                           
  3916                           ;usb_device.c: 1996:         ep_data_out[i].Val = 0u;
  3917  0031F0  0E15               	movlw	low _ep_data_out
  3918  0031F2  25F2               	addwf	USBStdSetCfgHandler@i& (0+255),w,b
  3919  0031F4  6ED9               	movwf	fsr2l,c
  3920  0031F6  6ADA               	clrf	fsr2h,c
  3921  0031F8  0E00               	movlw	high _ep_data_out
  3922  0031FA  22DA               	addwfc	fsr2h,f,c
  3923  0031FC  0E00               	movlw	0
  3924  0031FE  6EDF               	movwf	indf2,c
  3925  003200                     
  3926                           ; BSR set to: 0
  3927                           ;usb_device.c: 1997:  }
  3928  003200  2BF2               	incf	USBStdSetCfgHandler@i& (0+255),f,b
  3929  003202                     
  3930                           ; BSR set to: 0
  3931  003202  0E02               	movlw	2
  3932  003204  65F2               	cpfsgt	USBStdSetCfgHandler@i& (0+255),b
  3933  003206  EF07  F019         	goto	u5761
  3934  00320A  EF09  F019         	goto	u5760
  3935  00320E                     u5761:
  3936  00320E  EFF0  F018         	goto	l6524
  3937  003212                     u5760:
  3938  003212                     
  3939                           ; BSR set to: 0
  3940                           ;usb_device.c: 2000:     memset((void*)&USBAlternateInterface,0x00,2);
  3941  003212  0EDB               	movlw	low _USBAlternateInterface
  3942  003214  6FDE               	movwf	memset@dest& (0+255),b
  3943  003216  0E00               	movlw	high _USBAlternateInterface
  3944  003218  6FDF               	movwf	(memset@dest+1)& (0+255),b
  3945  00321A  0E00               	movlw	0
  3946  00321C  6FE1               	movwf	(memset@c+1)& (0+255),b
  3947  00321E  0E00               	movlw	0
  3948  003220  6FE0               	movwf	memset@c& (0+255),b
  3949  003222  0E00               	movlw	0
  3950  003224  6FE3               	movwf	(memset@n+1)& (0+255),b
  3951  003226  0E02               	movlw	2
  3952  003228  6FE2               	movwf	memset@n& (0+255),b
  3953  00322A  ECAE  F00A         	call	_memset	;wreg free
  3954  00322E                     
  3955                           ;usb_device.c: 2003:     UCONbits.PPBRST = 0;
  3956  00322E  9C6D               	bcf	109,6,c	;volatile
  3957  003230                     
  3958                           ;usb_device.c: 2005:     pBDTEntryIn[0] = (volatile BDT_ENTRY*)&BDT[2];
  3959  003230  0E08               	movlw	8
  3960  003232  6E0F               	movwf	_pBDTEntryIn^0,c
  3961  003234  0E04               	movlw	4
  3962  003236  6E10               	movwf	(_pBDTEntryIn+1)^0,c
  3963  003238                     
  3964                           ;usb_device.c: 2008:     pBDTEntryEP0OutCurrent = (volatile BDT_ENTRY*)&BDT[0];
  3965  003238  0E00               	movlw	0
  3966  00323A  6E1D               	movwf	_pBDTEntryEP0OutCurrent^0,c
  3967  00323C  0E04               	movlw	4
  3968  00323E  6E1E               	movwf	(_pBDTEntryEP0OutCurrent+1)^0,c
  3969  003240                     
  3970                           ;usb_device.c: 2009:     pBDTEntryEP0OutNext = pBDTEntryEP0OutCurrent;
  3971  003240  C01D  F01B         	movff	_pBDTEntryEP0OutCurrent,_pBDTEntryEP0OutNext
  3972  003244  C01E  F01C         	movff	_pBDTEntryEP0OutCurrent+1,_pBDTEntryEP0OutNext+1
  3973  003248                     
  3974                           ;usb_device.c: 2012:     USBActiveConfiguration = SetupPkt.bConfigurationValue;
  3975  003248  C432 F02A          	movff	1074,_USBActiveConfiguration	;volatile
  3976  00324C                     
  3977                           ;usb_device.c: 2015:     if(USBActiveConfiguration == 0)
  3978  00324C  502A               	movf	_USBActiveConfiguration^0,w,c	;volatile
  3979  00324E  A4D8               	btfss	status,2,c
  3980  003250  EF2C  F019         	goto	u5771
  3981  003254  EF2E  F019         	goto	u5770
  3982  003258                     u5771:
  3983  003258  EF32  F019         	goto	l6546
  3984  00325C                     u5770:
  3985  00325C                     
  3986                           ;usb_device.c: 2016:     {;usb_device.c: 2018:         USBDeviceState = ADDRESS_STATE;
  3987  00325C  0E10               	movlw	16
  3988  00325E  6E29               	movwf	_USBDeviceState^0,c	;volatile
  3989                           
  3990                           ;usb_device.c: 2019:     }
  3991  003260  EF43  F019         	goto	l371
  3992  003264                     l6546:
  3993                           
  3994                           ;usb_device.c: 2021:     {;usb_device.c: 2023:         USER_USB_CALLBACK_EVENT_HANDLER((
      +                          USB_EVENT)EVENT_CONFIGURED,(void*)&USBActiveConfiguration,1);
  3995  003264  0E00               	movlw	0
  3996  003266  0100               	movlb	0	; () banked
  3997  003268  6FEB               	movwf	(USER_USB_CALLBACK_EVENT_HANDLER@event+1)& (0+255),b
  3998  00326A  0E01               	movlw	1
  3999  00326C  6FEA               	movwf	USER_USB_CALLBACK_EVENT_HANDLER@event& (0+255),b
  4000  00326E  0E2A               	movlw	low _USBActiveConfiguration
  4001  003270  6FEC               	movwf	USER_USB_CALLBACK_EVENT_HANDLER@pdata& (0+255),b
  4002  003272  0E00               	movlw	high _USBActiveConfiguration
  4003  003274  6FED               	movwf	(USER_USB_CALLBACK_EVENT_HANDLER@pdata+1)& (0+255),b
  4004  003276  0E00               	movlw	0
  4005  003278  6FEF               	movwf	(USER_USB_CALLBACK_EVENT_HANDLER@size+1)& (0+255),b
  4006  00327A  0E01               	movlw	1
  4007  00327C  6FEE               	movwf	USER_USB_CALLBACK_EVENT_HANDLER@size& (0+255),b
  4008  00327E  EC61  F01C         	call	_USER_USB_CALLBACK_EVENT_HANDLER	;wreg free
  4009  003282                     
  4010                           ;usb_device.c: 2028:         USBDeviceState = CONFIGURED_STATE;
  4011  003282  0E20               	movlw	32
  4012  003284  6E29               	movwf	_USBDeviceState^0,c	;volatile
  4013  003286                     l371:
  4014  003286  0012               	return		;funcret
  4015  003288                     __end_of_USBStdSetCfgHandler:
  4016                           	opt callstack 0
  4017                           
  4018 ;; *************** function _memset *****************
  4019 ;; Defined at:
  4020 ;;		line 4 in file "C:\Program Files (x86)\Microchip\xc8\v2.10\pic\sources\c99\common\memset.c"
  4021 ;; Parameters:    Size  Location     Type
  4022 ;;  dest            2    0[BANK0 ] PTR void 
  4023 ;;		 -> USBAlternateInterface(2), BDT(48), UEP1(1), 
  4024 ;;  c               2    2[BANK0 ] int 
  4025 ;;  n               2    4[BANK0 ] unsigned int 
  4026 ;; Auto vars:     Size  Location     Type
  4027 ;;  s               2   10[BANK0 ] PTR unsigned char 
  4028 ;;		 -> USBAlternateInterface(2), BDT(48), UEP1(1), 
  4029 ;;  k               2    8[BANK0 ] unsigned int 
  4030 ;; Return value:  Size  Location     Type
  4031 ;;                  2    0[BANK0 ] PTR void 
  4032 ;; Registers used:
  4033 ;;		wreg, fsr2l, fsr2h, status,2, status,0
  4034 ;; Tracked objects:
  4035 ;;		On entry : 0/0
  4036 ;;		On exit  : 0/0
  4037 ;;		Unchanged: 0/0
  4038 ;; Data sizes:     COMRAM   BANK0   BANK1   BANK2   BANK3  BANK4h  BANK4l   BANK5   BANK6   BANK7
  4039 ;;      Params:         0       6       0       0       0       0       0       0       0       0
  4040 ;;      Locals:         0       4       0       0       0       0       0       0       0       0
  4041 ;;      Temps:          0       2       0       0       0       0       0       0       0       0
  4042 ;;      Totals:         0      12       0       0       0       0       0       0       0       0
  4043 ;;Total ram usage:       12 bytes
  4044 ;; Hardware stack levels used:    1
  4045 ;; Hardware stack levels required when called:   11
  4046 ;; This function calls:
  4047 ;;		Nothing
  4048 ;; This function is called by:
  4049 ;;		_USBDeviceInit
  4050 ;;		_USBStdSetCfgHandler
  4051 ;; This function uses a non-reentrant model
  4052 ;;
  4053                           
  4054                           	psect	text21
  4055  00155C                     __ptext21:
  4056                           	opt callstack 0
  4057  00155C                     _memset:
  4058                           	opt callstack 17
  4059  00155C  C0DE  F0E8         	movff	memset@dest,memset@s
  4060  001560  C0DF  F0E9         	movff	memset@dest+1,memset@s+1
  4061  001564  0100               	movlb	0	; () banked
  4062  001566  51E2               	movf	memset@n& (0+255),w,b
  4063  001568  11E3               	iorwf	(memset@n+1)& (0+255),w,b
  4064  00156A  A4D8               	btfss	status,2,c
  4065  00156C  EFBA  F00A         	goto	u5571
  4066  001570  EFBC  F00A         	goto	u5570
  4067  001574                     u5571:
  4068  001574  EFBE  F00A         	goto	l6366
  4069  001578                     u5570:
  4070  001578  EF69  F00B         	goto	l1320
  4071  00157C                     l6366:
  4072                           
  4073                           ; BSR set to: 0
  4074  00157C  C0E8  FFD9         	movff	memset@s,fsr2l
  4075  001580  C0E9  FFDA         	movff	memset@s+1,fsr2h
  4076  001584  C0E0  FFDF         	movff	memset@c,indf2
  4077  001588                     
  4078                           ; BSR set to: 0
  4079  001588  51E2               	movf	memset@n& (0+255),w,b
  4080  00158A  25E8               	addwf	memset@s& (0+255),w,b
  4081  00158C  6FE4               	movwf	??_memset& (0+255),b
  4082  00158E  51E3               	movf	(memset@n+1)& (0+255),w,b
  4083  001590  21E9               	addwfc	(memset@s+1)& (0+255),w,b
  4084  001592  6FE5               	movwf	(??_memset+1)& (0+255),b
  4085  001594  0EFF               	movlw	255
  4086  001596  25E4               	addwf	??_memset& (0+255),w,b
  4087  001598  6ED9               	movwf	fsr2l,c
  4088  00159A  0EFF               	movlw	255
  4089  00159C  21E5               	addwfc	(??_memset+1)& (0+255),w,b
  4090  00159E  6EDA               	movwf	fsr2h,c
  4091  0015A0  C0E0  FFDF         	movff	memset@c,indf2
  4092  0015A4  51E3               	movf	(memset@n+1)& (0+255),w,b
  4093  0015A6  E107               	bnz	u5581
  4094  0015A8  0E03               	movlw	3
  4095  0015AA  5DE2               	subwf	memset@n& (0+255),w,b
  4096  0015AC  B0D8               	btfsc	status,0,c
  4097  0015AE  EFDB  F00A         	goto	u5581
  4098  0015B2  EFDD  F00A         	goto	u5580
  4099  0015B6                     u5581:
  4100  0015B6  EFDF  F00A         	goto	l6372
  4101  0015BA                     u5580:
  4102  0015BA  EF69  F00B         	goto	l1320
  4103  0015BE                     l6372:
  4104                           
  4105                           ; BSR set to: 0
  4106  0015BE  EE20 F001          	lfsr	2,1
  4107  0015C2  51E8               	movf	memset@s& (0+255),w,b
  4108  0015C4  26D9               	addwf	fsr2l,f,c
  4109  0015C6  51E9               	movf	(memset@s+1)& (0+255),w,b
  4110  0015C8  22DA               	addwfc	fsr2h,f,c
  4111  0015CA  C0E0  FFDF         	movff	memset@c,indf2
  4112  0015CE  EE20 F002          	lfsr	2,2
  4113  0015D2  51E8               	movf	memset@s& (0+255),w,b
  4114  0015D4  26D9               	addwf	fsr2l,f,c
  4115  0015D6  51E9               	movf	(memset@s+1)& (0+255),w,b
  4116  0015D8  22DA               	addwfc	fsr2h,f,c
  4117  0015DA  C0E0  FFDF         	movff	memset@c,indf2
  4118  0015DE  51E2               	movf	memset@n& (0+255),w,b
  4119  0015E0  25E8               	addwf	memset@s& (0+255),w,b
  4120  0015E2  6FE4               	movwf	??_memset& (0+255),b
  4121  0015E4  51E3               	movf	(memset@n+1)& (0+255),w,b
  4122  0015E6  21E9               	addwfc	(memset@s+1)& (0+255),w,b
  4123  0015E8  6FE5               	movwf	(??_memset+1)& (0+255),b
  4124  0015EA  0EFE               	movlw	254
  4125  0015EC  25E4               	addwf	??_memset& (0+255),w,b
  4126  0015EE  6ED9               	movwf	fsr2l,c
  4127  0015F0  0EFF               	movlw	255
  4128  0015F2  21E5               	addwfc	(??_memset+1)& (0+255),w,b
  4129  0015F4  6EDA               	movwf	fsr2h,c
  4130  0015F6  C0E0  FFDF         	movff	memset@c,indf2
  4131  0015FA  51E2               	movf	memset@n& (0+255),w,b
  4132  0015FC  25E8               	addwf	memset@s& (0+255),w,b
  4133  0015FE  6FE4               	movwf	??_memset& (0+255),b
  4134  001600  51E3               	movf	(memset@n+1)& (0+255),w,b
  4135  001602  21E9               	addwfc	(memset@s+1)& (0+255),w,b
  4136  001604  6FE5               	movwf	(??_memset+1)& (0+255),b
  4137  001606  0EFD               	movlw	253
  4138  001608  25E4               	addwf	??_memset& (0+255),w,b
  4139  00160A  6ED9               	movwf	fsr2l,c
  4140  00160C  0EFF               	movlw	255
  4141  00160E  21E5               	addwfc	(??_memset+1)& (0+255),w,b
  4142  001610  6EDA               	movwf	fsr2h,c
  4143  001612  C0E0  FFDF         	movff	memset@c,indf2
  4144  001616                     
  4145                           ; BSR set to: 0
  4146  001616  51E3               	movf	(memset@n+1)& (0+255),w,b
  4147  001618  E107               	bnz	u5591
  4148  00161A  0E07               	movlw	7
  4149  00161C  5DE2               	subwf	memset@n& (0+255),w,b
  4150  00161E  B0D8               	btfsc	status,0,c
  4151  001620  EF14  F00B         	goto	u5591
  4152  001624  EF16  F00B         	goto	u5590
  4153  001628                     u5591:
  4154  001628  EF18  F00B         	goto	l6378
  4155  00162C                     u5590:
  4156  00162C  EF69  F00B         	goto	l1320
  4157  001630                     l6378:
  4158                           
  4159                           ; BSR set to: 0
  4160  001630  EE20 F003          	lfsr	2,3
  4161  001634  51E8               	movf	memset@s& (0+255),w,b
  4162  001636  26D9               	addwf	fsr2l,f,c
  4163  001638  51E9               	movf	(memset@s+1)& (0+255),w,b
  4164  00163A  22DA               	addwfc	fsr2h,f,c
  4165  00163C  C0E0  FFDF         	movff	memset@c,indf2
  4166  001640  51E2               	movf	memset@n& (0+255),w,b
  4167  001642  25E8               	addwf	memset@s& (0+255),w,b
  4168  001644  6FE4               	movwf	??_memset& (0+255),b
  4169  001646  51E3               	movf	(memset@n+1)& (0+255),w,b
  4170  001648  21E9               	addwfc	(memset@s+1)& (0+255),w,b
  4171  00164A  6FE5               	movwf	(??_memset+1)& (0+255),b
  4172  00164C  0EFC               	movlw	252
  4173  00164E  25E4               	addwf	??_memset& (0+255),w,b
  4174  001650  6ED9               	movwf	fsr2l,c
  4175  001652  0EFF               	movlw	255
  4176  001654  21E5               	addwfc	(??_memset+1)& (0+255),w,b
  4177  001656  6EDA               	movwf	fsr2h,c
  4178  001658  C0E0  FFDF         	movff	memset@c,indf2
  4179  00165C                     
  4180                           ; BSR set to: 0
  4181  00165C  51E3               	movf	(memset@n+1)& (0+255),w,b
  4182  00165E  E107               	bnz	u5601
  4183  001660  0E09               	movlw	9
  4184  001662  5DE2               	subwf	memset@n& (0+255),w,b
  4185  001664  B0D8               	btfsc	status,0,c
  4186  001666  EF37  F00B         	goto	u5601
  4187  00166A  EF39  F00B         	goto	u5600
  4188  00166E                     u5601:
  4189  00166E  EF3B  F00B         	goto	l6384
  4190  001672                     u5600:
  4191  001672  EF69  F00B         	goto	l1320
  4192  001676                     l6384:
  4193                           
  4194                           ; BSR set to: 0
  4195  001676  C0E8  F0E4         	movff	memset@s,??_memset
  4196  00167A  C0E9  F0E5         	movff	memset@s+1,??_memset+1
  4197  00167E  1FE4               	comf	??_memset& (0+255),f,b
  4198  001680  1FE5               	comf	(??_memset+1)& (0+255),f,b
  4199  001682  4BE4               	infsnz	??_memset& (0+255),f,b
  4200  001684  2BE5               	incf	(??_memset+1)& (0+255),f,b
  4201  001686  0E03               	movlw	3
  4202  001688  15E4               	andwf	??_memset& (0+255),w,b
  4203  00168A  6FE6               	movwf	memset@k& (0+255),b
  4204  00168C  6BE7               	clrf	(memset@k+1)& (0+255),b
  4205  00168E  51E6               	movf	memset@k& (0+255),w,b
  4206  001690  27E8               	addwf	memset@s& (0+255),f,b
  4207  001692  51E7               	movf	(memset@k+1)& (0+255),w,b
  4208  001694  23E9               	addwfc	(memset@s+1)& (0+255),f,b
  4209  001696  51E6               	movf	memset@k& (0+255),w,b
  4210  001698  5FE2               	subwf	memset@n& (0+255),f,b
  4211  00169A  51E7               	movf	(memset@k+1)& (0+255),w,b
  4212  00169C  5BE3               	subwfb	(memset@n+1)& (0+255),f,b
  4213  00169E  0EFC               	movlw	252
  4214  0016A0  17E2               	andwf	memset@n& (0+255),f,b
  4215  0016A2  0EFF               	movlw	255
  4216  0016A4  17E3               	andwf	(memset@n+1)& (0+255),f,b
  4217  0016A6  EF60  F00B         	goto	l6392
  4218  0016AA                     l6386:
  4219                           
  4220                           ; BSR set to: 0
  4221  0016AA  C0E8  FFD9         	movff	memset@s,fsr2l
  4222  0016AE  C0E9  FFDA         	movff	memset@s+1,fsr2h
  4223  0016B2  C0E0  FFDF         	movff	memset@c,indf2
  4224  0016B6                     
  4225                           ; BSR set to: 0
  4226  0016B6  07E2               	decf	memset@n& (0+255),f,b
  4227  0016B8  A0D8               	btfss	status,0,c
  4228  0016BA  07E3               	decf	(memset@n+1)& (0+255),f,b
  4229  0016BC                     
  4230                           ; BSR set to: 0
  4231  0016BC  4BE8               	infsnz	memset@s& (0+255),f,b
  4232  0016BE  2BE9               	incf	(memset@s+1)& (0+255),f,b
  4233  0016C0                     l6392:
  4234                           
  4235                           ; BSR set to: 0
  4236  0016C0  51E2               	movf	memset@n& (0+255),w,b
  4237  0016C2  11E3               	iorwf	(memset@n+1)& (0+255),w,b
  4238  0016C4  A4D8               	btfss	status,2,c
  4239  0016C6  EF67  F00B         	goto	u5611
  4240  0016CA  EF69  F00B         	goto	u5610
  4241  0016CE                     u5611:
  4242  0016CE  EF55  F00B         	goto	l6386
  4243  0016D2                     u5610:
  4244  0016D2                     l1320:
  4245                           
  4246                           ; BSR set to: 0
  4247  0016D2  0012               	return		;funcret
  4248  0016D4                     __end_of_memset:
  4249                           	opt callstack 0
  4250                           
  4251 ;; *************** function _USBStdGetStatusHandler *****************
  4252 ;; Defined at:
  4253 ;;		line 2135 in file "usb_device.c"
  4254 ;; Parameters:    Size  Location     Type
  4255 ;;		None
  4256 ;; Auto vars:     Size  Location     Type
  4257 ;;  p               2    2[BANK0 ] PTR struct __BDT
  4258 ;;		 -> RAM(2047), NULL(0), BDT(48), 
  4259 ;; Return value:  Size  Location     Type
  4260 ;;                  1    wreg      void 
  4261 ;; Registers used:
  4262 ;;		wreg, fsr2l, fsr2h, status,2, status,0, prodl, prodh
  4263 ;; Tracked objects:
  4264 ;;		On entry : 0/0
  4265 ;;		On exit  : 0/0
  4266 ;;		Unchanged: 0/0
  4267 ;; Data sizes:     COMRAM   BANK0   BANK1   BANK2   BANK3  BANK4h  BANK4l   BANK5   BANK6   BANK7
  4268 ;;      Params:         0       0       0       0       0       0       0       0       0       0
  4269 ;;      Locals:         0       2       0       0       0       0       0       0       0       0
  4270 ;;      Temps:          0       2       0       0       0       0       0       0       0       0
  4271 ;;      Totals:         0       4       0       0       0       0       0       0       0       0
  4272 ;;Total ram usage:        4 bytes
  4273 ;; Hardware stack levels used:    1
  4274 ;; Hardware stack levels required when called:   11
  4275 ;; This function calls:
  4276 ;;		Nothing
  4277 ;; This function is called by:
  4278 ;;		_USBCheckStdRequest
  4279 ;; This function uses a non-reentrant model
  4280 ;;
  4281                           
  4282                           	psect	text22
  4283  002998                     __ptext22:
  4284                           	opt callstack 0
  4285  002998                     _USBStdGetStatusHandler:
  4286                           	opt callstack 15
  4287  002998                     
  4288                           ;usb_device.c: 2137:     CtrlTrfData[0] = 0;
  4289  002998  0E00               	movlw	0
  4290  00299A  0104               	movlb	4	; () banked
  4291  00299C  6F50               	movwf	80,b	;volatile
  4292                           
  4293                           ;usb_device.c: 2138:     CtrlTrfData[1] = 0;
  4294  00299E  0E00               	movlw	0
  4295  0029A0  6F51               	movwf	81,b	;volatile
  4296                           
  4297                           ;usb_device.c: 2140:     switch(SetupPkt.Recipient)
  4298  0029A2  EF29  F015         	goto	l6608
  4299  0029A6                     l389:
  4300                           
  4301                           ; BSR set to: 0
  4302                           ;usb_device.c: 2143:             inPipes[0].info.bits.busy = 1;
  4303  0029A6  8E0C               	bsf	(_inPipes+3)^0,7,c	;volatile
  4304  0029A8                     
  4305                           ; BSR set to: 0
  4306                           ;usb_device.c: 2153:             if(RemoteWakeup == 1)
  4307  0029A8  0426               	decf	_RemoteWakeup^0,w,c	;volatile
  4308  0029AA  A4D8               	btfss	status,2,c
  4309  0029AC  EFDA  F014         	goto	u5841
  4310  0029B0  EFDC  F014         	goto	u5840
  4311  0029B4                     u5841:
  4312  0029B4  EF44  F015         	goto	l392
  4313  0029B8                     u5840:
  4314  0029B8                     
  4315                           ; BSR set to: 0
  4316                           ;usb_device.c: 2154:             {;usb_device.c: 2155:                 CtrlTrfData[0]|=0
      +                          x02;
  4317  0029B8  0104               	movlb	4	; () banked
  4318  0029BA  8350               	bsf	80,1,b	;volatile
  4319  0029BC  EF44  F015         	goto	l392
  4320  0029C0                     l393:
  4321                           
  4322                           ; BSR set to: 0
  4323                           ;usb_device.c: 2159:             inPipes[0].info.bits.busy = 1;
  4324  0029C0  8E0C               	bsf	(_inPipes+3)^0,7,c	;volatile
  4325                           
  4326                           ;usb_device.c: 2160:             break;
  4327  0029C2  EF44  F015         	goto	l392
  4328  0029C6                     l394:
  4329                           
  4330                           ; BSR set to: 0
  4331                           ;usb_device.c: 2162:             inPipes[0].info.bits.busy = 1;
  4332  0029C6  8E0C               	bsf	(_inPipes+3)^0,7,c	;volatile
  4333                           
  4334                           ;usb_device.c: 2166:             {;usb_device.c: 2167:                 BDT_ENTRY *p;;usb
      +                          _device.c: 2169:                 if(SetupPkt.EPDir == 0)
  4335  0029C8  0104               	movlb	4	; () banked
  4336  0029CA  BF34               	btfsc	52,7,b	;volatile
  4337  0029CC  EFEA  F014         	goto	u5851
  4338  0029D0  EFEC  F014         	goto	u5850
  4339  0029D4                     u5851:
  4340  0029D4  EFFE  F014         	goto	l6598
  4341  0029D8                     u5850:
  4342  0029D8                     
  4343                           ; BSR set to: 4
  4344                           ;usb_device.c: 2170:                 {;usb_device.c: 2171:                     p = (BDT_
      +                          ENTRY*)pBDTEntryOut[SetupPkt.EPNum];
  4345  0029D8  5134               	movf	52,w,b	;volatile
  4346  0029DA  0B0F               	andlw	15
  4347  0029DC  0100               	movlb	0	; () banked
  4348  0029DE  6FDE               	movwf	??_USBStdGetStatusHandler& (0+255),b
  4349  0029E0  51DE               	movf	??_USBStdGetStatusHandler& (0+255),w,b
  4350  0029E2  0D02               	mullw	2
  4351  0029E4  0EAA               	movlw	low _pBDTEntryOut
  4352  0029E6  24F3               	addwf	243,w,c
  4353  0029E8  6ED9               	movwf	fsr2l,c
  4354  0029EA  0E00               	movlw	high _pBDTEntryOut
  4355  0029EC  20F4               	addwfc	prodh,w,c
  4356  0029EE  6EDA               	movwf	fsr2h,c
  4357  0029F0  CFDE F0E0          	movff	postinc2,USBStdGetStatusHandler@p
  4358  0029F4  CFDD F0E1          	movff	postdec2,USBStdGetStatusHandler@p+1
  4359                           
  4360                           ;usb_device.c: 2172:                 }
  4361  0029F8  EF0E  F015         	goto	l6600
  4362  0029FC                     l6598:
  4363                           
  4364                           ; BSR set to: 4
  4365                           ;usb_device.c: 2174:                 {;usb_device.c: 2175:                     p = (BDT_
      +                          ENTRY*)pBDTEntryIn[SetupPkt.EPNum];
  4366  0029FC  5134               	movf	52,w,b	;volatile
  4367  0029FE  0B0F               	andlw	15
  4368  002A00  0100               	movlb	0	; () banked
  4369  002A02  6FDE               	movwf	??_USBStdGetStatusHandler& (0+255),b
  4370  002A04  51DE               	movf	??_USBStdGetStatusHandler& (0+255),w,b
  4371  002A06  0D02               	mullw	2
  4372  002A08  0E0F               	movlw	low _pBDTEntryIn
  4373  002A0A  24F3               	addwf	243,w,c
  4374  002A0C  6ED9               	movwf	fsr2l,c
  4375  002A0E  0E00               	movlw	high _pBDTEntryIn
  4376  002A10  20F4               	addwfc	prodh,w,c
  4377  002A12  6EDA               	movwf	fsr2h,c
  4378  002A14  CFDE F0E0          	movff	postinc2,USBStdGetStatusHandler@p
  4379  002A18  CFDD F0E1          	movff	postdec2,USBStdGetStatusHandler@p+1
  4380  002A1C                     l6600:
  4381                           
  4382                           ; BSR set to: 0
  4383                           ;usb_device.c: 2178:                 if((p->STAT.UOWN == 1) && (p->STAT.BSTALL == 1))
  4384  002A1C  C0E0  FFD9         	movff	USBStdGetStatusHandler@p,fsr2l
  4385  002A20  C0E1  FFDA         	movff	USBStdGetStatusHandler@p+1,fsr2h
  4386  002A24  AEDF               	btfss	indf2,7,c
  4387  002A26  EF17  F015         	goto	u5861
  4388  002A2A  EF19  F015         	goto	u5860
  4389  002A2E                     u5861:
  4390  002A2E  EF44  F015         	goto	l392
  4391  002A32                     u5860:
  4392  002A32                     
  4393                           ; BSR set to: 0
  4394  002A32  C0E0  FFD9         	movff	USBStdGetStatusHandler@p,fsr2l
  4395  002A36  C0E1  FFDA         	movff	USBStdGetStatusHandler@p+1,fsr2h
  4396  002A3A  A4DF               	btfss	indf2,2,c
  4397  002A3C  EF22  F015         	goto	u5871
  4398  002A40  EF24  F015         	goto	u5870
  4399  002A44                     u5871:
  4400  002A44  EF44  F015         	goto	l392
  4401  002A48                     u5870:
  4402  002A48                     
  4403                           ; BSR set to: 0
  4404                           ;usb_device.c: 2179:                     CtrlTrfData[0]=0x01;
  4405  002A48  0E01               	movlw	1
  4406  002A4A  0104               	movlb	4	; () banked
  4407  002A4C  6F50               	movwf	80,b	;volatile
  4408  002A4E  EF44  F015         	goto	l392
  4409  002A52                     l6608:
  4410                           
  4411                           ; BSR set to: 4
  4412  002A52  5130               	movf	48,w,b	;volatile
  4413  002A54  0B1F               	andlw	31
  4414  002A56  0100               	movlb	0	; () banked
  4415  002A58  6FDE               	movwf	??_USBStdGetStatusHandler& (0+255),b
  4416  002A5A  6BDF               	clrf	(??_USBStdGetStatusHandler+1)& (0+255),b
  4417                           
  4418                           ; Switch on 2 bytes has been partitioned into a top level switch of size 1, and 1 sub-sw
      +                          itches
  4419                           ; Switch size 1, requested type "simple"
  4420                           ; Number of cases is 1, Range of values is 0 to 0
  4421                           ; switch strategies available:
  4422                           ; Name         Instructions Cycles
  4423                           ; simple_byte            4     3 (average)
  4424                           ;	Chosen strategy is simple_byte
  4425  002A5C  51DF               	movf	(??_USBStdGetStatusHandler+1)& (0+255),w,b
  4426  002A5E  0A00               	xorlw	0	; case 0
  4427  002A60  B4D8               	btfsc	status,2,c
  4428  002A62  EF35  F015         	goto	l7696
  4429  002A66  EF44  F015         	goto	l392
  4430  002A6A                     l7696:
  4431                           
  4432                           ; BSR set to: 0
  4433                           ; Switch size 1, requested type "simple"
  4434                           ; Number of cases is 3, Range of values is 0 to 2
  4435                           ; switch strategies available:
  4436                           ; Name         Instructions Cycles
  4437                           ; simple_byte           10     6 (average)
  4438                           ;	Chosen strategy is simple_byte
  4439  002A6A  51DE               	movf	??_USBStdGetStatusHandler& (0+255),w,b
  4440  002A6C  0A00               	xorlw	0	; case 0
  4441  002A6E  B4D8               	btfsc	status,2,c
  4442  002A70  EFD3  F014         	goto	l389
  4443  002A74  0A01               	xorlw	1	; case 1
  4444  002A76  B4D8               	btfsc	status,2,c
  4445  002A78  EFE0  F014         	goto	l393
  4446  002A7C  0A03               	xorlw	3	; case 2
  4447  002A7E  B4D8               	btfsc	status,2,c
  4448  002A80  EFE3  F014         	goto	l394
  4449  002A84  EF44  F015         	goto	l392
  4450  002A88                     l392:
  4451                           
  4452                           ;usb_device.c: 2184:     if(inPipes[0].info.bits.busy == 1)
  4453  002A88  AE0C               	btfss	(_inPipes+3)^0,7,c	;volatile
  4454  002A8A  EF49  F015         	goto	u5881
  4455  002A8E  EF4B  F015         	goto	u5880
  4456  002A92                     u5881:
  4457  002A92  EF52  F015         	goto	l399
  4458  002A96                     u5880:
  4459  002A96                     
  4460                           ;usb_device.c: 2185:     {;usb_device.c: 2186:         inPipes[0].pSrc.bRam = (uint8_t*)
      +                          &CtrlTrfData;
  4461  002A96  0E50               	movlw	80
  4462  002A98  6E09               	movwf	_inPipes^0,c	;volatile
  4463  002A9A  0E04               	movlw	4
  4464  002A9C  6E0A               	movwf	(_inPipes+1)^0,c	;volatile
  4465  002A9E                     
  4466                           ;usb_device.c: 2187:         inPipes[0].info.bits.ctrl_trf_mem = 0x01;
  4467  002A9E  800C               	bsf	(_inPipes+3)^0,0,c	;volatile
  4468  002AA0                     
  4469                           ;usb_device.c: 2188:         inPipes[0].wCount.v[0] = 2;
  4470  002AA0  0E02               	movlw	2
  4471  002AA2  6E0D               	movwf	(_inPipes+4)^0,c	;volatile
  4472  002AA4                     l399:
  4473  002AA4  0012               	return		;funcret
  4474  002AA6                     __end_of_USBStdGetStatusHandler:
  4475                           	opt callstack 0
  4476                           
  4477 ;; *************** function _USBStdGetDscHandler *****************
  4478 ;; Defined at:
  4479 ;;		line 2049 in file "usb_device.c"
  4480 ;; Parameters:    Size  Location     Type
  4481 ;;		None
  4482 ;; Auto vars:     Size  Location     Type
  4483 ;;		None
  4484 ;; Return value:  Size  Location     Type
  4485 ;;                  1    wreg      void 
  4486 ;; Registers used:
  4487 ;;		wreg, fsr1l, fsr1h, status,2, status,0, tblptrl, tblptrh, tblptru, prodl, prodh
  4488 ;; Tracked objects:
  4489 ;;		On entry : 0/0
  4490 ;;		On exit  : 0/0
  4491 ;;		Unchanged: 0/0
  4492 ;; Data sizes:     COMRAM   BANK0   BANK1   BANK2   BANK3  BANK4h  BANK4l   BANK5   BANK6   BANK7
  4493 ;;      Params:         0       0       0       0       0       0       0       0       0       0
  4494 ;;      Locals:         0       0       0       0       0       0       0       0       0       0
  4495 ;;      Temps:          0       2       0       0       0       0       0       0       0       0
  4496 ;;      Totals:         0       2       0       0       0       0       0       0       0       0
  4497 ;;Total ram usage:        2 bytes
  4498 ;; Hardware stack levels used:    1
  4499 ;; Hardware stack levels required when called:   11
  4500 ;; This function calls:
  4501 ;;		Nothing
  4502 ;; This function is called by:
  4503 ;;		_USBCheckStdRequest
  4504 ;; This function uses a non-reentrant model
  4505 ;;
  4506                           
  4507                           	psect	text23
  4508  00184A                     __ptext23:
  4509                           	opt callstack 0
  4510  00184A                     _USBStdGetDscHandler:
  4511                           	opt callstack 15
  4512  00184A                     
  4513                           ;usb_device.c: 2051:     if(SetupPkt.bmRequestType == 0x80)
  4514  00184A  0E80               	movlw	128
  4515  00184C  0104               	movlb	4	; () banked
  4516  00184E  1930               	xorwf	48,w,b	;volatile
  4517  001850  A4D8               	btfss	status,2,c
  4518  001852  EF2D  F00C         	goto	u5781
  4519  001856  EF2F  F00C         	goto	u5780
  4520  00185A                     u5781:
  4521  00185A  EFDA  F00C         	goto	l385
  4522  00185E                     u5780:
  4523  00185E                     
  4524                           ; BSR set to: 4
  4525                           ;usb_device.c: 2052:     {;usb_device.c: 2053:         inPipes[0].info.Val = 0x00 | 0x80
      +                           | 0x40;
  4526  00185E  0EC0               	movlw	192
  4527  001860  6E0C               	movwf	(_inPipes+3)^0,c	;volatile
  4528                           
  4529                           ;usb_device.c: 2055:         switch(SetupPkt.bDescriptorType)
  4530  001862  EFC0  F00C         	goto	l6580
  4531  001866                     l6554:
  4532                           
  4533                           ; BSR set to: 0
  4534                           ;usb_device.c: 2061:                     inPipes[0].pSrc.bRom = (const uint8_t*)&device_
      +                          dsc;
  4535  001866  0E92               	movlw	low _device_dsc
  4536  001868  6E09               	movwf	_inPipes^0,c	;volatile
  4537  00186A  0E08               	movlw	high _device_dsc
  4538  00186C  6E0A               	movwf	(_inPipes+1)^0,c	;volatile
  4539  00186E                     
  4540                           ; BSR set to: 0
  4541                           ;usb_device.c: 2063:                 inPipes[0].wCount.Val = sizeof(device_dsc);
  4542  00186E  0E00               	movlw	0
  4543  001870  6E0E               	movwf	(_inPipes+5)^0,c	;volatile
  4544  001872  0E12               	movlw	18
  4545  001874  6E0D               	movwf	(_inPipes+4)^0,c	;volatile
  4546                           
  4547                           ;usb_device.c: 2064:                 break;
  4548  001876  EFDA  F00C         	goto	l385
  4549  00187A                     l6558:
  4550                           
  4551                           ; BSR set to: 0
  4552                           ;usb_device.c: 2069:                 if(SetupPkt.bDscIndex < 1)
  4553  00187A  0104               	movlb	4	; () banked
  4554  00187C  5132               	movf	50,w,b	;volatile
  4555  00187E  A4D8               	btfss	status,2,c
  4556  001880  EF44  F00C         	goto	u5791
  4557  001884  EF46  F00C         	goto	u5790
  4558  001888                     u5791:
  4559  001888  EF86  F00C         	goto	l6566
  4560  00188C                     u5790:
  4561  00188C                     
  4562                           ; BSR set to: 4
  4563                           ;usb_device.c: 2070:                 {;usb_device.c: 2074:                         inPip
      +                          es[0].pSrc.bRom = *(USB_CD_Ptr+SetupPkt.bDscIndex);
  4564  00188C  5132               	movf	50,w,b	;volatile
  4565  00188E  0D02               	mullw	2
  4566  001890  0E07               	movlw	low _USB_CD_Ptr
  4567  001892  24F3               	addwf	243,w,c
  4568  001894  6EF6               	movwf	tblptrl,c
  4569  001896  0E08               	movlw	high _USB_CD_Ptr
  4570  001898  20F4               	addwfc	244,w,c
  4571  00189A  6EF7               	movwf	tblptrh,c
  4572  00189C                     	if	0	;There are less than 3 active tblptr bytes
  4573  00189C                     	endif
  4574  00189C  0009               	tblrd		*+
  4575  00189E  CFF5 F009          	movff	tablat,_inPipes	;volatile
  4576  0018A2  000A               	tblrd		*-
  4577  0018A4  CFF5 F00A          	movff	tablat,_inPipes+1	;volatile
  4578  0018A8                     
  4579                           ; BSR set to: 4
  4580                           ;usb_device.c: 2080:                     inPipes[0].wCount.byte.LB = *(inPipes[0].pSrc.b
      +                          Rom+2);
  4581  0018A8  0E02               	movlw	2
  4582  0018AA  2409               	addwf	_inPipes^0,w,c	;volatile
  4583  0018AC  0100               	movlb	0	; () banked
  4584  0018AE  6FDE               	movwf	??_USBStdGetDscHandler& (0+255),b
  4585  0018B0  0E00               	movlw	0
  4586  0018B2  200A               	addwfc	(_inPipes+1)^0,w,c	;volatile
  4587  0018B4  6FDF               	movwf	(??_USBStdGetDscHandler+1)& (0+255),b
  4588  0018B6  C0DE  FFF6         	movff	??_USBStdGetDscHandler,tblptrl
  4589  0018BA  C0DF  FFF7         	movff	??_USBStdGetDscHandler+1,tblptrh
  4590  0018BE  6AF8               	clrf	tblptru,c
  4591  0018C0  0E07               	movlw	(high __ramtop+-1)
  4592  0018C2  64F7               	cpfsgt	tblptrh,c
  4593  0018C4  D003               	bra	u5807
  4594  0018C6  0008               	tblrd		*
  4595  0018C8  50F5               	movf	tablat,w,c
  4596  0018CA  D005               	bra	u5800
  4597  0018CC                     u5807:
  4598  0018CC  CFF6 FFE1          	movff	tblptrl,fsr1l
  4599  0018D0  CFF7 FFE2          	movff	tblptrh,fsr1h
  4600  0018D4  50E7               	movf	indf1,w,c
  4601  0018D6                     u5800:
  4602  0018D6  6E0D               	movwf	(_inPipes+4)^0,c	;volatile
  4603  0018D8                     
  4604                           ;usb_device.c: 2081:                     inPipes[0].wCount.byte.HB = *(inPipes[0].pSrc.b
      +                          Rom+3);
  4605  0018D8  0E03               	movlw	3
  4606  0018DA  2409               	addwf	_inPipes^0,w,c	;volatile
  4607  0018DC  0100               	movlb	0	; () banked
  4608  0018DE  6FDE               	movwf	??_USBStdGetDscHandler& (0+255),b
  4609  0018E0  0E00               	movlw	0
  4610  0018E2  200A               	addwfc	(_inPipes+1)^0,w,c	;volatile
  4611  0018E4  6FDF               	movwf	(??_USBStdGetDscHandler+1)& (0+255),b
  4612  0018E6  C0DE  FFF6         	movff	??_USBStdGetDscHandler,tblptrl
  4613  0018EA  C0DF  FFF7         	movff	??_USBStdGetDscHandler+1,tblptrh
  4614  0018EE  6AF8               	clrf	tblptru,c
  4615  0018F0  0E07               	movlw	(high __ramtop+-1)
  4616  0018F2  64F7               	cpfsgt	tblptrh,c
  4617  0018F4  D003               	bra	u5817
  4618  0018F6  0008               	tblrd		*
  4619  0018F8  50F5               	movf	tablat,w,c
  4620  0018FA  D005               	bra	u5810
  4621  0018FC                     u5817:
  4622  0018FC  CFF6 FFE1          	movff	tblptrl,fsr1l
  4623  001900  CFF7 FFE2          	movff	tblptrh,fsr1h
  4624  001904  50E7               	movf	indf1,w,c
  4625  001906                     u5810:
  4626  001906  6E0E               	movwf	(_inPipes+5)^0,c	;volatile
  4627                           
  4628                           ;usb_device.c: 2082:                 }
  4629  001908  EFDA  F00C         	goto	l385
  4630  00190C                     l6566:
  4631                           
  4632                           ; BSR set to: 4
  4633                           ;usb_device.c: 2084:     {;usb_device.c: 2085:      inPipes[0].info.Val = 0;
  4634  00190C  0E00               	movlw	0
  4635  00190E  6E0C               	movwf	(_inPipes+3)^0,c	;volatile
  4636  001910  EFDA  F00C         	goto	l385
  4637  001914                     l6568:
  4638                           
  4639                           ; BSR set to: 0
  4640                           ;usb_device.c: 2092:                 if(SetupPkt.bDscIndex<3)
  4641  001914  0E03               	movlw	3
  4642  001916  0104               	movlb	4	; () banked
  4643  001918  6132               	cpfslt	50,b	;volatile
  4644  00191A  EF91  F00C         	goto	u5821
  4645  00191E  EF93  F00C         	goto	u5820
  4646  001922                     u5821:
  4647  001922  EFB8  F00C         	goto	l6574
  4648  001926                     u5820:
  4649  001926                     
  4650                           ; BSR set to: 4
  4651                           ;usb_device.c: 2093:                 {;usb_device.c: 2095:                     inPipes[0
      +                          ].pSrc.bRom = *(USB_SD_Ptr+SetupPkt.bDscIndex);
  4652  001926  5132               	movf	50,w,b	;volatile
  4653  001928  0D02               	mullw	2
  4654  00192A  0E01               	movlw	low _USB_SD_Ptr
  4655  00192C  24F3               	addwf	243,w,c
  4656  00192E  6EF6               	movwf	tblptrl,c
  4657  001930  0E08               	movlw	high _USB_SD_Ptr
  4658  001932  20F4               	addwfc	244,w,c
  4659  001934  6EF7               	movwf	tblptrh,c
  4660  001936                     	if	0	;There are less than 3 active tblptr bytes
  4661  001936                     	endif
  4662  001936  0009               	tblrd		*+
  4663  001938  CFF5 F009          	movff	tablat,_inPipes	;volatile
  4664  00193C  000A               	tblrd		*-
  4665  00193E  CFF5 F00A          	movff	tablat,_inPipes+1	;volatile
  4666  001942                     
  4667                           ; BSR set to: 4
  4668                           ;usb_device.c: 2097:                     inPipes[0].wCount.Val = *inPipes[0].pSrc.bRom;
  4669  001942  C009  FFF6         	movff	_inPipes,tblptrl	;volatile
  4670  001946  C00A  FFF7         	movff	_inPipes+1,tblptrh	;volatile
  4671  00194A  6AF8               	clrf	tblptru,c
  4672  00194C  0E07               	movlw	(high __ramtop+-1)
  4673  00194E  64F7               	cpfsgt	tblptrh,c
  4674  001950  D003               	bra	u5837
  4675  001952  0008               	tblrd		*
  4676  001954  50F5               	movf	tablat,w,c
  4677  001956  D005               	bra	u5830
  4678  001958                     u5837:
  4679  001958  CFF6 FFE1          	movff	tblptrl,fsr1l
  4680  00195C  CFF7 FFE2          	movff	tblptrh,fsr1h
  4681  001960  50E7               	movf	indf1,w,c
  4682  001962                     u5830:
  4683  001962  0100               	movlb	0	; () banked
  4684  001964  6FDE               	movwf	??_USBStdGetDscHandler& (0+255),b
  4685  001966  51DE               	movf	??_USBStdGetDscHandler& (0+255),w,b
  4686  001968  6E0D               	movwf	(_inPipes+4)^0,c	;volatile
  4687  00196A  6A0E               	clrf	(_inPipes+5)^0,c	;volatile
  4688                           
  4689                           ;usb_device.c: 2098:                 }
  4690  00196C  EFDA  F00C         	goto	l385
  4691  001970                     l6574:
  4692                           
  4693                           ; BSR set to: 4
  4694                           ;usb_device.c: 2109:                 {;usb_device.c: 2110:                     inPipes[0
      +                          ].info.Val = 0;
  4695  001970  0E00               	movlw	0
  4696  001972  6E0C               	movwf	(_inPipes+3)^0,c	;volatile
  4697  001974  EFDA  F00C         	goto	l385
  4698  001978                     l6576:
  4699                           
  4700                           ; BSR set to: 0
  4701                           ;usb_device.c: 2114:                 inPipes[0].info.Val = 0;
  4702  001978  0E00               	movlw	0
  4703  00197A  6E0C               	movwf	(_inPipes+3)^0,c	;volatile
  4704                           
  4705                           ;usb_device.c: 2115:                 break;
  4706  00197C  EFDA  F00C         	goto	l385
  4707  001980                     l6580:
  4708                           
  4709                           ; BSR set to: 4
  4710  001980  5133               	movf	51,w,b	;volatile
  4711  001982  0100               	movlb	0	; () banked
  4712  001984  6FDE               	movwf	??_USBStdGetDscHandler& (0+255),b
  4713  001986  6BDF               	clrf	(??_USBStdGetDscHandler+1)& (0+255),b
  4714                           
  4715                           ; Switch on 2 bytes has been partitioned into a top level switch of size 1, and 1 sub-sw
      +                          itches
  4716                           ; Switch size 1, requested type "simple"
  4717                           ; Number of cases is 1, Range of values is 0 to 0
  4718                           ; switch strategies available:
  4719                           ; Name         Instructions Cycles
  4720                           ; simple_byte            4     3 (average)
  4721                           ;	Chosen strategy is simple_byte
  4722  001988  51DF               	movf	(??_USBStdGetDscHandler+1)& (0+255),w,b
  4723  00198A  0A00               	xorlw	0	; case 0
  4724  00198C  B4D8               	btfsc	status,2,c
  4725  00198E  EFCB  F00C         	goto	l7698
  4726  001992  EFBC  F00C         	goto	l6576
  4727  001996                     l7698:
  4728                           
  4729                           ; BSR set to: 0
  4730                           ; Switch size 1, requested type "simple"
  4731                           ; Number of cases is 3, Range of values is 1 to 3
  4732                           ; switch strategies available:
  4733                           ; Name         Instructions Cycles
  4734                           ; simple_byte           10     6 (average)
  4735                           ;	Chosen strategy is simple_byte
  4736  001996  51DE               	movf	??_USBStdGetDscHandler& (0+255),w,b
  4737  001998  0A01               	xorlw	1	; case 1
  4738  00199A  B4D8               	btfsc	status,2,c
  4739  00199C  EF33  F00C         	goto	l6554
  4740  0019A0  0A03               	xorlw	3	; case 2
  4741  0019A2  B4D8               	btfsc	status,2,c
  4742  0019A4  EF3D  F00C         	goto	l6558
  4743  0019A8  0A01               	xorlw	1	; case 3
  4744  0019AA  B4D8               	btfsc	status,2,c
  4745  0019AC  EF8A  F00C         	goto	l6568
  4746  0019B0  EFBC  F00C         	goto	l6576
  4747  0019B4                     l385:
  4748  0019B4  0012               	return		;funcret
  4749  0019B6                     __end_of_USBStdGetDscHandler:
  4750                           	opt callstack 0
  4751                           
  4752 ;; *************** function _USBStdFeatureReqHandler *****************
  4753 ;; Defined at:
  4754 ;;		line 2760 in file "usb_device.c"
  4755 ;; Parameters:    Size  Location     Type
  4756 ;;		None
  4757 ;; Auto vars:     Size  Location     Type
  4758 ;;  p               2   25[BANK0 ] PTR struct __BDT
  4759 ;;		 -> RAM(2047), NULL(0), BDT(48), 
  4760 ;;  pUEP            2   22[BANK0 ] PTR unsigned char 
  4761 ;;		 -> UEP0(1), 
  4762 ;;  current_ep_d    1   24[BANK0 ] struct .
  4763 ;; Return value:  Size  Location     Type
  4764 ;;                  1    wreg      void 
  4765 ;; Registers used:
  4766 ;;		wreg, fsr2l, fsr2h, status,2, status,0, prodl, prodh, cstack
  4767 ;; Tracked objects:
  4768 ;;		On entry : 0/0
  4769 ;;		On exit  : 0/0
  4770 ;;		Unchanged: 0/0
  4771 ;; Data sizes:     COMRAM   BANK0   BANK1   BANK2   BANK3  BANK4h  BANK4l   BANK5   BANK6   BANK7
  4772 ;;      Params:         0       0       0       0       0       0       0       0       0       0
  4773 ;;      Locals:         0       5       0       0       0       0       0       0       0       0
  4774 ;;      Temps:          0       2       0       0       0       0       0       0       0       0
  4775 ;;      Totals:         0       7       0       0       0       0       0       0       0       0
  4776 ;;Total ram usage:        7 bytes
  4777 ;; Hardware stack levels used:    1
  4778 ;; Hardware stack levels required when called:   15
  4779 ;; This function calls:
  4780 ;;		_USER_USB_CALLBACK_EVENT_HANDLER
  4781 ;; This function is called by:
  4782 ;;		_USBCheckStdRequest
  4783 ;; This function uses a non-reentrant model
  4784 ;;
  4785                           
  4786                           	psect	text24
  4787  0008AA                     __ptext24:
  4788                           	opt callstack 0
  4789  0008AA                     _USBStdFeatureReqHandler:
  4790                           	opt callstack 11
  4791  0008AA                     
  4792                           ;usb_device.c: 2762:     BDT_ENTRY *p;;usb_device.c: 2763:     EP_STATUS current_ep_data
      +                          ;;usb_device.c: 2767:         unsigned char* pUEP;;usb_device.c: 2805:     if((SetupPkt.
      +                          bFeature == 1)&&
  4793  0008AA  0104               	movlb	4	; () banked
  4794  0008AC  0532               	decf	50,w,b	;volatile
  4795  0008AE  A4D8               	btfss	status,2,c
  4796  0008B0  EF5C  F004         	goto	u5891
  4797  0008B4  EF5E  F004         	goto	u5890
  4798  0008B8                     u5891:
  4799  0008B8  EF78  F004         	goto	l466
  4800  0008BC                     u5890:
  4801  0008BC                     
  4802                           ; BSR set to: 4
  4803  0008BC  5130               	movf	48,w,b	;volatile
  4804  0008BE  0B1F               	andlw	31
  4805  0008C0  0900               	iorlw	0
  4806  0008C2  A4D8               	btfss	status,2,c
  4807  0008C4  EF66  F004         	goto	u5901
  4808  0008C8  EF68  F004         	goto	u5900
  4809  0008CC                     u5901:
  4810  0008CC  EF78  F004         	goto	l466
  4811  0008D0                     u5900:
  4812  0008D0                     
  4813                           ; BSR set to: 4
  4814                           ;usb_device.c: 2807:     {;usb_device.c: 2808:         inPipes[0].info.bits.busy = 1;
  4815  0008D0  8E0C               	bsf	(_inPipes+3)^0,7,c	;volatile
  4816  0008D2                     
  4817                           ; BSR set to: 4
  4818                           ;usb_device.c: 2809:         if(SetupPkt.bRequest == 3)
  4819  0008D2  0E03               	movlw	3
  4820  0008D4  1931               	xorwf	49,w,b	;volatile
  4821  0008D6  A4D8               	btfss	status,2,c
  4822  0008D8  EF70  F004         	goto	u5911
  4823  0008DC  EF72  F004         	goto	u5910
  4824  0008E0                     u5911:
  4825  0008E0  EF76  F004         	goto	l6632
  4826  0008E4                     u5910:
  4827  0008E4                     
  4828                           ; BSR set to: 4
  4829                           ;usb_device.c: 2810:             RemoteWakeup = 1;
  4830  0008E4  0E01               	movlw	1
  4831  0008E6  6E26               	movwf	_RemoteWakeup^0,c	;volatile
  4832  0008E8  EF78  F004         	goto	l466
  4833  0008EC                     l6632:
  4834                           
  4835                           ; BSR set to: 4
  4836                           ;usb_device.c: 2812:             RemoteWakeup = 0;
  4837  0008EC  0E00               	movlw	0
  4838  0008EE  6E26               	movwf	_RemoteWakeup^0,c	;volatile
  4839  0008F0                     l466:
  4840                           
  4841                           ; BSR set to: 4
  4842                           ;usb_device.c: 2816:     if((SetupPkt.bFeature == 0)&&
  4843  0008F0  5132               	movf	50,w,b	;volatile
  4844  0008F2  A4D8               	btfss	status,2,c
  4845  0008F4  EF7E  F004         	goto	u5921
  4846  0008F8  EF80  F004         	goto	u5920
  4847  0008FC                     u5921:
  4848  0008FC  EF0F  F006         	goto	l489
  4849  000900                     u5920:
  4850  000900                     
  4851                           ; BSR set to: 4
  4852  000900  5130               	movf	48,w,b	;volatile
  4853  000902  0B1F               	andlw	31
  4854  000904  0A02               	xorlw	2
  4855  000906  A4D8               	btfss	status,2,c
  4856  000908  EF88  F004         	goto	u5931
  4857  00090C  EF8A  F004         	goto	u5930
  4858  000910                     u5931:
  4859  000910  EF0F  F006         	goto	l489
  4860  000914                     u5930:
  4861  000914                     
  4862                           ; BSR set to: 4
  4863  000914  5134               	movf	52,w,b	;volatile
  4864  000916  0B0F               	andlw	15
  4865  000918  0900               	iorlw	0
  4866  00091A  B4D8               	btfsc	status,2,c
  4867  00091C  EF92  F004         	goto	u5941
  4868  000920  EF94  F004         	goto	u5940
  4869  000924                     u5941:
  4870  000924  EF0F  F006         	goto	l489
  4871  000928                     u5940:
  4872  000928                     
  4873                           ; BSR set to: 4
  4874  000928  5134               	movf	52,w,b	;volatile
  4875  00092A  0B0F               	andlw	15
  4876  00092C  0100               	movlb	0	; () banked
  4877  00092E  6FF2               	movwf	??_USBStdFeatureReqHandler& (0+255),b
  4878  000930  0E03               	movlw	3
  4879  000932  61F2               	cpfslt	??_USBStdFeatureReqHandler& (0+255),b
  4880  000934  EF9E  F004         	goto	u5951
  4881  000938  EFA0  F004         	goto	u5950
  4882  00093C                     u5951:
  4883  00093C  EF0F  F006         	goto	l489
  4884  000940                     u5950:
  4885  000940                     
  4886                           ; BSR set to: 0
  4887  000940  0E20               	movlw	32
  4888  000942  1829               	xorwf	_USBDeviceState^0,w,c	;volatile
  4889  000944  A4D8               	btfss	status,2,c
  4890  000946  EFA7  F004         	goto	u5961
  4891  00094A  EFA9  F004         	goto	u5960
  4892  00094E                     u5961:
  4893  00094E  EF0F  F006         	goto	l489
  4894  000952                     u5960:
  4895  000952                     
  4896                           ; BSR set to: 0
  4897                           ;usb_device.c: 2820:     {;usb_device.c: 2823:   inPipes[0].info.bits.busy = 1;
  4898  000952  8E0C               	bsf	(_inPipes+3)^0,7,c	;volatile
  4899                           
  4900                           ;usb_device.c: 2826:         if(SetupPkt.EPDir == 0)
  4901  000954  0104               	movlb	4	; () banked
  4902  000956  BF34               	btfsc	52,7,b	;volatile
  4903  000958  EFB0  F004         	goto	u5971
  4904  00095C  EFB2  F004         	goto	u5970
  4905  000960                     u5971:
  4906  000960  EFD2  F004         	goto	l6648
  4907  000964                     u5970:
  4908  000964                     
  4909                           ; BSR set to: 4
  4910                           ;usb_device.c: 2827:         {;usb_device.c: 2828:             p = (BDT_ENTRY*)pBDTEntry
      +                          Out[SetupPkt.EPNum];
  4911  000964  5134               	movf	52,w,b	;volatile
  4912  000966  0B0F               	andlw	15
  4913  000968  0100               	movlb	0	; () banked
  4914  00096A  6FF2               	movwf	??_USBStdFeatureReqHandler& (0+255),b
  4915  00096C  51F2               	movf	??_USBStdFeatureReqHandler& (0+255),w,b
  4916  00096E  0D02               	mullw	2
  4917  000970  0EAA               	movlw	low _pBDTEntryOut
  4918  000972  24F3               	addwf	243,w,c
  4919  000974  6ED9               	movwf	fsr2l,c
  4920  000976  0E00               	movlw	high _pBDTEntryOut
  4921  000978  20F4               	addwfc	prodh,w,c
  4922  00097A  6EDA               	movwf	fsr2h,c
  4923  00097C  CFDE F0F7          	movff	postinc2,USBStdFeatureReqHandler@p
  4924  000980  CFDD F0F8          	movff	postdec2,USBStdFeatureReqHandler@p+1
  4925  000984                     
  4926                           ; BSR set to: 0
  4927                           ;usb_device.c: 2829:             current_ep_data.Val = ep_data_out[SetupPkt.EPNum].Val;
  4928  000984  0104               	movlb	4	; () banked
  4929  000986  5134               	movf	52,w,b	;volatile
  4930  000988  0B0F               	andlw	15
  4931  00098A  0100               	movlb	0	; () banked
  4932  00098C  6FF2               	movwf	??_USBStdFeatureReqHandler& (0+255),b
  4933  00098E  6BF3               	clrf	(??_USBStdFeatureReqHandler+1)& (0+255),b
  4934  000990  0E15               	movlw	low _ep_data_out
  4935  000992  25F2               	addwf	??_USBStdFeatureReqHandler& (0+255),w,b
  4936  000994  6ED9               	movwf	fsr2l,c
  4937  000996  0E00               	movlw	high _ep_data_out
  4938  000998  21F3               	addwfc	(??_USBStdFeatureReqHandler+1)& (0+255),w,b
  4939  00099A  6EDA               	movwf	fsr2h,c
  4940  00099C  50DF               	movf	indf2,w,c
  4941  00099E  6FF6               	movwf	USBStdFeatureReqHandler@current_ep_data& (0+255),b
  4942                           
  4943                           ;usb_device.c: 2830:         }
  4944  0009A0  EFF0  F004         	goto	l6652
  4945  0009A4                     l6648:
  4946                           
  4947                           ; BSR set to: 4
  4948                           ;usb_device.c: 2832:         {;usb_device.c: 2833:             p = (BDT_ENTRY*)pBDTEntry
      +                          In[SetupPkt.EPNum];
  4949  0009A4  5134               	movf	52,w,b	;volatile
  4950  0009A6  0B0F               	andlw	15
  4951  0009A8  0100               	movlb	0	; () banked
  4952  0009AA  6FF2               	movwf	??_USBStdFeatureReqHandler& (0+255),b
  4953  0009AC  51F2               	movf	??_USBStdFeatureReqHandler& (0+255),w,b
  4954  0009AE  0D02               	mullw	2
  4955  0009B0  0E0F               	movlw	low _pBDTEntryIn
  4956  0009B2  24F3               	addwf	243,w,c
  4957  0009B4  6ED9               	movwf	fsr2l,c
  4958  0009B6  0E00               	movlw	high _pBDTEntryIn
  4959  0009B8  20F4               	addwfc	prodh,w,c
  4960  0009BA  6EDA               	movwf	fsr2h,c
  4961  0009BC  CFDE F0F7          	movff	postinc2,USBStdFeatureReqHandler@p
  4962  0009C0  CFDD F0F8          	movff	postdec2,USBStdFeatureReqHandler@p+1
  4963  0009C4                     
  4964                           ; BSR set to: 0
  4965                           ;usb_device.c: 2834:             current_ep_data.Val = ep_data_in[SetupPkt.EPNum].Val;
  4966  0009C4  0104               	movlb	4	; () banked
  4967  0009C6  5134               	movf	52,w,b	;volatile
  4968  0009C8  0B0F               	andlw	15
  4969  0009CA  0100               	movlb	0	; () banked
  4970  0009CC  6FF2               	movwf	??_USBStdFeatureReqHandler& (0+255),b
  4971  0009CE  6BF3               	clrf	(??_USBStdFeatureReqHandler+1)& (0+255),b
  4972  0009D0  0E18               	movlw	low _ep_data_in
  4973  0009D2  25F2               	addwf	??_USBStdFeatureReqHandler& (0+255),w,b
  4974  0009D4  6ED9               	movwf	fsr2l,c
  4975  0009D6  0E00               	movlw	high _ep_data_in
  4976  0009D8  21F3               	addwfc	(??_USBStdFeatureReqHandler+1)& (0+255),w,b
  4977  0009DA  6EDA               	movwf	fsr2h,c
  4978  0009DC  50DF               	movf	indf2,w,c
  4979  0009DE  6FF6               	movwf	USBStdFeatureReqHandler@current_ep_data& (0+255),b
  4980  0009E0                     l6652:
  4981                           
  4982                           ; BSR set to: 0
  4983                           ;usb_device.c: 2841:             if(current_ep_data.bits.ping_pong_state == 0)
  4984  0009E0  B1F6               	btfsc	USBStdFeatureReqHandler@current_ep_data& (0+255),0,b
  4985  0009E2  EFF5  F004         	goto	u5981
  4986  0009E6  EFF7  F004         	goto	u5980
  4987  0009EA                     u5981:
  4988  0009EA  EFFF  F004         	goto	l6656
  4989  0009EE                     u5980:
  4990  0009EE                     
  4991                           ; BSR set to: 0
  4992                           ;usb_device.c: 2842:             {;usb_device.c: 2843:                 p = (BDT_ENTRY*)(
      +                          ((uint16_t)p) & (~0x0004));
  4993  0009EE  0EFB               	movlw	251
  4994  0009F0  15F7               	andwf	USBStdFeatureReqHandler@p& (0+255),w,b
  4995  0009F2  6FF7               	movwf	USBStdFeatureReqHandler@p& (0+255),b
  4996  0009F4  0EFF               	movlw	255
  4997  0009F6  15F8               	andwf	(USBStdFeatureReqHandler@p+1)& (0+255),w,b
  4998  0009F8  6FF8               	movwf	(USBStdFeatureReqHandler@p+1)& (0+255),b
  4999                           
  5000                           ;usb_device.c: 2844:             }
  5001  0009FA  EF04  F005         	goto	l6658
  5002  0009FE                     l6656:
  5003                           
  5004                           ; BSR set to: 0
  5005                           ;usb_device.c: 2846:             {;usb_device.c: 2847:                 p = (BDT_ENTRY*)(
      +                          ((uint16_t)p) | 0x0004);
  5006  0009FE  0E04               	movlw	4
  5007  000A00  11F7               	iorwf	USBStdFeatureReqHandler@p& (0+255),w,b
  5008  000A02  6FF7               	movwf	USBStdFeatureReqHandler@p& (0+255),b
  5009  000A04  51F8               	movf	(USBStdFeatureReqHandler@p+1)& (0+255),w,b
  5010  000A06  6FF8               	movwf	(USBStdFeatureReqHandler@p+1)& (0+255),b
  5011  000A08                     l6658:
  5012                           
  5013                           ; BSR set to: 0
  5014                           ;usb_device.c: 2853:         if(SetupPkt.EPDir == 0)
  5015  000A08  0104               	movlb	4	; () banked
  5016  000A0A  BF34               	btfsc	52,7,b	;volatile
  5017  000A0C  EF0A  F005         	goto	u5991
  5018  000A10  EF0C  F005         	goto	u5990
  5019  000A14                     u5991:
  5020  000A14  EF1E  F005         	goto	l6662
  5021  000A18                     u5990:
  5022  000A18                     
  5023                           ; BSR set to: 4
  5024                           ;usb_device.c: 2854:         {;usb_device.c: 2855:             pBDTEntryOut[SetupPkt.EPN
      +                          um] = (volatile BDT_ENTRY *)p;
  5025  000A18  5134               	movf	52,w,b	;volatile
  5026  000A1A  0B0F               	andlw	15
  5027  000A1C  0100               	movlb	0	; () banked
  5028  000A1E  6FF2               	movwf	??_USBStdFeatureReqHandler& (0+255),b
  5029  000A20  51F2               	movf	??_USBStdFeatureReqHandler& (0+255),w,b
  5030  000A22  0D02               	mullw	2
  5031  000A24  0EAA               	movlw	low _pBDTEntryOut
  5032  000A26  24F3               	addwf	243,w,c
  5033  000A28  6ED9               	movwf	fsr2l,c
  5034  000A2A  0E00               	movlw	high _pBDTEntryOut
  5035  000A2C  20F4               	addwfc	prodh,w,c
  5036  000A2E  6EDA               	movwf	fsr2h,c
  5037  000A30  C0F7  FFDE         	movff	USBStdFeatureReqHandler@p,postinc2
  5038  000A34  C0F8  FFDD         	movff	USBStdFeatureReqHandler@p+1,postdec2
  5039                           
  5040                           ;usb_device.c: 2856:         }
  5041  000A38  EF2E  F005         	goto	l6664
  5042  000A3C                     l6662:
  5043                           
  5044                           ; BSR set to: 4
  5045                           ;usb_device.c: 2858:         {;usb_device.c: 2859:             pBDTEntryIn[SetupPkt.EPNu
      +                          m] = (volatile BDT_ENTRY *)p;
  5046  000A3C  5134               	movf	52,w,b	;volatile
  5047  000A3E  0B0F               	andlw	15
  5048  000A40  0100               	movlb	0	; () banked
  5049  000A42  6FF2               	movwf	??_USBStdFeatureReqHandler& (0+255),b
  5050  000A44  51F2               	movf	??_USBStdFeatureReqHandler& (0+255),w,b
  5051  000A46  0D02               	mullw	2
  5052  000A48  0E0F               	movlw	low _pBDTEntryIn
  5053  000A4A  24F3               	addwf	243,w,c
  5054  000A4C  6ED9               	movwf	fsr2l,c
  5055  000A4E  0E00               	movlw	high _pBDTEntryIn
  5056  000A50  20F4               	addwfc	prodh,w,c
  5057  000A52  6EDA               	movwf	fsr2h,c
  5058  000A54  C0F7  FFDE         	movff	USBStdFeatureReqHandler@p,postinc2
  5059  000A58  C0F8  FFDD         	movff	USBStdFeatureReqHandler@p+1,postdec2
  5060  000A5C                     l6664:
  5061                           
  5062                           ; BSR set to: 0
  5063                           ;usb_device.c: 2863:         if(SetupPkt.bRequest == 3)
  5064  000A5C  0E03               	movlw	3
  5065  000A5E  0104               	movlb	4	; () banked
  5066  000A60  1931               	xorwf	49,w,b	;volatile
  5067  000A62  A4D8               	btfss	status,2,c
  5068  000A64  EF36  F005         	goto	u6001
  5069  000A68  EF38  F005         	goto	u6000
  5070  000A6C                     u6001:
  5071  000A6C  EF74  F005         	goto	l6674
  5072  000A70                     u6000:
  5073  000A70                     
  5074                           ; BSR set to: 4
  5075                           ;usb_device.c: 2864:         {;usb_device.c: 2865:             if(p->STAT.UOWN == 1)
  5076  000A70  C0F7  FFD9         	movff	USBStdFeatureReqHandler@p,fsr2l
  5077  000A74  C0F8  FFDA         	movff	USBStdFeatureReqHandler@p+1,fsr2h
  5078  000A78  0100               	movlb	0	; () banked
  5079  000A7A  AEDF               	btfss	indf2,7,c
  5080  000A7C  EF42  F005         	goto	u6011
  5081  000A80  EF44  F005         	goto	u6010
  5082  000A84                     u6011:
  5083  000A84  EF66  F005         	goto	l477
  5084  000A88                     u6010:
  5085  000A88                     
  5086                           ; BSR set to: 0
  5087                           ;usb_device.c: 2866:             {;usb_device.c: 2869:                 if(SetupPkt.EPDir
      +                           == 0)
  5088  000A88  0104               	movlb	4	; () banked
  5089  000A8A  BF34               	btfsc	52,7,b	;volatile
  5090  000A8C  EF4A  F005         	goto	u6021
  5091  000A90  EF4C  F005         	goto	u6020
  5092  000A94                     u6021:
  5093  000A94  EF5A  F005         	goto	l6672
  5094  000A98                     u6020:
  5095  000A98                     
  5096                           ; BSR set to: 4
  5097                           ;usb_device.c: 2870:                 {;usb_device.c: 2871:                     ep_data_o
      +                          ut[SetupPkt.EPNum].bits.transfer_terminated = 1;
  5098  000A98  5134               	movf	52,w,b	;volatile
  5099  000A9A  0B0F               	andlw	15
  5100  000A9C  0100               	movlb	0	; () banked
  5101  000A9E  6FF2               	movwf	??_USBStdFeatureReqHandler& (0+255),b
  5102  000AA0  6BF3               	clrf	(??_USBStdFeatureReqHandler+1)& (0+255),b
  5103  000AA2  0E15               	movlw	low _ep_data_out
  5104  000AA4  25F2               	addwf	??_USBStdFeatureReqHandler& (0+255),w,b
  5105  000AA6  6ED9               	movwf	fsr2l,c
  5106  000AA8  0E00               	movlw	high _ep_data_out
  5107  000AAA  21F3               	addwfc	(??_USBStdFeatureReqHandler+1)& (0+255),w,b
  5108  000AAC  6EDA               	movwf	fsr2h,c
  5109  000AAE  82DF               	bsf	indf2,1,c
  5110                           
  5111                           ;usb_device.c: 2872:                 }
  5112  000AB0  EF66  F005         	goto	l477
  5113  000AB4                     l6672:
  5114                           
  5115                           ; BSR set to: 4
  5116                           ;usb_device.c: 2874:                 {;usb_device.c: 2875:                     ep_data_i
      +                          n[SetupPkt.EPNum].bits.transfer_terminated = 1;
  5117  000AB4  5134               	movf	52,w,b	;volatile
  5118  000AB6  0B0F               	andlw	15
  5119  000AB8  0100               	movlb	0	; () banked
  5120  000ABA  6FF2               	movwf	??_USBStdFeatureReqHandler& (0+255),b
  5121  000ABC  6BF3               	clrf	(??_USBStdFeatureReqHandler+1)& (0+255),b
  5122  000ABE  0E18               	movlw	low _ep_data_in
  5123  000AC0  25F2               	addwf	??_USBStdFeatureReqHandler& (0+255),w,b
  5124  000AC2  6ED9               	movwf	fsr2l,c
  5125  000AC4  0E00               	movlw	high _ep_data_in
  5126  000AC6  21F3               	addwfc	(??_USBStdFeatureReqHandler+1)& (0+255),w,b
  5127  000AC8  6EDA               	movwf	fsr2h,c
  5128  000ACA  82DF               	bsf	indf2,1,c
  5129  000ACC                     l477:
  5130                           
  5131                           ; BSR set to: 0
  5132                           ;usb_device.c: 2880:             p->STAT.Val |= 0x04;
  5133  000ACC  C0F7  FFD9         	movff	USBStdFeatureReqHandler@p,fsr2l
  5134  000AD0  C0F8  FFDA         	movff	USBStdFeatureReqHandler@p+1,fsr2h
  5135  000AD4  0E00               	movlw	0
  5136  000AD6  84DB               	bsf	plusw2,2,c
  5137                           
  5138                           ;usb_device.c: 2881:             p->STAT.Val |= 0x80;
  5139  000AD8  C0F7  FFD9         	movff	USBStdFeatureReqHandler@p,fsr2l
  5140  000ADC  C0F8  FFDA         	movff	USBStdFeatureReqHandler@p+1,fsr2h
  5141  000AE0  0E00               	movlw	0
  5142  000AE2  8EDB               	bsf	plusw2,7,c
  5143                           
  5144                           ;usb_device.c: 2882:         }
  5145  000AE4  EF0F  F006         	goto	l489
  5146  000AE8                     l6674:
  5147                           
  5148                           ; BSR set to: 4
  5149                           ;usb_device.c: 2884:         {;usb_device.c: 2888:                 p = (BDT_ENTRY*)(((ui
      +                          nt16_t)p) ^ 0x0004);
  5150  000AE8  0E04               	movlw	4
  5151  000AEA  0100               	movlb	0	; () banked
  5152  000AEC  19F7               	xorwf	USBStdFeatureReqHandler@p& (0+255),w,b
  5153  000AEE  6FF7               	movwf	USBStdFeatureReqHandler@p& (0+255),b
  5154  000AF0  51F8               	movf	(USBStdFeatureReqHandler@p+1)& (0+255),w,b
  5155  000AF2  6FF8               	movwf	(USBStdFeatureReqHandler@p+1)& (0+255),b
  5156  000AF4                     
  5157                           ; BSR set to: 0
  5158                           ;usb_device.c: 2890:                 if(p->STAT.UOWN == 1)
  5159  000AF4  C0F7  FFD9         	movff	USBStdFeatureReqHandler@p,fsr2l
  5160  000AF8  C0F8  FFDA         	movff	USBStdFeatureReqHandler@p+1,fsr2h
  5161  000AFC  AEDF               	btfss	indf2,7,c
  5162  000AFE  EF83  F005         	goto	u6031
  5163  000B02  EF85  F005         	goto	u6030
  5164  000B06                     u6031:
  5165  000B06  EFA1  F005         	goto	l6684
  5166  000B0A                     u6030:
  5167  000B0A                     
  5168                           ; BSR set to: 0
  5169                           ;usb_device.c: 2891:                 {;usb_device.c: 2894:                     p->STAT.V
      +                          al &= (~0x80);
  5170  000B0A  C0F7  FFD9         	movff	USBStdFeatureReqHandler@p,fsr2l
  5171  000B0E  C0F8  FFDA         	movff	USBStdFeatureReqHandler@p+1,fsr2h
  5172  000B12  0E7F               	movlw	127
  5173  000B14  16DF               	andwf	indf2,f,c
  5174  000B16                     
  5175                           ; BSR set to: 0
  5176                           ;usb_device.c: 2895:                     p->STAT.Val |= 0x40;
  5177  000B16  C0F7  FFD9         	movff	USBStdFeatureReqHandler@p,fsr2l
  5178  000B1A  C0F8  FFDA         	movff	USBStdFeatureReqHandler@p+1,fsr2h
  5179  000B1E  0E00               	movlw	0
  5180  000B20  8CDB               	bsf	plusw2,6,c
  5181  000B22                     
  5182                           ; BSR set to: 0
  5183                           ;usb_device.c: 2896:                     USER_USB_CALLBACK_EVENT_HANDLER((USB_EVENT)EVEN
      +                          T_TRANSFER_TERMINATED,p,sizeof(p));
  5184  000B22  0E00               	movlw	0
  5185  000B24  6FEB               	movwf	(USER_USB_CALLBACK_EVENT_HANDLER@event+1)& (0+255),b
  5186  000B26  0E05               	movlw	5
  5187  000B28  6FEA               	movwf	USER_USB_CALLBACK_EVENT_HANDLER@event& (0+255),b
  5188  000B2A  C0F7  F0EC         	movff	USBStdFeatureReqHandler@p,USER_USB_CALLBACK_EVENT_HANDLER@pdata
  5189  000B2E  C0F8  F0ED         	movff	USBStdFeatureReqHandler@p+1,USER_USB_CALLBACK_EVENT_HANDLER@pdata+1
  5190  000B32  0E00               	movlw	0
  5191  000B34  6FEF               	movwf	(USER_USB_CALLBACK_EVENT_HANDLER@size+1)& (0+255),b
  5192  000B36  0E02               	movlw	2
  5193  000B38  6FEE               	movwf	USER_USB_CALLBACK_EVENT_HANDLER@size& (0+255),b
  5194  000B3A  EC61  F01C         	call	_USER_USB_CALLBACK_EVENT_HANDLER	;wreg free
  5195                           
  5196                           ;usb_device.c: 2897:                 }
  5197  000B3E  EFA7  F005         	goto	l6686
  5198  000B42                     l6684:
  5199                           
  5200                           ; BSR set to: 0
  5201                           ;usb_device.c: 2899:                 {;usb_device.c: 2901:      p->STAT.Val |= 0x40;
  5202  000B42  C0F7  FFD9         	movff	USBStdFeatureReqHandler@p,fsr2l
  5203  000B46  C0F8  FFDA         	movff	USBStdFeatureReqHandler@p+1,fsr2h
  5204  000B4A  0E00               	movlw	0
  5205  000B4C  8CDB               	bsf	plusw2,6,c
  5206  000B4E                     l6686:
  5207                           
  5208                           ;usb_device.c: 2906:                 p = (BDT_ENTRY*)(((uint16_t)p) ^ 0x0004);
  5209  000B4E  0E04               	movlw	4
  5210  000B50  0100               	movlb	0	; () banked
  5211  000B52  19F7               	xorwf	USBStdFeatureReqHandler@p& (0+255),w,b
  5212  000B54  6FF7               	movwf	USBStdFeatureReqHandler@p& (0+255),b
  5213  000B56  51F8               	movf	(USBStdFeatureReqHandler@p+1)& (0+255),w,b
  5214  000B58  6FF8               	movwf	(USBStdFeatureReqHandler@p+1)& (0+255),b
  5215  000B5A                     
  5216                           ; BSR set to: 0
  5217                           ;usb_device.c: 2912:                 if((current_ep_data.bits.transfer_terminated != 0) 
      +                          || (p->STAT.UOWN == 1))
  5218  000B5A  B3F6               	btfsc	USBStdFeatureReqHandler@current_ep_data& (0+255),1,b
  5219  000B5C  EFB2  F005         	goto	u6041
  5220  000B60  EFB4  F005         	goto	u6040
  5221  000B64                     u6041:
  5222  000B64  EFBF  F005         	goto	l485
  5223  000B68                     u6040:
  5224  000B68                     
  5225                           ; BSR set to: 0
  5226  000B68  C0F7  FFD9         	movff	USBStdFeatureReqHandler@p,fsr2l
  5227  000B6C  C0F8  FFDA         	movff	USBStdFeatureReqHandler@p+1,fsr2h
  5228  000B70  AEDF               	btfss	indf2,7,c
  5229  000B72  EFBD  F005         	goto	u6051
  5230  000B76  EFBF  F005         	goto	u6050
  5231  000B7A                     u6051:
  5232  000B7A  EFF7  F005         	goto	l6700
  5233  000B7E                     u6050:
  5234  000B7E                     l485:
  5235                           
  5236                           ; BSR set to: 0
  5237                           ;usb_device.c: 2913:                 {;usb_device.c: 2914:                     if(SetupP
      +                          kt.EPDir == 0)
  5238  000B7E  0104               	movlb	4	; () banked
  5239  000B80  BF34               	btfsc	52,7,b	;volatile
  5240  000B82  EFC5  F005         	goto	u6061
  5241  000B86  EFC7  F005         	goto	u6060
  5242  000B8A                     u6061:
  5243  000B8A  EFD5  F005         	goto	l6694
  5244  000B8E                     u6060:
  5245  000B8E                     
  5246                           ; BSR set to: 4
  5247                           ;usb_device.c: 2915:                     {;usb_device.c: 2916:                         e
      +                          p_data_out[SetupPkt.EPNum].bits.transfer_terminated = 0;
  5248  000B8E  5134               	movf	52,w,b	;volatile
  5249  000B90  0B0F               	andlw	15
  5250  000B92  0100               	movlb	0	; () banked
  5251  000B94  6FF2               	movwf	??_USBStdFeatureReqHandler& (0+255),b
  5252  000B96  6BF3               	clrf	(??_USBStdFeatureReqHandler+1)& (0+255),b
  5253  000B98  0E15               	movlw	low _ep_data_out
  5254  000B9A  25F2               	addwf	??_USBStdFeatureReqHandler& (0+255),w,b
  5255  000B9C  6ED9               	movwf	fsr2l,c
  5256  000B9E  0E00               	movlw	high _ep_data_out
  5257  000BA0  21F3               	addwfc	(??_USBStdFeatureReqHandler+1)& (0+255),w,b
  5258  000BA2  6EDA               	movwf	fsr2h,c
  5259  000BA4  92DF               	bcf	indf2,1,c
  5260                           
  5261                           ;usb_device.c: 2917:                     }
  5262  000BA6  EFE1  F005         	goto	l6696
  5263  000BAA                     l6694:
  5264                           
  5265                           ; BSR set to: 4
  5266                           ;usb_device.c: 2919:                     {;usb_device.c: 2920:                         e
      +                          p_data_in[SetupPkt.EPNum].bits.transfer_terminated = 0;
  5267  000BAA  5134               	movf	52,w,b	;volatile
  5268  000BAC  0B0F               	andlw	15
  5269  000BAE  0100               	movlb	0	; () banked
  5270  000BB0  6FF2               	movwf	??_USBStdFeatureReqHandler& (0+255),b
  5271  000BB2  6BF3               	clrf	(??_USBStdFeatureReqHandler+1)& (0+255),b
  5272  000BB4  0E18               	movlw	low _ep_data_in
  5273  000BB6  25F2               	addwf	??_USBStdFeatureReqHandler& (0+255),w,b
  5274  000BB8  6ED9               	movwf	fsr2l,c
  5275  000BBA  0E00               	movlw	high _ep_data_in
  5276  000BBC  21F3               	addwfc	(??_USBStdFeatureReqHandler+1)& (0+255),w,b
  5277  000BBE  6EDA               	movwf	fsr2h,c
  5278  000BC0  92DF               	bcf	indf2,1,c
  5279  000BC2                     l6696:
  5280                           
  5281                           ; BSR set to: 0
  5282                           ;usb_device.c: 2923:                     p->STAT.Val &= ~(0x80 | 0x40 | 0x04);
  5283  000BC2  C0F7  FFD9         	movff	USBStdFeatureReqHandler@p,fsr2l
  5284  000BC6  C0F8  FFDA         	movff	USBStdFeatureReqHandler@p+1,fsr2h
  5285  000BCA  0E3B               	movlw	59
  5286  000BCC  16DF               	andwf	indf2,f,c
  5287  000BCE                     
  5288                           ; BSR set to: 0
  5289                           ;usb_device.c: 2926:                     USER_USB_CALLBACK_EVENT_HANDLER((USB_EVENT)EVEN
      +                          T_TRANSFER_TERMINATED,p,sizeof(p));
  5290  000BCE  0E00               	movlw	0
  5291  000BD0  6FEB               	movwf	(USER_USB_CALLBACK_EVENT_HANDLER@event+1)& (0+255),b
  5292  000BD2  0E05               	movlw	5
  5293  000BD4  6FEA               	movwf	USER_USB_CALLBACK_EVENT_HANDLER@event& (0+255),b
  5294  000BD6  C0F7  F0EC         	movff	USBStdFeatureReqHandler@p,USER_USB_CALLBACK_EVENT_HANDLER@pdata
  5295  000BDA  C0F8  F0ED         	movff	USBStdFeatureReqHandler@p+1,USER_USB_CALLBACK_EVENT_HANDLER@pdata+1
  5296  000BDE  0E00               	movlw	0
  5297  000BE0  6FEF               	movwf	(USER_USB_CALLBACK_EVENT_HANDLER@size+1)& (0+255),b
  5298  000BE2  0E02               	movlw	2
  5299  000BE4  6FEE               	movwf	USER_USB_CALLBACK_EVENT_HANDLER@size& (0+255),b
  5300  000BE6  EC61  F01C         	call	_USER_USB_CALLBACK_EVENT_HANDLER	;wreg free
  5301                           
  5302                           ;usb_device.c: 2927:                 }
  5303  000BEA  EFFD  F005         	goto	l6702
  5304  000BEE                     l6700:
  5305                           
  5306                           ; BSR set to: 0
  5307                           ;usb_device.c: 2929:                 {;usb_device.c: 2931:                     p->STAT.V
      +                          al &= ~(0x80 | 0x40 | 0x04);
  5308  000BEE  C0F7  FFD9         	movff	USBStdFeatureReqHandler@p,fsr2l
  5309  000BF2  C0F8  FFDA         	movff	USBStdFeatureReqHandler@p+1,fsr2h
  5310  000BF6  0E3B               	movlw	59
  5311  000BF8  16DF               	andwf	indf2,f,c
  5312  000BFA                     l6702:
  5313                           
  5314                           ;usb_device.c: 2979:                 pUEP = (unsigned char*)(&UEP0+SetupPkt.EPNum);
  5315  000BFA  0104               	movlb	4	; () banked
  5316  000BFC  5134               	movf	52,w,b	;volatile
  5317  000BFE  0B0F               	andlw	15
  5318  000C00  0100               	movlb	0	; () banked
  5319  000C02  6FF2               	movwf	??_USBStdFeatureReqHandler& (0+255),b
  5320  000C04  6BF3               	clrf	(??_USBStdFeatureReqHandler+1)& (0+255),b
  5321  000C06  0E70               	movlw	112
  5322  000C08  25F2               	addwf	??_USBStdFeatureReqHandler& (0+255),w,b
  5323  000C0A  6FF4               	movwf	USBStdFeatureReqHandler@pUEP& (0+255),b
  5324  000C0C  0E0F               	movlw	15
  5325  000C0E  21F3               	addwfc	(??_USBStdFeatureReqHandler+1)& (0+255),w,b
  5326  000C10  6FF5               	movwf	(USBStdFeatureReqHandler@pUEP+1)& (0+255),b
  5327  000C12                     
  5328                           ; BSR set to: 0
  5329                           ;usb_device.c: 2983:             *pUEP &= ~0x0001;
  5330  000C12  C0F4  FFD9         	movff	USBStdFeatureReqHandler@pUEP,fsr2l
  5331  000C16  C0F5  FFDA         	movff	USBStdFeatureReqHandler@pUEP+1,fsr2h
  5332  000C1A  0EFE               	movlw	254
  5333  000C1C  16DF               	andwf	indf2,f,c
  5334  000C1E                     l489:
  5335  000C1E  0012               	return		;funcret
  5336  000C20                     __end_of_USBStdFeatureReqHandler:
  5337                           	opt callstack 0
  5338                           
  5339 ;; *************** function _USER_USB_CALLBACK_EVENT_HANDLER *****************
  5340 ;; Defined at:
  5341 ;;		line 49 in file "usb_device_events.c"
  5342 ;; Parameters:    Size  Location     Type
  5343 ;;  event           2   12[BANK0 ] enum E44
  5344 ;;  pdata           2   14[BANK0 ] PTR void 
  5345 ;;		 -> RAM(2047), USTATcopy(1), USBActiveConfiguration(1), NULL(0), 
  5346 ;;		 -> BDT(48), 
  5347 ;;  size            2   16[BANK0 ] unsigned short 
  5348 ;; Auto vars:     Size  Location     Type
  5349 ;;		None
  5350 ;; Return value:  Size  Location     Type
  5351 ;;                  1    wreg      _Bool 
  5352 ;; Registers used:
  5353 ;;		wreg, fsr2l, fsr2h, status,2, status,0, prodl, prodh, cstack
  5354 ;; Tracked objects:
  5355 ;;		On entry : 0/0
  5356 ;;		On exit  : 0/0
  5357 ;;		Unchanged: 0/0
  5358 ;; Data sizes:     COMRAM   BANK0   BANK1   BANK2   BANK3  BANK4h  BANK4l   BANK5   BANK6   BANK7
  5359 ;;      Params:         0       6       0       0       0       0       0       0       0       0
  5360 ;;      Locals:         0       0       0       0       0       0       0       0       0       0
  5361 ;;      Temps:          0       2       0       0       0       0       0       0       0       0
  5362 ;;      Totals:         0       8       0       0       0       0       0       0       0       0
  5363 ;;Total ram usage:        8 bytes
  5364 ;; Hardware stack levels used:    1
  5365 ;; Hardware stack levels required when called:   14
  5366 ;; This function calls:
  5367 ;;		_CDCInitEP
  5368 ;;		_USBCheckCDCRequest
  5369 ;; This function is called by:
  5370 ;;		_USBDeviceTasks
  5371 ;;		_USBStdSetCfgHandler
  5372 ;;		_USBSuspend
  5373 ;;		_USBWakeFromSuspend
  5374 ;;		_USBCtrlTrfSetupHandler
  5375 ;;		_USBCheckStdRequest
  5376 ;;		_USBStdFeatureReqHandler
  5377 ;; This function uses a non-reentrant model
  5378 ;;
  5379                           
  5380                           	psect	text25
  5381  0038C2                     __ptext25:
  5382                           	opt callstack 0
  5383  0038C2                     _USER_USB_CALLBACK_EVENT_HANDLER:
  5384                           	opt callstack 15
  5385  0038C2                     
  5386                           ;usb_device_events.c: 49: _Bool USER_USB_CALLBACK_EVENT_HANDLER(USB_EVENT event, void *p
      +                          data, uint16_t size);usb_device_events.c: 50: {;usb_device_events.c: 51:     switch( (in
      +                          t) event )
  5387  0038C2  EF6B  F01C         	goto	l6402
  5388  0038C6                     l6396:
  5389                           
  5390                           ; BSR set to: 0
  5391                           ;usb_device_events.c: 76:             CDCInitEP();
  5392  0038C6  EC5E  F01D         	call	_CDCInitEP	;wreg free
  5393                           
  5394                           ;usb_device_events.c: 77:             break;
  5395  0038CA  EFA5  F01C         	goto	l636
  5396  0038CE                     l6398:
  5397                           
  5398                           ; BSR set to: 0
  5399                           ;usb_device_events.c: 85:             USBCheckCDCRequest();
  5400  0038CE  ECD7  F015         	call	_USBCheckCDCRequest	;wreg free
  5401                           
  5402                           ;usb_device_events.c: 86:             break;
  5403  0038D2  EFA5  F01C         	goto	l636
  5404  0038D6                     l6402:
  5405  0038D6  C0EA  F0F0         	movff	USER_USB_CALLBACK_EVENT_HANDLER@event,??_USER_USB_CALLBACK_EVENT_HANDLER
  5406  0038DA  C0EB  F0F1         	movff	USER_USB_CALLBACK_EVENT_HANDLER@event+1,??_USER_USB_CALLBACK_EVENT_HANDLER+1
  5407                           
  5408                           ; Switch on 2 bytes has been partitioned into a top level switch of size 1, and 2 sub-sw
      +                          itches
  5409                           ; Switch size 1, requested type "simple"
  5410                           ; Number of cases is 2, Range of values is 0 to 127
  5411                           ; switch strategies available:
  5412                           ; Name         Instructions Cycles
  5413                           ; simple_byte            7     4 (average)
  5414                           ;	Chosen strategy is simple_byte
  5415  0038DE  0100               	movlb	0	; () banked
  5416  0038E0  51F1               	movf	(??_USER_USB_CALLBACK_EVENT_HANDLER+1)& (0+255),w,b
  5417  0038E2  0A00               	xorlw	0	; case 0
  5418  0038E4  B4D8               	btfsc	status,2,c
  5419  0038E6  EF7B  F01C         	goto	l7700
  5420  0038EA  0A7F               	xorlw	127	; case 127
  5421  0038EC  B4D8               	btfsc	status,2,c
  5422  0038EE  EF9E  F01C         	goto	l7702
  5423  0038F2  EFA5  F01C         	goto	l636
  5424  0038F6                     l7700:
  5425                           
  5426                           ; BSR set to: 0
  5427                           ; Switch size 1, requested type "simple"
  5428                           ; Number of cases is 8, Range of values is 1 to 117
  5429                           ; switch strategies available:
  5430                           ; Name         Instructions Cycles
  5431                           ; simple_byte           25    13 (average)
  5432                           ;	Chosen strategy is simple_byte
  5433  0038F6  51F0               	movf	??_USER_USB_CALLBACK_EVENT_HANDLER& (0+255),w,b
  5434  0038F8  0A01               	xorlw	1	; case 1
  5435  0038FA  B4D8               	btfsc	status,2,c
  5436  0038FC  EF63  F01C         	goto	l6396
  5437  003900  0A03               	xorlw	3	; case 2
  5438  003902  B4D8               	btfsc	status,2,c
  5439  003904  EFA5  F01C         	goto	l636
  5440  003908  0A01               	xorlw	1	; case 3
  5441  00390A  B4D8               	btfsc	status,2,c
  5442  00390C  EF67  F01C         	goto	l6398
  5443  003910  0A06               	xorlw	6	; case 5
  5444  003912  B4D8               	btfsc	status,2,c
  5445  003914  EFA5  F01C         	goto	l636
  5446  003918  0A77               	xorlw	119	; case 114
  5447  00391A  B4D8               	btfsc	status,2,c
  5448  00391C  EFA5  F01C         	goto	l636
  5449  003920  0A01               	xorlw	1	; case 115
  5450  003922  B4D8               	btfsc	status,2,c
  5451  003924  EFA5  F01C         	goto	l636
  5452  003928  0A07               	xorlw	7	; case 116
  5453  00392A  B4D8               	btfsc	status,2,c
  5454  00392C  EFA5  F01C         	goto	l636
  5455  003930  0A01               	xorlw	1	; case 117
  5456  003932  B4D8               	btfsc	status,2,c
  5457  003934  EFA5  F01C         	goto	l636
  5458  003938  EFA5  F01C         	goto	l636
  5459  00393C                     l7702:
  5460                           
  5461                           ; BSR set to: 0
  5462                           ; Switch size 1, requested type "simple"
  5463                           ; Number of cases is 1, Range of values is 255 to 255
  5464                           ; switch strategies available:
  5465                           ; Name         Instructions Cycles
  5466                           ; simple_byte            4     3 (average)
  5467                           ;	Chosen strategy is simple_byte
  5468  00393C  51F0               	movf	??_USER_USB_CALLBACK_EVENT_HANDLER& (0+255),w,b
  5469  00393E  0AFF               	xorlw	255	; case 255
  5470  003940  B4D8               	btfsc	status,2,c
  5471  003942  EFA5  F01C         	goto	l636
  5472  003946  EFA5  F01C         	goto	l636
  5473  00394A                     l636:
  5474  00394A  0012               	return		;funcret
  5475  00394C                     __end_of_USER_USB_CALLBACK_EVENT_HANDLER:
  5476                           	opt callstack 0
  5477                           
  5478 ;; *************** function _USBCheckCDCRequest *****************
  5479 ;; Defined at:
  5480 ;;		line 147 in file "usb_device_cdc.c"
  5481 ;; Parameters:    Size  Location     Type
  5482 ;;		None
  5483 ;; Auto vars:     Size  Location     Type
  5484 ;;		None
  5485 ;; Return value:  Size  Location     Type
  5486 ;;                  1    wreg      void 
  5487 ;; Registers used:
  5488 ;;		wreg, status,2, status,0
  5489 ;; Tracked objects:
  5490 ;;		On entry : 0/0
  5491 ;;		On exit  : 0/0
  5492 ;;		Unchanged: 0/0
  5493 ;; Data sizes:     COMRAM   BANK0   BANK1   BANK2   BANK3  BANK4h  BANK4l   BANK5   BANK6   BANK7
  5494 ;;      Params:         0       0       0       0       0       0       0       0       0       0
  5495 ;;      Locals:         0       0       0       0       0       0       0       0       0       0
  5496 ;;      Temps:          0       2       0       0       0       0       0       0       0       0
  5497 ;;      Totals:         0       2       0       0       0       0       0       0       0       0
  5498 ;;Total ram usage:        2 bytes
  5499 ;; Hardware stack levels used:    1
  5500 ;; Hardware stack levels required when called:   11
  5501 ;; This function calls:
  5502 ;;		Nothing
  5503 ;; This function is called by:
  5504 ;;		_USER_USB_CALLBACK_EVENT_HANDLER
  5505 ;; This function uses a non-reentrant model
  5506 ;;
  5507                           
  5508                           	psect	text26
  5509  002BAE                     __ptext26:
  5510                           	opt callstack 0
  5511  002BAE                     _USBCheckCDCRequest:
  5512                           	opt callstack 17
  5513  002BAE                     
  5514                           ;usb_device_cdc.c: 152:     if(SetupPkt.Recipient != (0x01)) return;
  5515  002BAE  0104               	movlb	4	; () banked
  5516  002BB0  5130               	movf	48,w,b	;volatile
  5517  002BB2  0B1F               	andlw	31
  5518  002BB4  06E8               	decf	wreg,f,c
  5519  002BB6  B4D8               	btfsc	status,2,c
  5520  002BB8  EFE0  F015         	goto	u5531
  5521  002BBC  EFE2  F015         	goto	u5530
  5522  002BC0                     u5531:
  5523  002BC0  EFE4  F015         	goto	l6308
  5524  002BC4                     u5530:
  5525  002BC4  EF58  F016         	goto	l545
  5526  002BC8                     l6308:
  5527                           
  5528                           ; BSR set to: 4
  5529                           ;usb_device_cdc.c: 157:     if(SetupPkt.RequestType != (0x20>>5)) return;
  5530  002BC8  3930               	swapf	48,w,b	;volatile
  5531  002BCA  32E8               	rrcf	wreg,f,c
  5532  002BCC  0B03               	andlw	3
  5533  002BCE  06E8               	decf	wreg,f,c
  5534  002BD0  B4D8               	btfsc	status,2,c
  5535  002BD2  EFED  F015         	goto	u5541
  5536  002BD6  EFEF  F015         	goto	u5540
  5537  002BDA                     u5541:
  5538  002BDA  EFF1  F015         	goto	l6312
  5539  002BDE                     u5540:
  5540  002BDE  EF58  F016         	goto	l545
  5541  002BE2                     l6312:
  5542                           
  5543                           ; BSR set to: 4
  5544                           ;usb_device_cdc.c: 163:     if((SetupPkt.bIntfID != 0x0)&&
  5545  002BE2  5134               	movf	52,w,b	;volatile
  5546  002BE4  B4D8               	btfsc	status,2,c
  5547  002BE6  EFF7  F015         	goto	u5551
  5548  002BEA  EFF9  F015         	goto	u5550
  5549  002BEE                     u5551:
  5550  002BEE  EF36  F016         	goto	l6342
  5551  002BF2                     u5550:
  5552  002BF2                     
  5553                           ; BSR set to: 4
  5554  002BF2  0534               	decf	52,w,b	;volatile
  5555  002BF4  B4D8               	btfsc	status,2,c
  5556  002BF6  EFFF  F015         	goto	u5561
  5557  002BFA  EF01  F016         	goto	u5560
  5558  002BFE                     u5561:
  5559  002BFE  EF36  F016         	goto	l6342
  5560  002C02                     u5560:
  5561  002C02  EF58  F016         	goto	l545
  5562  002C06                     l6318:
  5563                           
  5564                           ; BSR set to: 0
  5565                           ;usb_device_cdc.c: 171:             inPipes[0].pSrc.bRam = (uint8_t*)&dummy_encapsulated
      +                          _cmd_response;
  5566  002C06  0ECC               	movlw	low _dummy_encapsulated_cmd_response
  5567  002C08  6E09               	movwf	_inPipes^0,c	;volatile
  5568  002C0A  0E00               	movlw	high _dummy_encapsulated_cmd_response
  5569  002C0C  6E0A               	movwf	(_inPipes+1)^0,c	;volatile
  5570  002C0E                     
  5571                           ; BSR set to: 0
  5572                           ;usb_device_cdc.c: 172:             inPipes[0].wCount.Val = 0x08;
  5573  002C0E  0E00               	movlw	0
  5574  002C10  6E0E               	movwf	(_inPipes+5)^0,c	;volatile
  5575  002C12  0E08               	movlw	8
  5576  002C14  6E0D               	movwf	(_inPipes+4)^0,c	;volatile
  5577  002C16                     
  5578                           ; BSR set to: 0
  5579                           ;usb_device_cdc.c: 173:             inPipes[0].info.bits.ctrl_trf_mem = 0x01;
  5580  002C16  800C               	bsf	(_inPipes+3)^0,0,c	;volatile
  5581  002C18                     
  5582                           ; BSR set to: 0
  5583                           ;usb_device_cdc.c: 174:             inPipes[0].info.bits.busy = 1;
  5584  002C18  8E0C               	bsf	(_inPipes+3)^0,7,c	;volatile
  5585                           
  5586                           ;usb_device_cdc.c: 175:             break;
  5587  002C1A  EF58  F016         	goto	l545
  5588  002C1E                     l6326:
  5589                           
  5590                           ; BSR set to: 0
  5591                           ;usb_device_cdc.c: 178:             inPipes[0].pSrc.bRam = (uint8_t*)&dummy_encapsulated
      +                          _cmd_response;
  5592  002C1E  0ECC               	movlw	low _dummy_encapsulated_cmd_response
  5593  002C20  6E09               	movwf	_inPipes^0,c	;volatile
  5594  002C22  0E00               	movlw	high _dummy_encapsulated_cmd_response
  5595  002C24  6E0A               	movwf	(_inPipes+1)^0,c	;volatile
  5596  002C26                     
  5597                           ; BSR set to: 0
  5598                           ;usb_device_cdc.c: 179:             inPipes[0].info.bits.busy = 1;
  5599  002C26  8E0C               	bsf	(_inPipes+3)^0,7,c	;volatile
  5600                           
  5601                           ;usb_device_cdc.c: 180:             break;
  5602  002C28  EF58  F016         	goto	l545
  5603  002C2C                     l552:
  5604                           
  5605                           ; BSR set to: 0
  5606                           ;usb_device_cdc.c: 185:             outPipes[0].wCount.Val = SetupPkt.wLength;
  5607  002C2C  C436 F005          	movff	1078,_outPipes+4	;volatile
  5608  002C30  C437 F006          	movff	1079,_outPipes+5	;volatile
  5609  002C34                     
  5610                           ; BSR set to: 0
  5611                           ;usb_device_cdc.c: 186:             outPipes[0].pDst.bRam = (uint8_t*)&line_coding._byte
      +                          [0];
  5612  002C34  0ED4               	movlw	low _line_coding
  5613  002C36  6E01               	movwf	_outPipes^0,c	;volatile
  5614  002C38  0E00               	movlw	high _line_coding
  5615  002C3A  6E02               	movwf	(_outPipes+1)^0,c	;volatile
  5616                           
  5617                           ;usb_device_cdc.c: 187:             outPipes[0].pFunc = ((void*)0);
  5618  002C3C  0E00               	movlw	0
  5619  002C3E  6E07               	movwf	(_outPipes+6)^0,c	;volatile
  5620  002C40  0E00               	movlw	0
  5621  002C42  6E08               	movwf	(_outPipes+7)^0,c	;volatile
  5622  002C44                     
  5623                           ; BSR set to: 0
  5624                           ;usb_device_cdc.c: 188:             outPipes[0].info.bits.busy = 1;
  5625  002C44  8E04               	bsf	(_outPipes+3)^0,7,c	;volatile
  5626                           
  5627                           ;usb_device_cdc.c: 189:             break;
  5628  002C46  EF58  F016         	goto	l545
  5629  002C4A                     l6334:
  5630                           
  5631                           ; BSR set to: 0
  5632                           ;usb_device_cdc.c: 192:             { inPipes[0].pSrc.bRam = (uint8_t*)&line_coding; inP
      +                          ipes[0].wCount.Val = 0x07; inPipes[0].info.Val = 0x40 | 0x80 | 0x01; };
  5633  002C4A  0ED4               	movlw	low _line_coding
  5634  002C4C  6E09               	movwf	_inPipes^0,c	;volatile
  5635  002C4E  0E00               	movlw	high _line_coding
  5636  002C50  6E0A               	movwf	(_inPipes+1)^0,c	;volatile
  5637  002C52                     
  5638                           ; BSR set to: 0
  5639  002C52  0E00               	movlw	0
  5640  002C54  6E0E               	movwf	(_inPipes+5)^0,c	;volatile
  5641  002C56  0E07               	movlw	7
  5642  002C58  6E0D               	movwf	(_inPipes+4)^0,c	;volatile
  5643  002C5A                     
  5644                           ; BSR set to: 0
  5645  002C5A  0EC1               	movlw	193
  5646  002C5C  6E0C               	movwf	(_inPipes+3)^0,c	;volatile
  5647                           
  5648                           ;usb_device_cdc.c: 196:             break;
  5649  002C5E  EF58  F016         	goto	l545
  5650  002C62                     l554:
  5651                           
  5652                           ; BSR set to: 0
  5653                           ;usb_device_cdc.c: 199:             control_signal_bitmap._byte = (uint8_t)SetupPkt.wVal
      +                          ue;
  5654  002C62  C432 F0C4          	movff	1074,_control_signal_bitmap	;volatile
  5655                           
  5656                           ;usb_device_cdc.c: 231:             inPipes[0].info.bits.busy = 1;
  5657  002C66  8E0C               	bsf	(_inPipes+3)^0,7,c	;volatile
  5658                           
  5659                           ;usb_device_cdc.c: 232:             break;
  5660  002C68  EF58  F016         	goto	l545
  5661  002C6C                     l6342:
  5662                           
  5663                           ; BSR set to: 4
  5664  002C6C  5131               	movf	49,w,b	;volatile
  5665  002C6E  0100               	movlb	0	; () banked
  5666  002C70  6FDE               	movwf	??_USBCheckCDCRequest& (0+255),b
  5667  002C72  6BDF               	clrf	(??_USBCheckCDCRequest+1)& (0+255),b
  5668                           
  5669                           ; Switch on 2 bytes has been partitioned into a top level switch of size 1, and 1 sub-sw
      +                          itches
  5670                           ; Switch size 1, requested type "simple"
  5671                           ; Number of cases is 1, Range of values is 0 to 0
  5672                           ; switch strategies available:
  5673                           ; Name         Instructions Cycles
  5674                           ; simple_byte            4     3 (average)
  5675                           ;	Chosen strategy is simple_byte
  5676  002C74  51DF               	movf	(??_USBCheckCDCRequest+1)& (0+255),w,b
  5677  002C76  0A00               	xorlw	0	; case 0
  5678  002C78  B4D8               	btfsc	status,2,c
  5679  002C7A  EF41  F016         	goto	l7704
  5680  002C7E  EF58  F016         	goto	l545
  5681  002C82                     l7704:
  5682                           
  5683                           ; BSR set to: 0
  5684                           ; Switch size 1, requested type "simple"
  5685                           ; Number of cases is 5, Range of values is 0 to 34
  5686                           ; switch strategies available:
  5687                           ; Name         Instructions Cycles
  5688                           ; simple_byte           16     9 (average)
  5689                           ;	Chosen strategy is simple_byte
  5690  002C82  51DE               	movf	??_USBCheckCDCRequest& (0+255),w,b
  5691  002C84  0A00               	xorlw	0	; case 0
  5692  002C86  B4D8               	btfsc	status,2,c
  5693  002C88  EF03  F016         	goto	l6318
  5694  002C8C  0A01               	xorlw	1	; case 1
  5695  002C8E  B4D8               	btfsc	status,2,c
  5696  002C90  EF0F  F016         	goto	l6326
  5697  002C94  0A21               	xorlw	33	; case 32
  5698  002C96  B4D8               	btfsc	status,2,c
  5699  002C98  EF16  F016         	goto	l552
  5700  002C9C  0A01               	xorlw	1	; case 33
  5701  002C9E  B4D8               	btfsc	status,2,c
  5702  002CA0  EF25  F016         	goto	l6334
  5703  002CA4  0A03               	xorlw	3	; case 34
  5704  002CA6  B4D8               	btfsc	status,2,c
  5705  002CA8  EF31  F016         	goto	l554
  5706  002CAC  EF58  F016         	goto	l545
  5707  002CB0                     l545:
  5708  002CB0  0012               	return		;funcret
  5709  002CB2                     __end_of_USBCheckCDCRequest:
  5710                           	opt callstack 0
  5711                           
  5712 ;; *************** function _CDCInitEP *****************
  5713 ;; Defined at:
  5714 ;;		line 294 in file "usb_device_cdc.c"
  5715 ;; Parameters:    Size  Location     Type
  5716 ;;		None
  5717 ;; Auto vars:     Size  Location     Type
  5718 ;;		None
  5719 ;; Return value:  Size  Location     Type
  5720 ;;                  1    wreg      void 
  5721 ;; Registers used:
  5722 ;;		wreg, fsr2l, fsr2h, status,2, status,0, prodl, prodh, cstack
  5723 ;; Tracked objects:
  5724 ;;		On entry : 0/0
  5725 ;;		On exit  : 0/0
  5726 ;;		Unchanged: 0/0
  5727 ;; Data sizes:     COMRAM   BANK0   BANK1   BANK2   BANK3  BANK4h  BANK4l   BANK5   BANK6   BANK7
  5728 ;;      Params:         0       0       0       0       0       0       0       0       0       0
  5729 ;;      Locals:         0       0       0       0       0       0       0       0       0       0
  5730 ;;      Temps:          0       0       0       0       0       0       0       0       0       0
  5731 ;;      Totals:         0       0       0       0       0       0       0       0       0       0
  5732 ;;Total ram usage:        0 bytes
  5733 ;; Hardware stack levels used:    1
  5734 ;; Hardware stack levels required when called:   13
  5735 ;; This function calls:
  5736 ;;		_USBEnableEndpoint
  5737 ;;		_USBTransferOnePacket
  5738 ;; This function is called by:
  5739 ;;		_USER_USB_CALLBACK_EVENT_HANDLER
  5740 ;; This function uses a non-reentrant model
  5741 ;;
  5742                           
  5743                           	psect	text27
  5744  003ABC                     __ptext27:
  5745                           	opt callstack 0
  5746  003ABC                     _CDCInitEP:
  5747                           	opt callstack 15
  5748  003ABC                     
  5749                           ;usb_device_cdc.c: 297:     line_coding.dwDTERate = 19200;
  5750  003ABC  0E00               	movlw	0
  5751  003ABE  0100               	movlb	0	; () banked
  5752  003AC0  6FD4               	movwf	_line_coding& (0+255),b
  5753  003AC2  0E4B               	movlw	75
  5754  003AC4  6FD5               	movwf	(_line_coding+1)& (0+255),b
  5755  003AC6  0E00               	movlw	0
  5756  003AC8  6FD6               	movwf	(_line_coding+2)& (0+255),b
  5757  003ACA  0E00               	movlw	0
  5758  003ACC  6FD7               	movwf	(_line_coding+3)& (0+255),b
  5759                           
  5760                           ;usb_device_cdc.c: 298:     line_coding.bCharFormat = 0x00;
  5761  003ACE  0E00               	movlw	0
  5762  003AD0  6FD8               	movwf	(_line_coding+4)& (0+255),b
  5763                           
  5764                           ;usb_device_cdc.c: 299:     line_coding.bParityType = 0x00;
  5765  003AD2  0E00               	movlw	0
  5766  003AD4  6FD9               	movwf	(_line_coding+5)& (0+255),b
  5767                           
  5768                           ;usb_device_cdc.c: 300:     line_coding.bDataBits = 0x08;
  5769  003AD6  0E08               	movlw	8
  5770  003AD8  6FDA               	movwf	(_line_coding+6)& (0+255),b
  5771                           
  5772                           ;usb_device_cdc.c: 302:     cdc_rx_len = 0;
  5773  003ADA  0E00               	movlw	0
  5774  003ADC  6FC7               	movwf	_cdc_rx_len& (0+255),b
  5775  003ADE                     
  5776                           ; BSR set to: 0
  5777                           ;usb_device_cdc.c: 315:     USBEnableEndpoint(1,0x02|0x10|0x08);
  5778  003ADE  0E1A               	movlw	26
  5779  003AE0  6FE6               	movwf	USBEnableEndpoint@options& (0+255),b
  5780  003AE2  0E01               	movlw	1
  5781  003AE4  ECAC  F01E         	call	_USBEnableEndpoint
  5782  003AE8                     
  5783                           ;usb_device_cdc.c: 316:     USBEnableEndpoint(2,0x02|0x04|0x10|0x08);
  5784  003AE8  0E1E               	movlw	30
  5785  003AEA  0100               	movlb	0	; () banked
  5786  003AEC  6FE6               	movwf	USBEnableEndpoint@options& (0+255),b
  5787  003AEE  0E02               	movlw	2
  5788  003AF0  ECAC  F01E         	call	_USBEnableEndpoint
  5789  003AF4                     
  5790                           ;usb_device_cdc.c: 318:     CDCDataOutHandle = USBTransferOnePacket(2,0,(uint8_t*)&cdc_d
      +                          ata_rx,sizeof(cdc_data_rx));
  5791  003AF4  0E00               	movlw	0
  5792  003AF6  0100               	movlb	0	; () banked
  5793  003AF8  6FDE               	movwf	USBTransferOnePacket@dir& (0+255),b
  5794  003AFA  0E40               	movlw	64
  5795  003AFC  6FDF               	movwf	USBTransferOnePacket@data& (0+255),b
  5796  003AFE  0E05               	movlw	5
  5797  003B00  6FE0               	movwf	(USBTransferOnePacket@data+1)& (0+255),b
  5798  003B02  0E40               	movlw	64
  5799  003B04  6FE1               	movwf	USBTransferOnePacket@len& (0+255),b
  5800  003B06  0E02               	movlw	2
  5801  003B08  EC1A  F010         	call	_USBTransferOnePacket
  5802  003B0C  C0DE  F0C0         	movff	?_USBTransferOnePacket,_CDCDataOutHandle
  5803  003B10  C0DF  F0C1         	movff	?_USBTransferOnePacket+1,_CDCDataOutHandle+1
  5804  003B14                     
  5805                           ;usb_device_cdc.c: 319:     CDCDataInHandle = ((void*)0);
  5806  003B14  0E00               	movlw	0
  5807  003B16  0100               	movlb	0	; () banked
  5808  003B18  6FBE               	movwf	_CDCDataInHandle& (0+255),b
  5809  003B1A  0E00               	movlw	0
  5810  003B1C  6FBF               	movwf	(_CDCDataInHandle+1)& (0+255),b
  5811  003B1E                     
  5812                           ; BSR set to: 0
  5813                           ;usb_device_cdc.c: 346:     cdc_trf_state = 0;
  5814  003B1E  0E00               	movlw	0
  5815  003B20  6E1F               	movwf	_cdc_trf_state^0,c
  5816  003B22                     
  5817                           ; BSR set to: 0
  5818  003B22  0012               	return		;funcret
  5819  003B24                     __end_of_CDCInitEP:
  5820                           	opt callstack 0
  5821                           
  5822 ;; *************** function _USBTransferOnePacket *****************
  5823 ;; Defined at:
  5824 ;;		line 1001 in file "usb_device.c"
  5825 ;; Parameters:    Size  Location     Type
  5826 ;;  ep              1    wreg     unsigned char 
  5827 ;;  dir             1    0[BANK0 ] unsigned char 
  5828 ;;  data            2    1[BANK0 ] PTR unsigned char 
  5829 ;;		 -> cdc_data_tx(64), cdc_data_rx(64), NULL(0), 
  5830 ;;  len             1    3[BANK0 ] unsigned char 
  5831 ;; Auto vars:     Size  Location     Type
  5832 ;;  ep              1    8[BANK0 ] unsigned char 
  5833 ;;  handle          2    9[BANK0 ] PTR volatile struct __BD
  5834 ;;		 -> RAM(2047), NULL(0), BDT(48), 
  5835 ;; Return value:  Size  Location     Type
  5836 ;;                  2    0[BANK0 ] PTR void 
  5837 ;; Registers used:
  5838 ;;		wreg, fsr2l, fsr2h, status,2, status,0, prodl, prodh
  5839 ;; Tracked objects:
  5840 ;;		On entry : 0/0
  5841 ;;		On exit  : 0/0
  5842 ;;		Unchanged: 0/0
  5843 ;; Data sizes:     COMRAM   BANK0   BANK1   BANK2   BANK3  BANK4h  BANK4l   BANK5   BANK6   BANK7
  5844 ;;      Params:         0       4       0       0       0       0       0       0       0       0
  5845 ;;      Locals:         0       3       0       0       0       0       0       0       0       0
  5846 ;;      Temps:          0       4       0       0       0       0       0       0       0       0
  5847 ;;      Totals:         0      11       0       0       0       0       0       0       0       0
  5848 ;;Total ram usage:       11 bytes
  5849 ;; Hardware stack levels used:    1
  5850 ;; Hardware stack levels required when called:   11
  5851 ;; This function calls:
  5852 ;;		Nothing
  5853 ;; This function is called by:
  5854 ;;		_CDCInitEP
  5855 ;;		_CDCTxService
  5856 ;;		_USBCDCEventHandler
  5857 ;;		_getsUSBUSART
  5858 ;; This function uses a non-reentrant model
  5859 ;;
  5860                           
  5861                           	psect	text28
  5862  002034                     __ptext28:
  5863                           	opt callstack 0
  5864  002034                     _USBTransferOnePacket:
  5865                           	opt callstack 17
  5866                           
  5867                           ; BSR set to: 0
  5868                           ;incstack = 0
  5869                           ;USBTransferOnePacket@ep stored from wreg
  5870  002034  0100               	movlb	0	; () banked
  5871  002036  6FE6               	movwf	USBTransferOnePacket@ep& (0+255),b
  5872  002038                     
  5873                           ;usb_device.c: 1001: void* USBTransferOnePacket(uint8_t ep,uint8_t dir,uint8_t* data,uin
      +                          t8_t len);usb_device.c: 1002: {;usb_device.c: 1003:     volatile BDT_ENTRY* handle;;usb_
      +                          device.c: 1006:     if(dir != 0)
  5874  002038  0100               	movlb	0	; () banked
  5875  00203A  51DE               	movf	USBTransferOnePacket@dir& (0+255),w,b
  5876  00203C  B4D8               	btfsc	status,2,c
  5877  00203E  EF23  F010         	goto	u5501
  5878  002042  EF25  F010         	goto	u5500
  5879  002046                     u5501:
  5880  002046  EF33  F010         	goto	l6278
  5881  00204A                     u5500:
  5882  00204A                     
  5883                           ; BSR set to: 0
  5884                           ;usb_device.c: 1007:     {;usb_device.c: 1009:         handle = pBDTEntryIn[ep];
  5885  00204A  51E6               	movf	USBTransferOnePacket@ep& (0+255),w,b
  5886  00204C  0D02               	mullw	2
  5887  00204E  0E0F               	movlw	low _pBDTEntryIn
  5888  002050  24F3               	addwf	243,w,c
  5889  002052  6ED9               	movwf	fsr2l,c
  5890  002054  0E00               	movlw	high _pBDTEntryIn
  5891  002056  20F4               	addwfc	prodh,w,c
  5892  002058  6EDA               	movwf	fsr2h,c
  5893  00205A  CFDE F0E7          	movff	postinc2,USBTransferOnePacket@handle
  5894  00205E  CFDD F0E8          	movff	postdec2,USBTransferOnePacket@handle+1
  5895                           
  5896                           ;usb_device.c: 1010:     }
  5897  002062  EF3F  F010         	goto	l6280
  5898  002066                     l6278:
  5899                           
  5900                           ; BSR set to: 0
  5901                           ;usb_device.c: 1012:     {;usb_device.c: 1014:         handle = pBDTEntryOut[ep];
  5902  002066  51E6               	movf	USBTransferOnePacket@ep& (0+255),w,b
  5903  002068  0D02               	mullw	2
  5904  00206A  0EAA               	movlw	low _pBDTEntryOut
  5905  00206C  24F3               	addwf	243,w,c
  5906  00206E  6ED9               	movwf	fsr2l,c
  5907  002070  0E00               	movlw	high _pBDTEntryOut
  5908  002072  20F4               	addwfc	prodh,w,c
  5909  002074  6EDA               	movwf	fsr2h,c
  5910  002076  CFDE F0E7          	movff	postinc2,USBTransferOnePacket@handle
  5911  00207A  CFDD F0E8          	movff	postdec2,USBTransferOnePacket@handle+1
  5912  00207E                     l6280:
  5913                           
  5914                           ; BSR set to: 0
  5915                           ;usb_device.c: 1019:     if(handle == 0)
  5916  00207E  51E7               	movf	USBTransferOnePacket@handle& (0+255),w,b
  5917  002080  11E8               	iorwf	(USBTransferOnePacket@handle+1)& (0+255),w,b
  5918  002082  A4D8               	btfss	status,2,c
  5919  002084  EF46  F010         	goto	u5511
  5920  002088  EF48  F010         	goto	u5510
  5921  00208C                     u5511:
  5922  00208C  EF4E  F010         	goto	l6286
  5923  002090                     u5510:
  5924  002090                     
  5925                           ; BSR set to: 0
  5926                           ;usb_device.c: 1020:     {;usb_device.c: 1021:         return 0;
  5927  002090  0E00               	movlw	0
  5928  002092  6FDE               	movwf	?_USBTransferOnePacket& (0+255),b
  5929  002094  0E00               	movlw	0
  5930  002096  6FDF               	movwf	(?_USBTransferOnePacket+1)& (0+255),b
  5931  002098  EFBA  F010         	goto	l282
  5932  00209C                     l6286:
  5933                           
  5934                           ; BSR set to: 0
  5935                           ;usb_device.c: 1035:     handle->ADR = ((uint16_t)(data));
  5936  00209C  EE20 F002          	lfsr	2,2
  5937  0020A0  51E7               	movf	USBTransferOnePacket@handle& (0+255),w,b
  5938  0020A2  26D9               	addwf	fsr2l,f,c
  5939  0020A4  51E8               	movf	(USBTransferOnePacket@handle+1)& (0+255),w,b
  5940  0020A6  22DA               	addwfc	fsr2h,f,c
  5941  0020A8  C0DF  FFDE         	movff	USBTransferOnePacket@data,postinc2
  5942  0020AC  C0E0  FFDD         	movff	USBTransferOnePacket@data+1,postdec2
  5943                           
  5944                           ;usb_device.c: 1036:     handle->CNT = len;
  5945  0020B0  EE20 F001          	lfsr	2,1
  5946  0020B4  51E7               	movf	USBTransferOnePacket@handle& (0+255),w,b
  5947  0020B6  26D9               	addwf	fsr2l,f,c
  5948  0020B8  51E8               	movf	(USBTransferOnePacket@handle+1)& (0+255),w,b
  5949  0020BA  22DA               	addwfc	fsr2h,f,c
  5950  0020BC  C0E1  FFDF         	movff	USBTransferOnePacket@len,indf2
  5951  0020C0                     
  5952                           ; BSR set to: 0
  5953                           ;usb_device.c: 1037:     handle->STAT.Val &= 0x40;
  5954  0020C0  C0E7  FFD9         	movff	USBTransferOnePacket@handle,fsr2l
  5955  0020C4  C0E8  FFDA         	movff	USBTransferOnePacket@handle+1,fsr2h
  5956  0020C8  0E40               	movlw	64
  5957  0020CA  16DF               	andwf	indf2,f,c
  5958  0020CC                     
  5959                           ; BSR set to: 0
  5960                           ;usb_device.c: 1038:     handle->STAT.Val |= (0x08 & 0x08);
  5961  0020CC  C0E7  FFD9         	movff	USBTransferOnePacket@handle,fsr2l
  5962  0020D0  C0E8  FFDA         	movff	USBTransferOnePacket@handle+1,fsr2h
  5963  0020D4  0E00               	movlw	0
  5964  0020D6  86DB               	bsf	plusw2,3,c
  5965  0020D8                     
  5966                           ; BSR set to: 0
  5967                           ;usb_device.c: 1039:     handle->STAT.Val |= 0x80;
  5968  0020D8  C0E7  FFD9         	movff	USBTransferOnePacket@handle,fsr2l
  5969  0020DC  C0E8  FFDA         	movff	USBTransferOnePacket@handle+1,fsr2h
  5970  0020E0  0E00               	movlw	0
  5971  0020E2  8EDB               	bsf	plusw2,7,c
  5972  0020E4                     
  5973                           ; BSR set to: 0
  5974                           ;usb_device.c: 1042:     if(dir != 0)
  5975  0020E4  51DE               	movf	USBTransferOnePacket@dir& (0+255),w,b
  5976  0020E6  B4D8               	btfsc	status,2,c
  5977  0020E8  EF78  F010         	goto	u5521
  5978  0020EC  EF7A  F010         	goto	u5520
  5979  0020F0                     u5521:
  5980  0020F0  EF99  F010         	goto	l6298
  5981  0020F4                     u5520:
  5982  0020F4                     
  5983                           ; BSR set to: 0
  5984                           ;usb_device.c: 1043:     {;usb_device.c: 1045:         pBDTEntryIn[ep] = (BDT_ENTRY*)(((
      +                          uint16_t)pBDTEntryIn[ep]) ^ 0x0004);
  5985  0020F4  51E6               	movf	USBTransferOnePacket@ep& (0+255),w,b
  5986  0020F6  0D02               	mullw	2
  5987  0020F8  0E0F               	movlw	low _pBDTEntryIn
  5988  0020FA  24F3               	addwf	243,w,c
  5989  0020FC  6ED9               	movwf	fsr2l,c
  5990  0020FE  0E00               	movlw	high _pBDTEntryIn
  5991  002100  20F4               	addwfc	prodh,w,c
  5992  002102  6EDA               	movwf	fsr2h,c
  5993  002104  CFDE F0E2          	movff	postinc2,??_USBTransferOnePacket
  5994  002108  CFDD F0E3          	movff	postdec2,??_USBTransferOnePacket+1
  5995  00210C  0E04               	movlw	4
  5996  00210E  19E2               	xorwf	??_USBTransferOnePacket& (0+255),w,b
  5997  002110  6FE4               	movwf	(??_USBTransferOnePacket+2)& (0+255),b
  5998  002112  51E3               	movf	(??_USBTransferOnePacket+1)& (0+255),w,b
  5999  002114  6FE5               	movwf	(??_USBTransferOnePacket+3)& (0+255),b
  6000  002116  51E6               	movf	USBTransferOnePacket@ep& (0+255),w,b
  6001  002118  0D02               	mullw	2
  6002  00211A  0E0F               	movlw	low _pBDTEntryIn
  6003  00211C  24F3               	addwf	243,w,c
  6004  00211E  6ED9               	movwf	fsr2l,c
  6005  002120  0E00               	movlw	high _pBDTEntryIn
  6006  002122  20F4               	addwfc	prodh,w,c
  6007  002124  6EDA               	movwf	fsr2h,c
  6008  002126  C0E4  FFDE         	movff	??_USBTransferOnePacket+2,postinc2
  6009  00212A  C0E5  FFDD         	movff	??_USBTransferOnePacket+3,postdec2
  6010                           
  6011                           ;usb_device.c: 1046:     }
  6012  00212E  EFB6  F010         	goto	l6300
  6013  002132                     l6298:
  6014                           
  6015                           ; BSR set to: 0
  6016                           ;usb_device.c: 1048:     {;usb_device.c: 1050:         pBDTEntryOut[ep] = (BDT_ENTRY*)((
      +                          (uint16_t)pBDTEntryOut[ep]) ^ 0x0004);
  6017  002132  51E6               	movf	USBTransferOnePacket@ep& (0+255),w,b
  6018  002134  0D02               	mullw	2
  6019  002136  0EAA               	movlw	low _pBDTEntryOut
  6020  002138  24F3               	addwf	243,w,c
  6021  00213A  6ED9               	movwf	fsr2l,c
  6022  00213C  0E00               	movlw	high _pBDTEntryOut
  6023  00213E  20F4               	addwfc	prodh,w,c
  6024  002140  6EDA               	movwf	fsr2h,c
  6025  002142  CFDE F0E2          	movff	postinc2,??_USBTransferOnePacket
  6026  002146  CFDD F0E3          	movff	postdec2,??_USBTransferOnePacket+1
  6027  00214A  0E04               	movlw	4
  6028  00214C  19E2               	xorwf	??_USBTransferOnePacket& (0+255),w,b
  6029  00214E  6FE4               	movwf	(??_USBTransferOnePacket+2)& (0+255),b
  6030  002150  51E3               	movf	(??_USBTransferOnePacket+1)& (0+255),w,b
  6031  002152  6FE5               	movwf	(??_USBTransferOnePacket+3)& (0+255),b
  6032  002154  51E6               	movf	USBTransferOnePacket@ep& (0+255),w,b
  6033  002156  0D02               	mullw	2
  6034  002158  0EAA               	movlw	low _pBDTEntryOut
  6035  00215A  24F3               	addwf	243,w,c
  6036  00215C  6ED9               	movwf	fsr2l,c
  6037  00215E  0E00               	movlw	high _pBDTEntryOut
  6038  002160  20F4               	addwfc	prodh,w,c
  6039  002162  6EDA               	movwf	fsr2h,c
  6040  002164  C0E4  FFDE         	movff	??_USBTransferOnePacket+2,postinc2
  6041  002168  C0E5  FFDD         	movff	??_USBTransferOnePacket+3,postdec2
  6042  00216C                     l6300:
  6043                           
  6044                           ; BSR set to: 0
  6045                           ;usb_device.c: 1052:     return (void*)handle;
  6046  00216C  C0E7  F0DE         	movff	USBTransferOnePacket@handle,?_USBTransferOnePacket
  6047  002170  C0E8  F0DF         	movff	USBTransferOnePacket@handle+1,?_USBTransferOnePacket+1
  6048  002174                     l282:
  6049                           
  6050                           ; BSR set to: 0
  6051  002174  0012               	return		;funcret
  6052  002176                     __end_of_USBTransferOnePacket:
  6053                           	opt callstack 0
  6054                           
  6055 ;; *************** function _USBEnableEndpoint *****************
  6056 ;; Defined at:
  6057 ;;		line 884 in file "usb_device.c"
  6058 ;; Parameters:    Size  Location     Type
  6059 ;;  ep              1    wreg     unsigned char 
  6060 ;;  options         1    8[BANK0 ] unsigned char 
  6061 ;; Auto vars:     Size  Location     Type
  6062 ;;  ep              1   11[BANK0 ] unsigned char 
  6063 ;;  p               2    9[BANK0 ] PTR unsigned char 
  6064 ;;		 -> UEP0(1), 
  6065 ;; Return value:  Size  Location     Type
  6066 ;;                  1    wreg      void 
  6067 ;; Registers used:
  6068 ;;		wreg, fsr2l, fsr2h, status,2, status,0, prodl, prodh, cstack
  6069 ;; Tracked objects:
  6070 ;;		On entry : 0/0
  6071 ;;		On exit  : 0/0
  6072 ;;		Unchanged: 0/0
  6073 ;; Data sizes:     COMRAM   BANK0   BANK1   BANK2   BANK3  BANK4h  BANK4l   BANK5   BANK6   BANK7
  6074 ;;      Params:         0       1       0       0       0       0       0       0       0       0
  6075 ;;      Locals:         0       3       0       0       0       0       0       0       0       0
  6076 ;;      Temps:          0       0       0       0       0       0       0       0       0       0
  6077 ;;      Totals:         0       4       0       0       0       0       0       0       0       0
  6078 ;;Total ram usage:        4 bytes
  6079 ;; Hardware stack levels used:    1
  6080 ;; Hardware stack levels required when called:   12
  6081 ;; This function calls:
  6082 ;;		_USBConfigureEndpoint
  6083 ;; This function is called by:
  6084 ;;		_CDCInitEP
  6085 ;; This function uses a non-reentrant model
  6086 ;;
  6087                           
  6088                           	psect	text29
  6089  003D58                     __ptext29:
  6090                           	opt callstack 0
  6091  003D58                     _USBEnableEndpoint:
  6092                           	opt callstack 15
  6093                           
  6094                           ; BSR set to: 0
  6095                           ;incstack = 0
  6096                           ;USBEnableEndpoint@ep stored from wreg
  6097  003D58  0100               	movlb	0	; () banked
  6098  003D5A  6FE9               	movwf	USBEnableEndpoint@ep& (0+255),b
  6099  003D5C                     
  6100                           ;usb_device.c: 884: void USBEnableEndpoint(uint8_t ep, uint8_t options);usb_device.c: 88
      +                          5: {;usb_device.c: 886:     unsigned char* p;;usb_device.c: 890:     if(options & 0x04)
  6101  003D5C  0100               	movlb	0	; () banked
  6102  003D5E  A5E6               	btfss	USBEnableEndpoint@options& (0+255),2,b
  6103  003D60  EFB4  F01E         	goto	u5481
  6104  003D64  EFB6  F01E         	goto	u5480
  6105  003D68                     u5481:
  6106  003D68  EFBB  F01E         	goto	l6266
  6107  003D6C                     u5480:
  6108  003D6C                     
  6109                           ; BSR set to: 0
  6110                           ;usb_device.c: 891:     {;usb_device.c: 892:         USBConfigureEndpoint(ep, 0);
  6111  003D6C  0E00               	movlw	0
  6112  003D6E  6FDE               	movwf	USBConfigureEndpoint@direction& (0+255),b
  6113  003D70  51E9               	movf	USBEnableEndpoint@ep& (0+255),w,b
  6114  003D72  EC74  F01A         	call	_USBConfigureEndpoint
  6115  003D76                     l6266:
  6116                           
  6117                           ;usb_device.c: 894:     if(options & 0x02)
  6118  003D76  0100               	movlb	0	; () banked
  6119  003D78  A3E6               	btfss	USBEnableEndpoint@options& (0+255),1,b
  6120  003D7A  EFC1  F01E         	goto	u5491
  6121  003D7E  EFC3  F01E         	goto	u5490
  6122  003D82                     u5491:
  6123  003D82  EFC8  F01E         	goto	l6270
  6124  003D86                     u5490:
  6125  003D86                     
  6126                           ; BSR set to: 0
  6127                           ;usb_device.c: 895:     {;usb_device.c: 896:         USBConfigureEndpoint(ep, 1);
  6128  003D86  0E01               	movlw	1
  6129  003D88  6FDE               	movwf	USBConfigureEndpoint@direction& (0+255),b
  6130  003D8A  51E9               	movf	USBEnableEndpoint@ep& (0+255),w,b
  6131  003D8C  EC74  F01A         	call	_USBConfigureEndpoint
  6132  003D90                     l6270:
  6133                           
  6134                           ;usb_device.c: 905:         p = (unsigned char*)(&UEP0+ep);
  6135  003D90  0E70               	movlw	112
  6136  003D92  0100               	movlb	0	; () banked
  6137  003D94  25E9               	addwf	USBEnableEndpoint@ep& (0+255),w,b
  6138  003D96  6FE7               	movwf	USBEnableEndpoint@p& (0+255),b
  6139  003D98  6BE8               	clrf	(USBEnableEndpoint@p+1)& (0+255),b
  6140  003D9A  0E0F               	movlw	15
  6141  003D9C  23E8               	addwfc	(USBEnableEndpoint@p+1)& (0+255),f,b
  6142  003D9E                     
  6143                           ; BSR set to: 0
  6144                           ;usb_device.c: 907:     *p = options;
  6145  003D9E  C0E7  FFD9         	movff	USBEnableEndpoint@p,fsr2l
  6146  003DA2  C0E8  FFDA         	movff	USBEnableEndpoint@p+1,fsr2h
  6147  003DA6  C0E6  FFDF         	movff	USBEnableEndpoint@options,indf2
  6148  003DAA                     
  6149                           ; BSR set to: 0
  6150  003DAA  0012               	return		;funcret
  6151  003DAC                     __end_of_USBEnableEndpoint:
  6152                           	opt callstack 0
  6153                           
  6154 ;; *************** function _USBConfigureEndpoint *****************
  6155 ;; Defined at:
  6156 ;;		line 1549 in file "usb_device.c"
  6157 ;; Parameters:    Size  Location     Type
  6158 ;;  EPNum           1    wreg     unsigned char 
  6159 ;;  direction       1    0[BANK0 ] unsigned char 
  6160 ;; Auto vars:     Size  Location     Type
  6161 ;;  EPNum           1    5[BANK0 ] unsigned char 
  6162 ;;  handle          2    6[BANK0 ] PTR volatile struct __BD
  6163 ;;		 -> BDT(48), 
  6164 ;; Return value:  Size  Location     Type
  6165 ;;                  1    wreg      void 
  6166 ;; Registers used:
  6167 ;;		wreg, fsr2l, fsr2h, status,2, status,0, prodl, prodh
  6168 ;; Tracked objects:
  6169 ;;		On entry : 0/0
  6170 ;;		On exit  : 0/0
  6171 ;;		Unchanged: 0/0
  6172 ;; Data sizes:     COMRAM   BANK0   BANK1   BANK2   BANK3  BANK4h  BANK4l   BANK5   BANK6   BANK7
  6173 ;;      Params:         0       1       0       0       0       0       0       0       0       0
  6174 ;;      Locals:         0       3       0       0       0       0       0       0       0       0
  6175 ;;      Temps:          0       4       0       0       0       0       0       0       0       0
  6176 ;;      Totals:         0       8       0       0       0       0       0       0       0       0
  6177 ;;Total ram usage:        8 bytes
  6178 ;; Hardware stack levels used:    1
  6179 ;; Hardware stack levels required when called:   11
  6180 ;; This function calls:
  6181 ;;		Nothing
  6182 ;; This function is called by:
  6183 ;;		_USBEnableEndpoint
  6184 ;; This function uses a non-reentrant model
  6185 ;;
  6186                           
  6187                           	psect	text30
  6188  0034E8                     __ptext30:
  6189                           	opt callstack 0
  6190  0034E8                     _USBConfigureEndpoint:
  6191                           	opt callstack 15
  6192                           
  6193                           ; BSR set to: 0
  6194                           ;incstack = 0
  6195                           ;USBConfigureEndpoint@EPNum stored from wreg
  6196  0034E8  0100               	movlb	0	; () banked
  6197  0034EA  6FE3               	movwf	USBConfigureEndpoint@EPNum& (0+255),b
  6198  0034EC                     
  6199                           ;usb_device.c: 1549: static void USBConfigureEndpoint(uint8_t EPNum, uint8_t direction);
      +                          usb_device.c: 1550: {;usb_device.c: 1551:     volatile BDT_ENTRY* handle;;usb_device.c: 
      +                          1555:     handle = (volatile BDT_ENTRY*)&BDT[0];
  6200  0034EC  0E00               	movlw	0
  6201  0034EE  0100               	movlb	0	; () banked
  6202  0034F0  6FE4               	movwf	USBConfigureEndpoint@handle& (0+255),b
  6203  0034F2  0E04               	movlw	4
  6204  0034F4  6FE5               	movwf	(USBConfigureEndpoint@handle+1)& (0+255),b
  6205  0034F6                     
  6206                           ; BSR set to: 0
  6207                           ;usb_device.c: 1556:     handle += (4*EPNum+2*direction+0u);
  6208  0034F6  51DE               	movf	USBConfigureEndpoint@direction& (0+255),w,b
  6209  0034F8  6FDF               	movwf	??_USBConfigureEndpoint& (0+255),b
  6210  0034FA  6BE0               	clrf	(??_USBConfigureEndpoint+1)& (0+255),b
  6211  0034FC  90D8               	bcf	status,0,c
  6212  0034FE  37DF               	rlcf	??_USBConfigureEndpoint& (0+255),f,b
  6213  003500  37E0               	rlcf	(??_USBConfigureEndpoint+1)& (0+255),f,b
  6214  003502  51E3               	movf	USBConfigureEndpoint@EPNum& (0+255),w,b
  6215  003504  6FE1               	movwf	(??_USBConfigureEndpoint+2)& (0+255),b
  6216  003506  6BE2               	clrf	(??_USBConfigureEndpoint+3)& (0+255),b
  6217  003508  90D8               	bcf	status,0,c
  6218  00350A  37E1               	rlcf	(??_USBConfigureEndpoint+2)& (0+255),f,b
  6219  00350C  37E2               	rlcf	(??_USBConfigureEndpoint+3)& (0+255),f,b
  6220  00350E  90D8               	bcf	status,0,c
  6221  003510  37E1               	rlcf	(??_USBConfigureEndpoint+2)& (0+255),f,b
  6222  003512  37E2               	rlcf	(??_USBConfigureEndpoint+3)& (0+255),f,b
  6223  003514  51DF               	movf	??_USBConfigureEndpoint& (0+255),w,b
  6224  003516  27E1               	addwf	(??_USBConfigureEndpoint+2)& (0+255),f,b
  6225  003518  51E0               	movf	(??_USBConfigureEndpoint+1)& (0+255),w,b
  6226  00351A  23E2               	addwfc	(??_USBConfigureEndpoint+3)& (0+255),f,b
  6227  00351C  90D8               	bcf	status,0,c
  6228  00351E  37E1               	rlcf	(??_USBConfigureEndpoint+2)& (0+255),f,b
  6229  003520  37E2               	rlcf	(??_USBConfigureEndpoint+3)& (0+255),f,b
  6230  003522  90D8               	bcf	status,0,c
  6231  003524  37E1               	rlcf	(??_USBConfigureEndpoint+2)& (0+255),f,b
  6232  003526  37E2               	rlcf	(??_USBConfigureEndpoint+3)& (0+255),f,b
  6233  003528  51E1               	movf	(??_USBConfigureEndpoint+2)& (0+255),w,b
  6234  00352A  27E4               	addwf	USBConfigureEndpoint@handle& (0+255),f,b
  6235  00352C  51E2               	movf	(??_USBConfigureEndpoint+3)& (0+255),w,b
  6236  00352E  23E5               	addwfc	(USBConfigureEndpoint@handle+1)& (0+255),f,b
  6237  003530                     
  6238                           ; BSR set to: 0
  6239                           ;usb_device.c: 1558:     handle->STAT.UOWN = 0;
  6240  003530  C0E4  FFD9         	movff	USBConfigureEndpoint@handle,fsr2l
  6241  003534  C0E5  FFDA         	movff	USBConfigureEndpoint@handle+1,fsr2h
  6242  003538  9EDF               	bcf	indf2,7,c
  6243  00353A                     
  6244                           ; BSR set to: 0
  6245                           ;usb_device.c: 1563:     if(direction == 0)
  6246  00353A  51DE               	movf	USBConfigureEndpoint@direction& (0+255),w,b
  6247  00353C  A4D8               	btfss	status,2,c
  6248  00353E  EFA3  F01A         	goto	u5471
  6249  003542  EFA5  F01A         	goto	u5470
  6250  003546                     u5471:
  6251  003546  EFB3  F01A         	goto	l6256
  6252  00354A                     u5470:
  6253  00354A                     
  6254                           ; BSR set to: 0
  6255                           ;usb_device.c: 1564:     {;usb_device.c: 1565:         pBDTEntryOut[EPNum] = handle;
  6256  00354A  51E3               	movf	USBConfigureEndpoint@EPNum& (0+255),w,b
  6257  00354C  0D02               	mullw	2
  6258  00354E  0EAA               	movlw	low _pBDTEntryOut
  6259  003550  24F3               	addwf	243,w,c
  6260  003552  6ED9               	movwf	fsr2l,c
  6261  003554  0E00               	movlw	high _pBDTEntryOut
  6262  003556  20F4               	addwfc	prodh,w,c
  6263  003558  6EDA               	movwf	fsr2h,c
  6264  00355A  C0E4  FFDE         	movff	USBConfigureEndpoint@handle,postinc2
  6265  00355E  C0E5  FFDD         	movff	USBConfigureEndpoint@handle+1,postdec2
  6266                           
  6267                           ;usb_device.c: 1566:     }
  6268  003562  EFBF  F01A         	goto	l6258
  6269  003566                     l6256:
  6270                           
  6271                           ; BSR set to: 0
  6272                           ;usb_device.c: 1568:     {;usb_device.c: 1569:         pBDTEntryIn[EPNum] = handle;
  6273  003566  51E3               	movf	USBConfigureEndpoint@EPNum& (0+255),w,b
  6274  003568  0D02               	mullw	2
  6275  00356A  0E0F               	movlw	low _pBDTEntryIn
  6276  00356C  24F3               	addwf	243,w,c
  6277  00356E  6ED9               	movwf	fsr2l,c
  6278  003570  0E00               	movlw	high _pBDTEntryIn
  6279  003572  20F4               	addwfc	prodh,w,c
  6280  003574  6EDA               	movwf	fsr2h,c
  6281  003576  C0E4  FFDE         	movff	USBConfigureEndpoint@handle,postinc2
  6282  00357A  C0E5  FFDD         	movff	USBConfigureEndpoint@handle+1,postdec2
  6283  00357E                     l6258:
  6284                           
  6285                           ; BSR set to: 0
  6286                           ;usb_device.c: 1573:         handle->STAT.DTS = 0;
  6287  00357E  C0E4  FFD9         	movff	USBConfigureEndpoint@handle,fsr2l
  6288  003582  C0E5  FFDA         	movff	USBConfigureEndpoint@handle+1,fsr2h
  6289  003586  9CDF               	bcf	indf2,6,c
  6290  003588                     
  6291                           ; BSR set to: 0
  6292                           ;usb_device.c: 1574:         (handle+1)->STAT.DTS = 1;
  6293  003588  EE20 F004          	lfsr	2,4
  6294  00358C  51E4               	movf	USBConfigureEndpoint@handle& (0+255),w,b
  6295  00358E  26D9               	addwf	fsr2l,f,c
  6296  003590  51E5               	movf	(USBConfigureEndpoint@handle+1)& (0+255),w,b
  6297  003592  22DA               	addwfc	fsr2h,f,c
  6298  003594  8CDF               	bsf	indf2,6,c
  6299  003596                     
  6300                           ; BSR set to: 0
  6301  003596  0012               	return		;funcret
  6302  003598                     __end_of_USBConfigureEndpoint:
  6303                           	opt callstack 0
  6304                           
  6305 ;; *************** function _USBCtrlTrfOutHandler *****************
  6306 ;; Defined at:
  6307 ;;		line 2544 in file "usb_device.c"
  6308 ;; Parameters:    Size  Location     Type
  6309 ;;		None
  6310 ;; Auto vars:     Size  Location     Type
  6311 ;;		None
  6312 ;; Return value:  Size  Location     Type
  6313 ;;                  1    wreg      void 
  6314 ;; Registers used:
  6315 ;;		wreg, fsr1l, fsr1h, fsr2l, fsr2h, status,2, status,0, cstack
  6316 ;; Tracked objects:
  6317 ;;		On entry : 0/0
  6318 ;;		On exit  : 0/0
  6319 ;;		Unchanged: 0/0
  6320 ;; Data sizes:     COMRAM   BANK0   BANK1   BANK2   BANK3  BANK4h  BANK4l   BANK5   BANK6   BANK7
  6321 ;;      Params:         0       0       0       0       0       0       0       0       0       0
  6322 ;;      Locals:         0       0       0       0       0       0       0       0       0       0
  6323 ;;      Temps:          0       0       0       0       0       0       0       0       0       0
  6324 ;;      Totals:         0       0       0       0       0       0       0       0       0       0
  6325 ;;Total ram usage:        0 bytes
  6326 ;; Hardware stack levels used:    1
  6327 ;; Hardware stack levels required when called:   13
  6328 ;; This function calls:
  6329 ;;		_USBCtrlTrfRxService
  6330 ;; This function is called by:
  6331 ;;		_USBCtrlEPService
  6332 ;; This function uses a non-reentrant model
  6333 ;;
  6334                           
  6335                           	psect	text31
  6336  0039D4                     __ptext31:
  6337                           	opt callstack 0
  6338  0039D4                     _USBCtrlTrfOutHandler:
  6339                           	opt callstack 15
  6340  0039D4                     
  6341                           ;usb_device.c: 2546:     if(controlTransferState == 2)
  6342  0039D4  0E02               	movlw	2
  6343  0039D6  1827               	xorwf	_controlTransferState^0,w,c	;volatile
  6344  0039D8  A4D8               	btfss	status,2,c
  6345  0039DA  EFF1  F01C         	goto	u6211
  6346  0039DE  EFF3  F01C         	goto	u6210
  6347  0039E2                     u6211:
  6348  0039E2  EFF7  F01C         	goto	l6886
  6349  0039E6                     u6210:
  6350  0039E6                     
  6351                           ;usb_device.c: 2547:     {;usb_device.c: 2548:         USBCtrlTrfRxService();
  6352  0039E6  ECD7  F00E         	call	_USBCtrlTrfRxService	;wreg free
  6353                           
  6354                           ;usb_device.c: 2549:     }
  6355  0039EA  EF23  F01D         	goto	l431
  6356  0039EE                     l6886:
  6357                           
  6358                           ;usb_device.c: 2551:     {;usb_device.c: 2554:         controlTransferState = 0;
  6359  0039EE  0E00               	movlw	0
  6360  0039F0  6E27               	movwf	_controlTransferState^0,c	;volatile
  6361                           
  6362                           ;usb_device.c: 2561:         if(BothEP0OutUOWNsSet == 0)
  6363  0039F2  5024               	movf	_BothEP0OutUOWNsSet^0,w,c	;volatile
  6364  0039F4  A4D8               	btfss	status,2,c
  6365  0039F6  EFFF  F01C         	goto	u6221
  6366  0039FA  EF01  F01D         	goto	u6220
  6367  0039FE                     u6221:
  6368  0039FE  EF21  F01D         	goto	l6894
  6369  003A02                     u6220:
  6370  003A02                     
  6371                           ;usb_device.c: 2562:         {;usb_device.c: 2563:             pBDTEntryEP0OutNext->CNT 
      +                          = 32;
  6372  003A02  EE20 F001          	lfsr	2,1
  6373  003A06  501B               	movf	_pBDTEntryEP0OutNext^0,w,c
  6374  003A08  26D9               	addwf	fsr2l,f,c
  6375  003A0A  501C               	movf	(_pBDTEntryEP0OutNext+1)^0,w,c
  6376  003A0C  22DA               	addwfc	fsr2h,f,c
  6377  003A0E  0E20               	movlw	32
  6378  003A10  6EDF               	movwf	indf2,c
  6379                           
  6380                           ;usb_device.c: 2564:             pBDTEntryEP0OutNext->ADR = ((uint16_t)(&SetupPkt));
  6381  003A12  EE20 F002          	lfsr	2,2
  6382  003A16  501B               	movf	_pBDTEntryEP0OutNext^0,w,c
  6383  003A18  26D9               	addwf	fsr2l,f,c
  6384  003A1A  501C               	movf	(_pBDTEntryEP0OutNext+1)^0,w,c
  6385  003A1C  22DA               	addwfc	fsr2h,f,c
  6386  003A1E  0E30               	movlw	48
  6387  003A20  6EDE               	movwf	postinc2,c
  6388  003A22  0E04               	movlw	4
  6389  003A24  6EDD               	movwf	postdec2,c
  6390  003A26                     
  6391                           ;usb_device.c: 2565:             pBDTEntryEP0OutNext->STAT.Val = 0x00|(0x08 & 0x08)|0x04
      +                          ;
  6392  003A26  C01B  FFD9         	movff	_pBDTEntryEP0OutNext,fsr2l
  6393  003A2A  C01C  FFDA         	movff	_pBDTEntryEP0OutNext+1,fsr2h
  6394  003A2E  0E0C               	movlw	12
  6395  003A30  6EDF               	movwf	indf2,c
  6396  003A32                     
  6397                           ;usb_device.c: 2566:             pBDTEntryEP0OutNext->STAT.Val |= 0x80;
  6398  003A32  C01B  FFD9         	movff	_pBDTEntryEP0OutNext,fsr2l
  6399  003A36  C01C  FFDA         	movff	_pBDTEntryEP0OutNext+1,fsr2h
  6400  003A3A  0E00               	movlw	0
  6401  003A3C  8EDB               	bsf	plusw2,7,c
  6402                           
  6403                           ;usb_device.c: 2567:         }
  6404  003A3E  EF23  F01D         	goto	l431
  6405  003A42                     l6894:
  6406                           
  6407                           ;usb_device.c: 2569:         {;usb_device.c: 2570:                 BothEP0OutUOWNsSet = 
      +                          0;
  6408  003A42  0E00               	movlw	0
  6409  003A44  6E24               	movwf	_BothEP0OutUOWNsSet^0,c	;volatile
  6410  003A46                     l431:
  6411  003A46  0012               	return		;funcret
  6412  003A48                     __end_of_USBCtrlTrfOutHandler:
  6413                           	opt callstack 0
  6414                           
  6415 ;; *************** function _USBCtrlTrfRxService *****************
  6416 ;; Defined at:
  6417 ;;		line 1858 in file "usb_device.c"
  6418 ;; Parameters:    Size  Location     Type
  6419 ;;		None
  6420 ;; Auto vars:     Size  Location     Type
  6421 ;;  byteToRead      1    1[BANK0 ] unsigned char 
  6422 ;;  i               1    0[BANK0 ] unsigned char 
  6423 ;; Return value:  Size  Location     Type
  6424 ;;                  1    wreg      void 
  6425 ;; Registers used:
  6426 ;;		wreg, fsr1l, fsr1h, fsr2l, fsr2h, status,2, status,0, cstack
  6427 ;; Tracked objects:
  6428 ;;		On entry : 0/0
  6429 ;;		On exit  : 0/0
  6430 ;;		Unchanged: 0/0
  6431 ;; Data sizes:     COMRAM   BANK0   BANK1   BANK2   BANK3  BANK4h  BANK4l   BANK5   BANK6   BANK7
  6432 ;;      Params:         0       0       0       0       0       0       0       0       0       0
  6433 ;;      Locals:         0       2       0       0       0       0       0       0       0       0
  6434 ;;      Temps:          0       0       0       0       0       0       0       0       0       0
  6435 ;;      Totals:         0       2       0       0       0       0       0       0       0       0
  6436 ;;Total ram usage:        2 bytes
  6437 ;; Hardware stack levels used:    1
  6438 ;; Hardware stack levels required when called:   12
  6439 ;; This function calls:
  6440 ;;		_USBCtrlEPAllowStatusStage
  6441 ;; This function is called by:
  6442 ;;		_USBCtrlTrfOutHandler
  6443 ;; This function uses a non-reentrant model
  6444 ;;
  6445                           
  6446                           	psect	text32
  6447  001DAE                     __ptext32:
  6448                           	opt callstack 0
  6449  001DAE                     _USBCtrlTrfRxService:
  6450                           	opt callstack 15
  6451  001DAE                     
  6452                           ;usb_device.c: 1860:     uint8_t byteToRead;;usb_device.c: 1861:     uint8_t i;;usb_devi
      +                          ce.c: 1865:     byteToRead = pBDTEntryEP0OutCurrent->CNT;
  6453  001DAE  EE20 F001          	lfsr	2,1
  6454  001DB2  501D               	movf	_pBDTEntryEP0OutCurrent^0,w,c
  6455  001DB4  26D9               	addwf	fsr2l,f,c
  6456  001DB6  501E               	movf	(_pBDTEntryEP0OutCurrent+1)^0,w,c
  6457  001DB8  22DA               	addwfc	fsr2h,f,c
  6458  001DBA  50DF               	movf	indf2,w,c
  6459  001DBC  0100               	movlb	0	; () banked
  6460  001DBE  6FDF               	movwf	USBCtrlTrfRxService@byteToRead& (0+255),b
  6461  001DC0                     
  6462                           ; BSR set to: 0
  6463                           ;usb_device.c: 1871:     if(byteToRead > outPipes[0].wCount.Val)
  6464  001DC0  51DF               	movf	USBCtrlTrfRxService@byteToRead& (0+255),w,b
  6465  001DC2  5C05               	subwf	(_outPipes+4)^0,w,c	;volatile
  6466  001DC4  0E00               	movlw	0
  6467  001DC6  5806               	subwfb	(_outPipes+5)^0,w,c	;volatile
  6468  001DC8  B0D8               	btfsc	status,0,c
  6469  001DCA  EFE9  F00E         	goto	u6141
  6470  001DCE  EFEB  F00E         	goto	u6140
  6471  001DD2                     u6141:
  6472  001DD2  EFED  F00E         	goto	l6762
  6473  001DD6                     u6140:
  6474  001DD6                     
  6475                           ; BSR set to: 0
  6476                           ;usb_device.c: 1872:     {;usb_device.c: 1873:         byteToRead = outPipes[0].wCount.V
      +                          al;
  6477  001DD6  C005  F0DF         	movff	_outPipes+4,USBCtrlTrfRxService@byteToRead	;volatile
  6478  001DDA                     l6762:
  6479                           
  6480                           ; BSR set to: 0
  6481                           ;usb_device.c: 1876:     outPipes[0].wCount.Val -= byteToRead;
  6482  001DDA  51DF               	movf	USBCtrlTrfRxService@byteToRead& (0+255),w,b
  6483  001DDC  5E05               	subwf	(_outPipes+4)^0,f,c	;volatile
  6484  001DDE  0E00               	movlw	0
  6485  001DE0  5A06               	subwfb	(_outPipes+5)^0,f,c	;volatile
  6486  001DE2                     
  6487                           ; BSR set to: 0
  6488                           ;usb_device.c: 1880:     for(i=0;i<byteToRead;i++)
  6489  001DE2  0E00               	movlw	0
  6490  001DE4  6FDE               	movwf	USBCtrlTrfRxService@i& (0+255),b
  6491  001DE6  EF04  F00F         	goto	l6772
  6492  001DEA                     l6766:
  6493                           
  6494                           ; BSR set to: 0
  6495                           ;usb_device.c: 1881:     {;usb_device.c: 1882:         *outPipes[0].pDst.bRam++ = CtrlTr
      +                          fData[i];
  6496  001DEA  0E50               	movlw	80
  6497  001DEC  25DE               	addwf	USBCtrlTrfRxService@i& (0+255),w,b
  6498  001DEE  6ED9               	movwf	fsr2l,c
  6499  001DF0  6ADA               	clrf	fsr2h,c
  6500  001DF2  0E04               	movlw	4
  6501  001DF4  22DA               	addwfc	fsr2h,f,c
  6502  001DF6  C001  FFE1         	movff	_outPipes,fsr1l	;volatile
  6503  001DFA  C002  FFE2         	movff	_outPipes+1,fsr1h	;volatile
  6504  001DFE  CFDF FFE7          	movff	indf2,indf1
  6505  001E02                     
  6506                           ; BSR set to: 0
  6507  001E02  4A01               	infsnz	_outPipes^0,f,c	;volatile
  6508  001E04  2A02               	incf	(_outPipes+1)^0,f,c	;volatile
  6509  001E06                     
  6510                           ; BSR set to: 0
  6511                           ;usb_device.c: 1883:     }
  6512  001E06  2BDE               	incf	USBCtrlTrfRxService@i& (0+255),f,b
  6513  001E08                     l6772:
  6514                           
  6515                           ; BSR set to: 0
  6516  001E08  51DF               	movf	USBCtrlTrfRxService@byteToRead& (0+255),w,b
  6517  001E0A  5DDE               	subwf	USBCtrlTrfRxService@i& (0+255),w,b
  6518  001E0C  A0D8               	btfss	status,0,c
  6519  001E0E  EF0B  F00F         	goto	u6151
  6520  001E12  EF0D  F00F         	goto	u6150
  6521  001E16                     u6151:
  6522  001E16  EFF5  F00E         	goto	l6766
  6523  001E1A                     u6150:
  6524  001E1A                     
  6525                           ; BSR set to: 0
  6526                           ;usb_device.c: 1887:     if(outPipes[0].wCount.Val > 0)
  6527  001E1A  5005               	movf	(_outPipes+4)^0,w,c	;volatile
  6528  001E1C  1006               	iorwf	(_outPipes+5)^0,w,c	;volatile
  6529  001E1E  B4D8               	btfsc	status,2,c
  6530  001E20  EF14  F00F         	goto	u6161
  6531  001E24  EF16  F00F         	goto	u6160
  6532  001E28                     u6161:
  6533  001E28  EF4F  F00F         	goto	l6788
  6534  001E2C                     u6160:
  6535  001E2C                     
  6536                           ; BSR set to: 0
  6537                           ;usb_device.c: 1888:     {;usb_device.c: 1889:         pBDTEntryEP0OutNext->CNT = 32;
  6538  001E2C  EE20 F001          	lfsr	2,1
  6539  001E30  501B               	movf	_pBDTEntryEP0OutNext^0,w,c
  6540  001E32  26D9               	addwf	fsr2l,f,c
  6541  001E34  501C               	movf	(_pBDTEntryEP0OutNext+1)^0,w,c
  6542  001E36  22DA               	addwfc	fsr2h,f,c
  6543  001E38  0E20               	movlw	32
  6544  001E3A  6EDF               	movwf	indf2,c
  6545                           
  6546                           ;usb_device.c: 1890:         pBDTEntryEP0OutNext->ADR = ((uint16_t)(&CtrlTrfData));
  6547  001E3C  EE20 F002          	lfsr	2,2
  6548  001E40  501B               	movf	_pBDTEntryEP0OutNext^0,w,c
  6549  001E42  26D9               	addwf	fsr2l,f,c
  6550  001E44  501C               	movf	(_pBDTEntryEP0OutNext+1)^0,w,c
  6551  001E46  22DA               	addwfc	fsr2h,f,c
  6552  001E48  0E50               	movlw	80
  6553  001E4A  6EDE               	movwf	postinc2,c
  6554  001E4C  0E04               	movlw	4
  6555  001E4E  6EDD               	movwf	postdec2,c
  6556  001E50                     
  6557                           ; BSR set to: 0
  6558                           ;usb_device.c: 1891:         if(pBDTEntryEP0OutCurrent->STAT.DTS == 0)
  6559  001E50  C01D  FFD9         	movff	_pBDTEntryEP0OutCurrent,fsr2l
  6560  001E54  C01E  FFDA         	movff	_pBDTEntryEP0OutCurrent+1,fsr2h
  6561  001E58  BCDF               	btfsc	indf2,6,c
  6562  001E5A  EF31  F00F         	goto	u6171
  6563  001E5E  EF33  F00F         	goto	u6170
  6564  001E62                     u6171:
  6565  001E62  EF41  F00F         	goto	l6784
  6566  001E66                     u6170:
  6567  001E66                     
  6568                           ; BSR set to: 0
  6569                           ;usb_device.c: 1892:         {;usb_device.c: 1893:             pBDTEntryEP0OutNext->STAT
      +                          .Val = 0x40|(0x08 & 0x08);
  6570  001E66  C01B  FFD9         	movff	_pBDTEntryEP0OutNext,fsr2l
  6571  001E6A  C01C  FFDA         	movff	_pBDTEntryEP0OutNext+1,fsr2h
  6572  001E6E  0E48               	movlw	72
  6573  001E70  6EDF               	movwf	indf2,c
  6574  001E72                     
  6575                           ; BSR set to: 0
  6576                           ;usb_device.c: 1894:             pBDTEntryEP0OutNext->STAT.Val |= 0x80;
  6577  001E72  C01B  FFD9         	movff	_pBDTEntryEP0OutNext,fsr2l
  6578  001E76  C01C  FFDA         	movff	_pBDTEntryEP0OutNext+1,fsr2h
  6579  001E7A  0E00               	movlw	0
  6580  001E7C  8EDB               	bsf	plusw2,7,c
  6581                           
  6582                           ;usb_device.c: 1895:         }
  6583  001E7E  EF78  F00F         	goto	l364
  6584  001E82                     l6784:
  6585                           
  6586                           ; BSR set to: 0
  6587                           ;usb_device.c: 1897:         {;usb_device.c: 1898:             pBDTEntryEP0OutNext->STAT
      +                          .Val = 0x00|(0x08 & 0x08);
  6588  001E82  C01B  FFD9         	movff	_pBDTEntryEP0OutNext,fsr2l
  6589  001E86  C01C  FFDA         	movff	_pBDTEntryEP0OutNext+1,fsr2h
  6590  001E8A  0E08               	movlw	8
  6591  001E8C  6EDF               	movwf	indf2,c
  6592  001E8E                     
  6593                           ; BSR set to: 0
  6594                           ;usb_device.c: 1899:             pBDTEntryEP0OutNext->STAT.Val |= 0x80;
  6595  001E8E  C01B  FFD9         	movff	_pBDTEntryEP0OutNext,fsr2l
  6596  001E92  C01C  FFDA         	movff	_pBDTEntryEP0OutNext+1,fsr2h
  6597  001E96  0E00               	movlw	0
  6598  001E98  8EDB               	bsf	plusw2,7,c
  6599  001E9A  EF78  F00F         	goto	l364
  6600  001E9E                     l6788:
  6601                           
  6602                           ; BSR set to: 0
  6603                           ;usb_device.c: 1903:     {;usb_device.c: 1907:         pBDTEntryEP0OutNext->CNT = 32;
  6604  001E9E  EE20 F001          	lfsr	2,1
  6605  001EA2  501B               	movf	_pBDTEntryEP0OutNext^0,w,c
  6606  001EA4  26D9               	addwf	fsr2l,f,c
  6607  001EA6  501C               	movf	(_pBDTEntryEP0OutNext+1)^0,w,c
  6608  001EA8  22DA               	addwfc	fsr2h,f,c
  6609  001EAA  0E20               	movlw	32
  6610  001EAC  6EDF               	movwf	indf2,c
  6611                           
  6612                           ;usb_device.c: 1908:         pBDTEntryEP0OutNext->ADR = ((uint16_t)(&SetupPkt));
  6613  001EAE  EE20 F002          	lfsr	2,2
  6614  001EB2  501B               	movf	_pBDTEntryEP0OutNext^0,w,c
  6615  001EB4  26D9               	addwf	fsr2l,f,c
  6616  001EB6  501C               	movf	(_pBDTEntryEP0OutNext+1)^0,w,c
  6617  001EB8  22DA               	addwfc	fsr2h,f,c
  6618  001EBA  0E30               	movlw	48
  6619  001EBC  6EDE               	movwf	postinc2,c
  6620  001EBE  0E04               	movlw	4
  6621  001EC0  6EDD               	movwf	postdec2,c
  6622  001EC2                     
  6623                           ; BSR set to: 0
  6624                           ;usb_device.c: 1912:         pBDTEntryEP0OutNext->STAT.Val = 0x04;
  6625  001EC2  C01B  FFD9         	movff	_pBDTEntryEP0OutNext,fsr2l
  6626  001EC6  C01C  FFDA         	movff	_pBDTEntryEP0OutNext+1,fsr2h
  6627  001ECA  0E04               	movlw	4
  6628  001ECC  6EDF               	movwf	indf2,c
  6629  001ECE                     
  6630                           ; BSR set to: 0
  6631                           ;usb_device.c: 1913:         pBDTEntryEP0OutNext->STAT.Val |= 0x80;
  6632  001ECE  C01B  FFD9         	movff	_pBDTEntryEP0OutNext,fsr2l
  6633  001ED2  C01C  FFDA         	movff	_pBDTEntryEP0OutNext+1,fsr2h
  6634  001ED6  0E00               	movlw	0
  6635  001ED8  8EDB               	bsf	plusw2,7,c
  6636  001EDA                     
  6637                           ; BSR set to: 0
  6638  001EDA  9E04               	bcf	(_outPipes+3)^0,7,c	;volatile
  6639  001EDC                     
  6640                           ; BSR set to: 0
  6641                           ;usb_device.c: 1947:         if(USBDeferStatusStagePacket == 0)
  6642  001EDC  5023               	movf	_USBDeferStatusStagePacket^0,w,c	;volatile
  6643  001EDE  A4D8               	btfss	status,2,c
  6644  001EE0  EF74  F00F         	goto	u6181
  6645  001EE4  EF76  F00F         	goto	u6180
  6646  001EE8                     u6181:
  6647  001EE8  EF78  F00F         	goto	l364
  6648  001EEC                     u6180:
  6649  001EEC                     
  6650                           ; BSR set to: 0
  6651                           ;usb_device.c: 1948:         {;usb_device.c: 1949:             USBCtrlEPAllowStatusStage
      +                          ();
  6652  001EEC  ECDD  F017         	call	_USBCtrlEPAllowStatusStage	;wreg free
  6653  001EF0                     l364:
  6654  001EF0  0012               	return		;funcret
  6655  001EF2                     __end_of_USBCtrlTrfRxService:
  6656                           	opt callstack 0
  6657                           
  6658 ;; *************** function _USBCtrlEPAllowStatusStage *****************
  6659 ;; Defined at:
  6660 ;;		line 1422 in file "usb_device.c"
  6661 ;; Parameters:    Size  Location     Type
  6662 ;;		None
  6663 ;; Auto vars:     Size  Location     Type
  6664 ;;		None
  6665 ;; Return value:  Size  Location     Type
  6666 ;;                  1    wreg      void 
  6667 ;; Registers used:
  6668 ;;		wreg, fsr2l, fsr2h, status,2, status,0
  6669 ;; Tracked objects:
  6670 ;;		On entry : 0/0
  6671 ;;		On exit  : 0/0
  6672 ;;		Unchanged: 0/0
  6673 ;; Data sizes:     COMRAM   BANK0   BANK1   BANK2   BANK3  BANK4h  BANK4l   BANK5   BANK6   BANK7
  6674 ;;      Params:         0       0       0       0       0       0       0       0       0       0
  6675 ;;      Locals:         0       0       0       0       0       0       0       0       0       0
  6676 ;;      Temps:          0       0       0       0       0       0       0       0       0       0
  6677 ;;      Totals:         0       0       0       0       0       0       0       0       0       0
  6678 ;;Total ram usage:        0 bytes
  6679 ;; Hardware stack levels used:    1
  6680 ;; Hardware stack levels required when called:   11
  6681 ;; This function calls:
  6682 ;;		Nothing
  6683 ;; This function is called by:
  6684 ;;		_USBDeviceTasks
  6685 ;;		_USBCtrlEPServiceComplete
  6686 ;;		_USBCtrlTrfRxService
  6687 ;; This function uses a non-reentrant model
  6688 ;;
  6689                           
  6690                           	psect	text33
  6691  002FBA                     __ptext33:
  6692                           	opt callstack 0
  6693  002FBA                     _USBCtrlEPAllowStatusStage:
  6694                           	opt callstack 15
  6695  002FBA                     
  6696                           ;usb_device.c: 1429:     if(USBStatusStageEnabledFlag1 == 0)
  6697  002FBA  5022               	movf	_USBStatusStageEnabledFlag1^0,w,c	;volatile
  6698  002FBC  A4D8               	btfss	status,2,c
  6699  002FBE  EFE3  F017         	goto	u5701
  6700  002FC2  EFE5  F017         	goto	u5700
  6701  002FC6                     u5701:
  6702  002FC6  EF54  F018         	goto	l312
  6703  002FCA                     u5700:
  6704  002FCA                     
  6705                           ;usb_device.c: 1430:     {;usb_device.c: 1431:         USBStatusStageEnabledFlag1 = 1;
  6706  002FCA  0E01               	movlw	1
  6707  002FCC  6E22               	movwf	_USBStatusStageEnabledFlag1^0,c	;volatile
  6708                           
  6709                           ;usb_device.c: 1432:         if(USBStatusStageEnabledFlag2 == 0)
  6710  002FCE  5021               	movf	_USBStatusStageEnabledFlag2^0,w,c	;volatile
  6711  002FD0  A4D8               	btfss	status,2,c
  6712  002FD2  EFED  F017         	goto	u5711
  6713  002FD6  EFEF  F017         	goto	u5710
  6714  002FDA                     u5711:
  6715  002FDA  EF54  F018         	goto	l312
  6716  002FDE                     u5710:
  6717  002FDE                     
  6718                           ;usb_device.c: 1433:         {;usb_device.c: 1434:             USBStatusStageEnabledFlag
      +                          2 = 1;
  6719  002FDE  0E01               	movlw	1
  6720  002FE0  6E21               	movwf	_USBStatusStageEnabledFlag2^0,c	;volatile
  6721  002FE2                     
  6722                           ;usb_device.c: 1438:             if(controlTransferState == 2)
  6723  002FE2  0E02               	movlw	2
  6724  002FE4  1827               	xorwf	_controlTransferState^0,w,c	;volatile
  6725  002FE6  A4D8               	btfss	status,2,c
  6726  002FE8  EFF8  F017         	goto	u5721
  6727  002FEC  EFFA  F017         	goto	u5720
  6728  002FF0                     u5721:
  6729  002FF0  EF10  F018         	goto	l6470
  6730  002FF4                     u5720:
  6731  002FF4                     
  6732                           ;usb_device.c: 1439:             {;usb_device.c: 1440:                 pBDTEntryIn[0]->C
      +                          NT = 0;
  6733  002FF4  EE20 F001          	lfsr	2,1
  6734  002FF8  500F               	movf	_pBDTEntryIn^0,w,c
  6735  002FFA  26D9               	addwf	fsr2l,f,c
  6736  002FFC  5010               	movf	(_pBDTEntryIn+1)^0,w,c
  6737  002FFE  22DA               	addwfc	fsr2h,f,c
  6738  003000  0E00               	movlw	0
  6739  003002  6EDF               	movwf	indf2,c
  6740  003004                     
  6741                           ;usb_device.c: 1441:                 pBDTEntryIn[0]->STAT.Val = 0x40|(0x08 & 0x08);
  6742  003004  C00F  FFD9         	movff	_pBDTEntryIn,fsr2l
  6743  003008  C010  FFDA         	movff	_pBDTEntryIn+1,fsr2h
  6744  00300C  0E48               	movlw	72
  6745  00300E  6EDF               	movwf	indf2,c
  6746  003010                     
  6747                           ;usb_device.c: 1442:                 pBDTEntryIn[0]->STAT.Val |= 0x80;
  6748  003010  C00F  FFD9         	movff	_pBDTEntryIn,fsr2l
  6749  003014  C010  FFDA         	movff	_pBDTEntryIn+1,fsr2h
  6750  003018  0E00               	movlw	0
  6751  00301A  8EDB               	bsf	plusw2,7,c
  6752                           
  6753                           ;usb_device.c: 1443:             }
  6754  00301C  EF54  F018         	goto	l312
  6755  003020                     l6470:
  6756  003020  0427               	decf	_controlTransferState^0,w,c	;volatile
  6757  003022  A4D8               	btfss	status,2,c
  6758  003024  EF16  F018         	goto	u5731
  6759  003028  EF18  F018         	goto	u5730
  6760  00302C                     u5731:
  6761  00302C  EF54  F018         	goto	l308
  6762  003030                     u5730:
  6763  003030                     
  6764                           ;usb_device.c: 1445:             {;usb_device.c: 1446:                 BothEP0OutUOWNsSe
      +                          t = 0;
  6765  003030  0E00               	movlw	0
  6766  003032  6E24               	movwf	_BothEP0OutUOWNsSet^0,c	;volatile
  6767  003034                     
  6768                           ;usb_device.c: 1451:                     pBDTEntryEP0OutCurrent->CNT = 32;
  6769  003034  EE20 F001          	lfsr	2,1
  6770  003038  501D               	movf	_pBDTEntryEP0OutCurrent^0,w,c
  6771  00303A  26D9               	addwf	fsr2l,f,c
  6772  00303C  501E               	movf	(_pBDTEntryEP0OutCurrent+1)^0,w,c
  6773  00303E  22DA               	addwfc	fsr2h,f,c
  6774  003040  0E20               	movlw	32
  6775  003042  6EDF               	movwf	indf2,c
  6776  003044                     
  6777                           ;usb_device.c: 1452:                     pBDTEntryEP0OutCurrent->ADR = ((uint16_t)(&Setu
      +                          pPkt));
  6778  003044  EE20 F002          	lfsr	2,2
  6779  003048  501D               	movf	_pBDTEntryEP0OutCurrent^0,w,c
  6780  00304A  26D9               	addwf	fsr2l,f,c
  6781  00304C  501E               	movf	(_pBDTEntryEP0OutCurrent+1)^0,w,c
  6782  00304E  22DA               	addwfc	fsr2h,f,c
  6783  003050  0E30               	movlw	48
  6784  003052  6EDE               	movwf	postinc2,c
  6785  003054  0E04               	movlw	4
  6786  003056  6EDD               	movwf	postdec2,c
  6787  003058                     
  6788                           ;usb_device.c: 1453:                     pBDTEntryEP0OutCurrent->STAT.Val = 0x04;
  6789  003058  C01D  FFD9         	movff	_pBDTEntryEP0OutCurrent,fsr2l
  6790  00305C  C01E  FFDA         	movff	_pBDTEntryEP0OutCurrent+1,fsr2h
  6791  003060  0E04               	movlw	4
  6792  003062  6EDF               	movwf	indf2,c
  6793  003064                     
  6794                           ;usb_device.c: 1454:                     pBDTEntryEP0OutCurrent->STAT.Val |= 0x80;
  6795  003064  C01D  FFD9         	movff	_pBDTEntryEP0OutCurrent,fsr2l
  6796  003068  C01E  FFDA         	movff	_pBDTEntryEP0OutCurrent+1,fsr2h
  6797  00306C  0E00               	movlw	0
  6798  00306E  8EDB               	bsf	plusw2,7,c
  6799  003070                     
  6800                           ;usb_device.c: 1455:                     BothEP0OutUOWNsSet = 1;
  6801  003070  0E01               	movlw	1
  6802  003072  6E24               	movwf	_BothEP0OutUOWNsSet^0,c	;volatile
  6803  003074                     
  6804                           ;usb_device.c: 1459:                 pBDTEntryEP0OutNext->CNT = 32;
  6805  003074  EE20 F001          	lfsr	2,1
  6806  003078  501B               	movf	_pBDTEntryEP0OutNext^0,w,c
  6807  00307A  26D9               	addwf	fsr2l,f,c
  6808  00307C  501C               	movf	(_pBDTEntryEP0OutNext+1)^0,w,c
  6809  00307E  22DA               	addwfc	fsr2h,f,c
  6810  003080  0E20               	movlw	32
  6811  003082  6EDF               	movwf	indf2,c
  6812  003084                     
  6813                           ;usb_device.c: 1460:                 pBDTEntryEP0OutNext->ADR = ((uint16_t)(&SetupPkt));
  6814  003084  EE20 F002          	lfsr	2,2
  6815  003088  501B               	movf	_pBDTEntryEP0OutNext^0,w,c
  6816  00308A  26D9               	addwf	fsr2l,f,c
  6817  00308C  501C               	movf	(_pBDTEntryEP0OutNext+1)^0,w,c
  6818  00308E  22DA               	addwfc	fsr2h,f,c
  6819  003090  0E30               	movlw	48
  6820  003092  6EDE               	movwf	postinc2,c
  6821  003094  0E04               	movlw	4
  6822  003096  6EDD               	movwf	postdec2,c
  6823  003098                     
  6824                           ;usb_device.c: 1461:                 pBDTEntryEP0OutNext->STAT.Val = 0x80;
  6825  003098  C01B  FFD9         	movff	_pBDTEntryEP0OutNext,fsr2l
  6826  00309C  C01C  FFDA         	movff	_pBDTEntryEP0OutNext+1,fsr2h
  6827  0030A0  0E80               	movlw	128
  6828  0030A2  6EDF               	movwf	indf2,c
  6829  0030A4  EF54  F018         	goto	l312
  6830  0030A8                     l308:
  6831  0030A8                     l312:
  6832  0030A8  0012               	return		;funcret
  6833  0030AA                     __end_of_USBCtrlEPAllowStatusStage:
  6834                           	opt callstack 0
  6835                           
  6836 ;; *************** function _USBCtrlTrfInHandler *****************
  6837 ;; Defined at:
  6838 ;;		line 2598 in file "usb_device.c"
  6839 ;; Parameters:    Size  Location     Type
  6840 ;;		None
  6841 ;; Auto vars:     Size  Location     Type
  6842 ;;  lastDTS         1    1[BANK0 ] unsigned char 
  6843 ;; Return value:  Size  Location     Type
  6844 ;;                  1    wreg      void 
  6845 ;; Registers used:
  6846 ;;		wreg, fsr1l, fsr1h, fsr2l, fsr2h, status,2, status,0, tblptrl, tblptrh, tblptru, cstack
  6847 ;; Tracked objects:
  6848 ;;		On entry : 0/0
  6849 ;;		On exit  : 0/0
  6850 ;;		Unchanged: 0/0
  6851 ;; Data sizes:     COMRAM   BANK0   BANK1   BANK2   BANK3  BANK4h  BANK4l   BANK5   BANK6   BANK7
  6852 ;;      Params:         0       0       0       0       0       0       0       0       0       0
  6853 ;;      Locals:         0       1       0       0       0       0       0       0       0       0
  6854 ;;      Temps:          0       0       0       0       0       0       0       0       0       0
  6855 ;;      Totals:         0       1       0       0       0       0       0       0       0       0
  6856 ;;Total ram usage:        1 bytes
  6857 ;; Hardware stack levels used:    1
  6858 ;; Hardware stack levels required when called:   12
  6859 ;; This function calls:
  6860 ;;		_USBCtrlTrfTxService
  6861 ;; This function is called by:
  6862 ;;		_USBCtrlEPService
  6863 ;; This function uses a non-reentrant model
  6864 ;;
  6865                           
  6866                           	psect	text34
  6867  002AA6                     __ptext34:
  6868                           	opt callstack 0
  6869  002AA6                     _USBCtrlTrfInHandler:
  6870                           	opt callstack 16
  6871  002AA6                     
  6872                           ;usb_device.c: 2600:     uint8_t lastDTS;;usb_device.c: 2602:     lastDTS = pBDTEntryIn[
      +                          0]->STAT.DTS;
  6873  002AA6  C00F  FFD9         	movff	_pBDTEntryIn,fsr2l
  6874  002AAA  C010  FFDA         	movff	_pBDTEntryIn+1,fsr2h
  6875  002AAE  0E00               	movlw	0
  6876  002AB0  BCDF               	btfsc	indf2,6,c
  6877  002AB2  0E01               	movlw	1
  6878  002AB4  0100               	movlb	0	; () banked
  6879  002AB6  6FDF               	movwf	USBCtrlTrfInHandler@lastDTS& (0+255),b
  6880  002AB8                     
  6881                           ; BSR set to: 0
  6882                           ;usb_device.c: 2605:     pBDTEntryIn[0] = (volatile BDT_ENTRY*)(((uint16_t)pBDTEntryIn[0
      +                          ]) ^ 0x0004);
  6883  002AB8  0E04               	movlw	4
  6884  002ABA  180F               	xorwf	_pBDTEntryIn^0,w,c
  6885  002ABC  6E0F               	movwf	_pBDTEntryIn^0,c
  6886  002ABE  5010               	movf	(_pBDTEntryIn+1)^0,w,c
  6887  002AC0  6E10               	movwf	(_pBDTEntryIn+1)^0,c
  6888  002AC2                     
  6889                           ; BSR set to: 0
  6890                           ;usb_device.c: 2610:     if(USBDeviceState == ADR_PENDING_STATE)
  6891  002AC2  0E08               	movlw	8
  6892  002AC4  1829               	xorwf	_USBDeviceState^0,w,c	;volatile
  6893  002AC6  A4D8               	btfss	status,2,c
  6894  002AC8  EF68  F015         	goto	u6231
  6895  002ACC  EF6A  F015         	goto	u6230
  6896  002AD0                     u6231:
  6897  002AD0  EF7C  F015         	goto	l6910
  6898  002AD4                     u6230:
  6899  002AD4                     
  6900                           ; BSR set to: 0
  6901                           ;usb_device.c: 2611:     {;usb_device.c: 2612:         UADDR = (SetupPkt.bDevADR & 0x7F)
      +                          ;
  6902  002AD4  0104               	movlb	4	; () banked
  6903  002AD6  5132               	movf	50,w,b	;volatile
  6904  002AD8  0B7F               	andlw	127
  6905  002ADA  6E6E               	movwf	110,c	;volatile
  6906  002ADC                     
  6907                           ; BSR set to: 4
  6908                           ;usb_device.c: 2613:         if(UADDR != 0u)
  6909  002ADC  506E               	movf	110,w,c	;volatile
  6910  002ADE  B4D8               	btfsc	status,2,c
  6911  002AE0  EF74  F015         	goto	u6241
  6912  002AE4  EF76  F015         	goto	u6240
  6913  002AE8                     u6241:
  6914  002AE8  EF7A  F015         	goto	l6908
  6915  002AEC                     u6240:
  6916  002AEC                     
  6917                           ; BSR set to: 4
  6918                           ;usb_device.c: 2614:         {;usb_device.c: 2615:             USBDeviceState=ADDRESS_ST
      +                          ATE;
  6919  002AEC  0E10               	movlw	16
  6920  002AEE  6E29               	movwf	_USBDeviceState^0,c	;volatile
  6921                           
  6922                           ;usb_device.c: 2616:         }
  6923  002AF0  EF7C  F015         	goto	l6910
  6924  002AF4                     l6908:
  6925                           
  6926                           ; BSR set to: 4
  6927                           ;usb_device.c: 2618:         {;usb_device.c: 2619:             USBDeviceState=DEFAULT_ST
      +                          ATE;
  6928  002AF4  0E04               	movlw	4
  6929  002AF6  6E29               	movwf	_USBDeviceState^0,c	;volatile
  6930  002AF8                     l6910:
  6931                           
  6932                           ;usb_device.c: 2624:     if(controlTransferState == 1)
  6933  002AF8  0427               	decf	_controlTransferState^0,w,c	;volatile
  6934  002AFA  A4D8               	btfss	status,2,c
  6935  002AFC  EF82  F015         	goto	u6251
  6936  002B00  EF84  F015         	goto	u6250
  6937  002B04                     u6251:
  6938  002B04  EFCC  F015         	goto	l437
  6939  002B08                     u6250:
  6940  002B08                     
  6941                           ;usb_device.c: 2625:     {;usb_device.c: 2626:         pBDTEntryIn[0]->ADR = ((uint16_t)
      +                          (CtrlTrfData));
  6942  002B08  EE20 F002          	lfsr	2,2
  6943  002B0C  500F               	movf	_pBDTEntryIn^0,w,c
  6944  002B0E  26D9               	addwf	fsr2l,f,c
  6945  002B10  5010               	movf	(_pBDTEntryIn+1)^0,w,c
  6946  002B12  22DA               	addwfc	fsr2h,f,c
  6947  002B14  0E50               	movlw	80
  6948  002B16  6EDE               	movwf	postinc2,c
  6949  002B18  0E04               	movlw	4
  6950  002B1A  6EDD               	movwf	postdec2,c
  6951  002B1C                     
  6952                           ;usb_device.c: 2627:         USBCtrlTrfTxService();
  6953  002B1C  ECBC  F013         	call	_USBCtrlTrfTxService	;wreg free
  6954  002B20                     
  6955                           ;usb_device.c: 2633:         if(shortPacketStatus == 2)
  6956  002B20  0E02               	movlw	2
  6957  002B22  1828               	xorwf	_shortPacketStatus^0,w,c	;volatile
  6958  002B24  A4D8               	btfss	status,2,c
  6959  002B26  EF97  F015         	goto	u6261
  6960  002B2A  EF99  F015         	goto	u6260
  6961  002B2E                     u6261:
  6962  002B2E  EFA7  F015         	goto	l6922
  6963  002B32                     u6260:
  6964  002B32                     
  6965                           ;usb_device.c: 2634:         {;usb_device.c: 2637:             pBDTEntryIn[0]->STAT.Val 
      +                          = 0x04;
  6966  002B32  C00F  FFD9         	movff	_pBDTEntryIn,fsr2l
  6967  002B36  C010  FFDA         	movff	_pBDTEntryIn+1,fsr2h
  6968  002B3A  0E04               	movlw	4
  6969  002B3C  6EDF               	movwf	indf2,c
  6970  002B3E                     
  6971                           ;usb_device.c: 2638:             pBDTEntryIn[0]->STAT.Val |= 0x80;
  6972  002B3E  C00F  FFD9         	movff	_pBDTEntryIn,fsr2l
  6973  002B42  C010  FFDA         	movff	_pBDTEntryIn+1,fsr2h
  6974  002B46  0E00               	movlw	0
  6975  002B48  8EDB               	bsf	plusw2,7,c
  6976                           
  6977                           ;usb_device.c: 2639:         }
  6978  002B4A  EFD6  F015         	goto	l445
  6979  002B4E                     l6922:
  6980                           
  6981                           ;usb_device.c: 2641:         {;usb_device.c: 2642:             if(lastDTS == 0)
  6982  002B4E  0100               	movlb	0	; () banked
  6983  002B50  51DF               	movf	USBCtrlTrfInHandler@lastDTS& (0+255),w,b
  6984  002B52  A4D8               	btfss	status,2,c
  6985  002B54  EFAE  F015         	goto	u6271
  6986  002B58  EFB0  F015         	goto	u6270
  6987  002B5C                     u6271:
  6988  002B5C  EFBE  F015         	goto	l6928
  6989  002B60                     u6270:
  6990  002B60                     
  6991                           ; BSR set to: 0
  6992                           ;usb_device.c: 2643:             {;usb_device.c: 2644:                 pBDTEntryIn[0]->S
      +                          TAT.Val = 0x40|(0x08 & 0x08);
  6993  002B60  C00F  FFD9         	movff	_pBDTEntryIn,fsr2l
  6994  002B64  C010  FFDA         	movff	_pBDTEntryIn+1,fsr2h
  6995  002B68  0E48               	movlw	72
  6996  002B6A  6EDF               	movwf	indf2,c
  6997  002B6C                     
  6998                           ; BSR set to: 0
  6999                           ;usb_device.c: 2645:                 pBDTEntryIn[0]->STAT.Val |= 0x80;
  7000  002B6C  C00F  FFD9         	movff	_pBDTEntryIn,fsr2l
  7001  002B70  C010  FFDA         	movff	_pBDTEntryIn+1,fsr2h
  7002  002B74  0E00               	movlw	0
  7003  002B76  8EDB               	bsf	plusw2,7,c
  7004                           
  7005                           ;usb_device.c: 2646:             }
  7006  002B78  EFD6  F015         	goto	l445
  7007  002B7C                     l6928:
  7008                           
  7009                           ; BSR set to: 0
  7010                           ;usb_device.c: 2648:             {;usb_device.c: 2649:                 pBDTEntryIn[0]->S
      +                          TAT.Val = 0x00|(0x08 & 0x08);
  7011  002B7C  C00F  FFD9         	movff	_pBDTEntryIn,fsr2l
  7012  002B80  C010  FFDA         	movff	_pBDTEntryIn+1,fsr2h
  7013  002B84  0E08               	movlw	8
  7014  002B86  6EDF               	movwf	indf2,c
  7015  002B88                     
  7016                           ; BSR set to: 0
  7017                           ;usb_device.c: 2650:                 pBDTEntryIn[0]->STAT.Val |= 0x80;
  7018  002B88  C00F  FFD9         	movff	_pBDTEntryIn,fsr2l
  7019  002B8C  C010  FFDA         	movff	_pBDTEntryIn+1,fsr2h
  7020  002B90  0E00               	movlw	0
  7021  002B92  8EDB               	bsf	plusw2,7,c
  7022  002B94  EFD6  F015         	goto	l445
  7023  002B98                     l437:
  7024                           
  7025                           ;usb_device.c: 2655:  {;usb_device.c: 2659:         if(outPipes[0].info.bits.busy == 1)
  7026  002B98  AE04               	btfss	(_outPipes+3)^0,7,c	;volatile
  7027  002B9A  EFD1  F015         	goto	u6281
  7028  002B9E  EFD3  F015         	goto	u6280
  7029  002BA2                     u6281:
  7030  002BA2  EFD4  F015         	goto	l6934
  7031  002BA6                     u6280:
  7032  002BA6                     
  7033                           ;usb_device.c: 2665:             outPipes[0].info.bits.busy = 0;
  7034  002BA6  9E04               	bcf	(_outPipes+3)^0,7,c	;volatile
  7035  002BA8                     l6934:
  7036                           
  7037                           ;usb_device.c: 2668:         controlTransferState = 0;
  7038  002BA8  0E00               	movlw	0
  7039  002BAA  6E27               	movwf	_controlTransferState^0,c	;volatile
  7040  002BAC                     l445:
  7041  002BAC  0012               	return		;funcret
  7042  002BAE                     __end_of_USBCtrlTrfInHandler:
  7043                           	opt callstack 0
  7044                           
  7045 ;; *************** function _USBCtrlTrfTxService *****************
  7046 ;; Defined at:
  7047 ;;		line 1777 in file "usb_device.c"
  7048 ;; Parameters:    Size  Location     Type
  7049 ;;		None
  7050 ;; Auto vars:     Size  Location     Type
  7051 ;;  byteToSend      1    0[BANK0 ] unsigned char 
  7052 ;; Return value:  Size  Location     Type
  7053 ;;                  1    wreg      void 
  7054 ;; Registers used:
  7055 ;;		wreg, fsr1l, fsr1h, fsr2l, fsr2h, status,2, status,0, tblptrl, tblptrh, tblptru
  7056 ;; Tracked objects:
  7057 ;;		On entry : 0/0
  7058 ;;		On exit  : 0/0
  7059 ;;		Unchanged: 0/0
  7060 ;; Data sizes:     COMRAM   BANK0   BANK1   BANK2   BANK3  BANK4h  BANK4l   BANK5   BANK6   BANK7
  7061 ;;      Params:         0       0       0       0       0       0       0       0       0       0
  7062 ;;      Locals:         0       1       0       0       0       0       0       0       0       0
  7063 ;;      Temps:          0       0       0       0       0       0       0       0       0       0
  7064 ;;      Totals:         0       1       0       0       0       0       0       0       0       0
  7065 ;;Total ram usage:        1 bytes
  7066 ;; Hardware stack levels used:    1
  7067 ;; Hardware stack levels required when called:   11
  7068 ;; This function calls:
  7069 ;;		Nothing
  7070 ;; This function is called by:
  7071 ;;		_USBCtrlEPAllowDataStage
  7072 ;;		_USBCtrlTrfInHandler
  7073 ;; This function uses a non-reentrant model
  7074 ;;
  7075                           
  7076                           	psect	text35
  7077  002778                     __ptext35:
  7078                           	opt callstack 0
  7079  002778                     _USBCtrlTrfTxService:
  7080                           	opt callstack 14
  7081  002778                     
  7082                           ;usb_device.c: 1779:     uint8_t byteToSend;;usb_device.c: 1783:     byteToSend = 32;
  7083  002778  0E20               	movlw	32
  7084  00277A  0100               	movlb	0	; () banked
  7085  00277C  6FDE               	movwf	USBCtrlTrfTxService@byteToSend& (0+255),b
  7086  00277E                     
  7087                           ; BSR set to: 0
  7088                           ;usb_device.c: 1784:     if(inPipes[0].wCount.Val < (uint8_t)32)
  7089  00277E  500E               	movf	(_inPipes+5)^0,w,c	;volatile
  7090  002780  E107               	bnz	u5621
  7091  002782  0E20               	movlw	32
  7092  002784  5C0D               	subwf	(_inPipes+4)^0,w,c	;volatile
  7093  002786  B0D8               	btfsc	status,0,c
  7094  002788  EFC8  F013         	goto	u5621
  7095  00278C  EFCA  F013         	goto	u5620
  7096  002790                     u5621:
  7097  002790  EFE2  F013         	goto	l6426
  7098  002794                     u5620:
  7099  002794                     
  7100                           ; BSR set to: 0
  7101                           ;usb_device.c: 1785:     {;usb_device.c: 1786:         byteToSend = inPipes[0].wCount.Va
      +                          l;
  7102  002794  C00D  F0DE         	movff	_inPipes+4,USBCtrlTrfTxService@byteToSend	;volatile
  7103  002798                     
  7104                           ; BSR set to: 0
  7105                           ;usb_device.c: 1793:         if(shortPacketStatus == 0)
  7106  002798  5028               	movf	_shortPacketStatus^0,w,c	;volatile
  7107  00279A  A4D8               	btfss	status,2,c
  7108  00279C  EFD2  F013         	goto	u5631
  7109  0027A0  EFD4  F013         	goto	u5630
  7110  0027A4                     u5631:
  7111  0027A4  EFD8  F013         	goto	l6422
  7112  0027A8                     u5630:
  7113  0027A8                     
  7114                           ; BSR set to: 0
  7115                           ;usb_device.c: 1794:         {;usb_device.c: 1795:             shortPacketStatus = 1;
  7116  0027A8  0E01               	movlw	1
  7117  0027AA  6E28               	movwf	_shortPacketStatus^0,c	;volatile
  7118                           
  7119                           ;usb_device.c: 1796:         }
  7120  0027AC  EFE2  F013         	goto	l6426
  7121  0027B0                     l6422:
  7122                           
  7123                           ; BSR set to: 0
  7124  0027B0  0428               	decf	_shortPacketStatus^0,w,c	;volatile
  7125  0027B2  A4D8               	btfss	status,2,c
  7126  0027B4  EFDE  F013         	goto	u5641
  7127  0027B8  EFE0  F013         	goto	u5640
  7128  0027BC                     u5641:
  7129  0027BC  EFE2  F013         	goto	l6426
  7130  0027C0                     u5640:
  7131  0027C0                     
  7132                           ; BSR set to: 0
  7133                           ;usb_device.c: 1798:         {;usb_device.c: 1799:             shortPacketStatus = 2;
  7134  0027C0  0E02               	movlw	2
  7135  0027C2  6E28               	movwf	_shortPacketStatus^0,c	;volatile
  7136  0027C4                     l6426:
  7137                           
  7138                           ; BSR set to: 0
  7139                           ;usb_device.c: 1805:     inPipes[0].wCount.Val -= byteToSend;
  7140  0027C4  51DE               	movf	USBCtrlTrfTxService@byteToSend& (0+255),w,b
  7141  0027C6  5E0D               	subwf	(_inPipes+4)^0,f,c	;volatile
  7142  0027C8  0E00               	movlw	0
  7143  0027CA  5A0E               	subwfb	(_inPipes+5)^0,f,c	;volatile
  7144  0027CC                     
  7145                           ; BSR set to: 0
  7146                           ;usb_device.c: 1810:     pBDTEntryIn[0]->CNT = byteToSend;
  7147  0027CC  EE20 F001          	lfsr	2,1
  7148  0027D0  500F               	movf	_pBDTEntryIn^0,w,c
  7149  0027D2  26D9               	addwf	fsr2l,f,c
  7150  0027D4  5010               	movf	(_pBDTEntryIn+1)^0,w,c
  7151  0027D6  22DA               	addwfc	fsr2h,f,c
  7152  0027D8  C0DE  FFDF         	movff	USBCtrlTrfTxService@byteToSend,indf2
  7153  0027DC                     
  7154                           ; BSR set to: 0
  7155                           ;usb_device.c: 1814:     pDst = (volatile uint8_t*)CtrlTrfData;
  7156  0027DC  0E50               	movlw	80
  7157  0027DE  6FC2               	movwf	_pDst& (0+255),b
  7158  0027E0  0E04               	movlw	4
  7159  0027E2  6FC3               	movwf	(_pDst+1)& (0+255),b
  7160  0027E4                     
  7161                           ; BSR set to: 0
  7162                           ;usb_device.c: 1815:     if(inPipes[0].info.bits.ctrl_trf_mem == 0x00)
  7163  0027E4  B00C               	btfsc	(_inPipes+3)^0,0,c	;volatile
  7164  0027E6  EFF7  F013         	goto	u5651
  7165  0027EA  EFF9  F013         	goto	u5650
  7166  0027EE                     u5651:
  7167  0027EE  EF3B  F014         	goto	l6454
  7168  0027F2                     u5650:
  7169  0027F2  EF16  F014         	goto	l6444
  7170  0027F6                     l6436:
  7171                           
  7172                           ; BSR set to: 0
  7173                           ;usb_device.c: 1818:         {;usb_device.c: 1819:             *pDst++ = *inPipes[0].pSr
      +                          c.bRom++;
  7174  0027F6  C009  FFF6         	movff	_inPipes,tblptrl	;volatile
  7175  0027FA  C00A  FFF7         	movff	_inPipes+1,tblptrh	;volatile
  7176  0027FE  6AF8               	clrf	tblptru,c
  7177  002800  C0C2  FFD9         	movff	_pDst,fsr2l
  7178  002804  C0C3  FFDA         	movff	_pDst+1,fsr2h
  7179  002808  0E07               	movlw	(high __ramtop+-1)
  7180  00280A  64F7               	cpfsgt	tblptrh,c
  7181  00280C  D003               	bra	u5667
  7182  00280E  0008               	tblrd		*
  7183  002810  50F5               	movf	tablat,w,c
  7184  002812  D005               	bra	u5660
  7185  002814                     u5667:
  7186  002814  CFF6 FFE1          	movff	tblptrl,fsr1l
  7187  002818  CFF7 FFE2          	movff	tblptrh,fsr1h
  7188  00281C  50E7               	movf	indf1,w,c
  7189  00281E                     u5660:
  7190  00281E  6EDF               	movwf	indf2,c
  7191  002820  4A09               	infsnz	_inPipes^0,f,c	;volatile
  7192  002822  2A0A               	incf	(_inPipes+1)^0,f,c	;volatile
  7193  002824  0100               	movlb	0	; () banked
  7194  002826  4BC2               	infsnz	_pDst& (0+255),f,b
  7195  002828  2BC3               	incf	(_pDst+1)& (0+255),f,b
  7196  00282A                     
  7197                           ; BSR set to: 0
  7198                           ;usb_device.c: 1820:             byteToSend--;
  7199  00282A  07DE               	decf	USBCtrlTrfTxService@byteToSend& (0+255),f,b
  7200  00282C                     l6444:
  7201                           
  7202                           ; BSR set to: 0
  7203                           ;usb_device.c: 1817:         while(byteToSend)
  7204  00282C  51DE               	movf	USBCtrlTrfTxService@byteToSend& (0+255),w,b
  7205  00282E  A4D8               	btfss	status,2,c
  7206  002830  EF1C  F014         	goto	u5671
  7207  002834  EF1E  F014         	goto	u5670
  7208  002838                     u5671:
  7209  002838  EFFB  F013         	goto	l6436
  7210  00283C                     u5670:
  7211  00283C  EF43  F014         	goto	l351
  7212  002840                     l6446:
  7213                           
  7214                           ; BSR set to: 0
  7215                           ;usb_device.c: 1826:         {;usb_device.c: 1827:             *pDst++ = *inPipes[0].pSr
      +                          c.bRam++;
  7216  002840  C009  FFF6         	movff	_inPipes,tblptrl	;volatile
  7217  002844  C00A  FFF7         	movff	_inPipes+1,tblptrh	;volatile
  7218  002848  6AF8               	clrf	tblptru,c
  7219  00284A  C0C2  FFD9         	movff	_pDst,fsr2l
  7220  00284E  C0C3  FFDA         	movff	_pDst+1,fsr2h
  7221  002852  0E07               	movlw	(high __ramtop+-1)
  7222  002854  64F7               	cpfsgt	tblptrh,c
  7223  002856  D003               	bra	u5687
  7224  002858  0008               	tblrd		*
  7225  00285A  50F5               	movf	tablat,w,c
  7226  00285C  D005               	bra	u5680
  7227  00285E                     u5687:
  7228  00285E  CFF6 FFE1          	movff	tblptrl,fsr1l
  7229  002862  CFF7 FFE2          	movff	tblptrh,fsr1h
  7230  002866  50E7               	movf	indf1,w,c
  7231  002868                     u5680:
  7232  002868  6EDF               	movwf	indf2,c
  7233  00286A  4A09               	infsnz	_inPipes^0,f,c	;volatile
  7234  00286C  2A0A               	incf	(_inPipes+1)^0,f,c	;volatile
  7235  00286E  0100               	movlb	0	; () banked
  7236  002870  4BC2               	infsnz	_pDst& (0+255),f,b
  7237  002872  2BC3               	incf	(_pDst+1)& (0+255),f,b
  7238  002874                     
  7239                           ; BSR set to: 0
  7240                           ;usb_device.c: 1828:             byteToSend--;
  7241  002874  07DE               	decf	USBCtrlTrfTxService@byteToSend& (0+255),f,b
  7242  002876                     l6454:
  7243                           
  7244                           ; BSR set to: 0
  7245                           ;usb_device.c: 1825:         while(byteToSend)
  7246  002876  51DE               	movf	USBCtrlTrfTxService@byteToSend& (0+255),w,b
  7247  002878  A4D8               	btfss	status,2,c
  7248  00287A  EF41  F014         	goto	u5691
  7249  00287E  EF43  F014         	goto	u5690
  7250  002882                     u5691:
  7251  002882  EF20  F014         	goto	l6446
  7252  002886                     u5690:
  7253  002886                     l351:
  7254                           
  7255                           ; BSR set to: 0
  7256  002886  0012               	return		;funcret
  7257  002888                     __end_of_USBCtrlTrfTxService:
  7258                           	opt callstack 0
  7259                           
  7260 ;; *************** function _mainISR *****************
  7261 ;; Defined at:
  7262 ;;		line 53 in file "main.c"
  7263 ;; Parameters:    Size  Location     Type
  7264 ;;		None
  7265 ;; Auto vars:     Size  Location     Type
  7266 ;;		None
  7267 ;; Return value:  Size  Location     Type
  7268 ;;                  1    wreg      void 
  7269 ;; Registers used:
  7270 ;;		wreg, fsr1l, fsr1h, fsr2l, fsr2h, status,2, status,0, tblptrl, tblptrh, tblptru, prodl, prodh, cstack
  7271 ;; Tracked objects:
  7272 ;;		On entry : 0/0
  7273 ;;		On exit  : 0/0
  7274 ;;		Unchanged: 0/0
  7275 ;; Data sizes:     COMRAM   BANK0   BANK1   BANK2   BANK3  BANK4h  BANK4l   BANK5   BANK6   BANK7
  7276 ;;      Params:         0       0       0       0       0       0       0       0       0       0
  7277 ;;      Locals:         0       0       0       0       0       0       0       0       0       0
  7278 ;;      Temps:         10       0       0       0       0       0       0       0       0       0
  7279 ;;      Totals:        10       0       0       0       0       0       0       0       0       0
  7280 ;;Total ram usage:       10 bytes
  7281 ;; Hardware stack levels used:    1
  7282 ;; Hardware stack levels required when called:   10
  7283 ;; This function calls:
  7284 ;;		_processUSBTasks
  7285 ;; This function is called by:
  7286 ;;		Interrupt level 2
  7287 ;; This function uses a non-reentrant model
  7288 ;;
  7289                           
  7290                           	psect	intcode
  7291  000008                     __pintcode:
  7292                           	opt callstack 0
  7293  000008                     _mainISR:
  7294                           	opt callstack 11
  7295                           
  7296                           ; BSR set to: 0
  7297                           ;incstack = 0
  7298  000008  8254               	bsf	int$flags,1,c	;set compiler interrupt flag (level 2)
  7299  00000A  ED54  F01E         	call	int_func,f	;refresh shadow registers
  7300                           
  7301                           	psect	intcode_body
  7302  003CA8                     __pintcode_body:
  7303                           	opt callstack 11
  7304  003CA8                     int_func:
  7305                           	opt callstack 11
  7306  003CA8  0006               	pop		; remove dummy address from shadow register refresh
  7307  003CAA  CFE1 F04A          	movff	fsr1l,??_mainISR
  7308  003CAE  CFE2 F04B          	movff	fsr1h,??_mainISR+1
  7309  003CB2  CFD9 F04C          	movff	fsr2l,??_mainISR+2
  7310  003CB6  CFDA F04D          	movff	fsr2h,??_mainISR+3
  7311  003CBA  CFF3 F04E          	movff	prodl,??_mainISR+4
  7312  003CBE  CFF4 F04F          	movff	prodh,??_mainISR+5
  7313  003CC2  CFF6 F050          	movff	tblptrl,??_mainISR+6
  7314  003CC6  CFF7 F051          	movff	tblptrh,??_mainISR+7
  7315  003CCA  CFF8 F052          	movff	tblptru,??_mainISR+8
  7316  003CCE  CFF5 F053          	movff	tablat,??_mainISR+9
  7317  003CD2                     
  7318                           ;main.c: 54:     processUSBTasks();
  7319  003CD2  EC22  F020         	call	_processUSBTasks	;wreg free
  7320  003CD6  C053  FFF5         	movff	??_mainISR+9,tablat
  7321  003CDA  C052  FFF8         	movff	??_mainISR+8,tblptru
  7322  003CDE  C051  FFF7         	movff	??_mainISR+7,tblptrh
  7323  003CE2  C050  FFF6         	movff	??_mainISR+6,tblptrl
  7324  003CE6  C04F  FFF4         	movff	??_mainISR+5,prodh
  7325  003CEA  C04E  FFF3         	movff	??_mainISR+4,prodl
  7326  003CEE  C04D  FFDA         	movff	??_mainISR+3,fsr2h
  7327  003CF2  C04C  FFD9         	movff	??_mainISR+2,fsr2l
  7328  003CF6  C04B  FFE2         	movff	??_mainISR+1,fsr1h
  7329  003CFA  C04A  FFE1         	movff	??_mainISR,fsr1l
  7330  003CFE  9254               	bcf	int$flags,1,c	;clear compiler interrupt flag (level 2)
  7331  003D00  0011               	retfie		f
  7332  003D02                     __end_of_mainISR:
  7333                           	opt callstack 0
  7334                           
  7335 ;; *************** function _processUSBTasks *****************
  7336 ;; Defined at:
  7337 ;;		line 20 in file "usb_cdc_lib.c"
  7338 ;; Parameters:    Size  Location     Type
  7339 ;;		None
  7340 ;; Auto vars:     Size  Location     Type
  7341 ;;		None
  7342 ;; Return value:  Size  Location     Type
  7343 ;;                  1    wreg      void 
  7344 ;; Registers used:
  7345 ;;		wreg, fsr1l, fsr1h, fsr2l, fsr2h, status,2, status,0, tblptrl, tblptrh, tblptru, prodl, prodh, cstack
  7346 ;; Tracked objects:
  7347 ;;		On entry : 0/0
  7348 ;;		On exit  : 0/0
  7349 ;;		Unchanged: 0/0
  7350 ;; Data sizes:     COMRAM   BANK0   BANK1   BANK2   BANK3  BANK4h  BANK4l   BANK5   BANK6   BANK7
  7351 ;;      Params:         0       0       0       0       0       0       0       0       0       0
  7352 ;;      Locals:         0       0       0       0       0       0       0       0       0       0
  7353 ;;      Temps:          0       0       0       0       0       0       0       0       0       0
  7354 ;;      Totals:         0       0       0       0       0       0       0       0       0       0
  7355 ;;Total ram usage:        0 bytes
  7356 ;; Hardware stack levels used:    1
  7357 ;; Hardware stack levels required when called:    9
  7358 ;; This function calls:
  7359 ;;		i2_USBDeviceTasks
  7360 ;; This function is called by:
  7361 ;;		_mainISR
  7362 ;; This function uses a non-reentrant model
  7363 ;;
  7364                           
  7365                           	psect	text37
  7366  004044                     __ptext37:
  7367                           	opt callstack 0
  7368  004044                     _processUSBTasks:
  7369                           	opt callstack 11
  7370  004044                     
  7371                           ;usb_cdc_lib.c: 22:     if(INTCONbits.PEIE == 1)
  7372  004044  ACF2               	btfss	242,6,c	;volatile
  7373  004046  EF27  F020         	goto	i2u528_41
  7374  00404A  EF29  F020         	goto	i2u528_40
  7375  00404E                     i2u528_41:
  7376  00404E  EF39  F020         	goto	i2l84
  7377  004052                     i2u528_40:
  7378  004052                     
  7379                           ;usb_cdc_lib.c: 23:     {;usb_cdc_lib.c: 24:         if(PIE2bits.USBIE == 1 && PIR2bits.
      +                          USBIF == 1)
  7380  004052  AAA0               	btfss	160,5,c	;volatile
  7381  004054  EF2E  F020         	goto	i2u529_41
  7382  004058  EF30  F020         	goto	i2u529_40
  7383  00405C                     i2u529_41:
  7384  00405C  EF39  F020         	goto	i2l84
  7385  004060                     i2u529_40:
  7386  004060  AAA1               	btfss	161,5,c	;volatile
  7387  004062  EF35  F020         	goto	i2u530_41
  7388  004066  EF37  F020         	goto	i2u530_40
  7389  00406A                     i2u530_41:
  7390  00406A  EF39  F020         	goto	i2l84
  7391  00406E                     i2u530_40:
  7392  00406E                     
  7393                           ;usb_cdc_lib.c: 25:         {;usb_cdc_lib.c: 26:             USBDeviceTasks();
  7394  00406E  ECCE  F008         	call	i2_USBDeviceTasks	;wreg free
  7395  004072                     i2l84:
  7396  004072  0012               	return		;funcret
  7397  004074                     __end_of_processUSBTasks:
  7398                           	opt callstack 0
  7399                           
  7400 ;; *************** function i2_USBDeviceTasks *****************
  7401 ;; Defined at:
  7402 ;;		line 481 in file "usb_device.c"
  7403 ;; Parameters:    Size  Location     Type
  7404 ;;		None
  7405 ;; Auto vars:     Size  Location     Type
  7406 ;;  USBDeviceTas    1   30[COMRAM] unsigned char 
  7407 ;; Return value:  Size  Location     Type
  7408 ;;                  1    wreg      void 
  7409 ;; Registers used:
  7410 ;;		wreg, fsr1l, fsr1h, fsr2l, fsr2h, status,2, status,0, tblptrl, tblptrh, tblptru, prodl, prodh, cstack
  7411 ;; Tracked objects:
  7412 ;;		On entry : 0/0
  7413 ;;		On exit  : 0/0
  7414 ;;		Unchanged: 0/0
  7415 ;; Data sizes:     COMRAM   BANK0   BANK1   BANK2   BANK3  BANK4h  BANK4l   BANK5   BANK6   BANK7
  7416 ;;      Params:         0       0       0       0       0       0       0       0       0       0
  7417 ;;      Locals:         1       0       0       0       0       0       0       0       0       0
  7418 ;;      Temps:          0       0       0       0       0       0       0       0       0       0
  7419 ;;      Totals:         1       0       0       0       0       0       0       0       0       0
  7420 ;;Total ram usage:        1 bytes
  7421 ;; Hardware stack levels used:    1
  7422 ;; Hardware stack levels required when called:    8
  7423 ;; This function calls:
  7424 ;;		i2_USBCtrlEPAllowStatusStage
  7425 ;;		i2_USBCtrlEPService
  7426 ;;		i2_USBDeviceInit
  7427 ;;		i2_USBIncrement1msInternalTimers
  7428 ;;		i2_USBStallHandler
  7429 ;;		i2_USBSuspend
  7430 ;;		i2_USBWakeFromSuspend
  7431 ;;		i2_USER_USB_CALLBACK_EVENT_HANDLER
  7432 ;; This function is called by:
  7433 ;;		_processUSBTasks
  7434 ;; This function uses a non-reentrant model
  7435 ;;
  7436                           
  7437                           	psect	text38
  7438  00119C                     __ptext38:
  7439                           	opt callstack 0
  7440  00119C                     i2_USBDeviceTasks:
  7441                           	opt callstack 11
  7442  00119C                     
  7443                           ;usb_device.c: 483:     uint8_t i;;usb_device.c: 594:     if(USBDeviceState == ATTACHED_
      +                          STATE)
  7444  00119C  0429               	decf	_USBDeviceState^0,w,c	;volatile
  7445  00119E  A4D8               	btfss	status,2,c
  7446  0011A0  EFD4  F008         	goto	i2u479_41
  7447  0011A4  EFD6  F008         	goto	i2u479_40
  7448  0011A8                     i2u479_41:
  7449  0011A8  EFE3  F008         	goto	i2l5580
  7450  0011AC                     i2u479_40:
  7451  0011AC                     
  7452                           ;usb_device.c: 595:     {;usb_device.c: 605:         if(!UCONbits.SE0)
  7453  0011AC  BA6D               	btfsc	109,5,c	;volatile
  7454  0011AE  EFDB  F008         	goto	i2u480_41
  7455  0011B2  EFDD  F008         	goto	i2u480_40
  7456  0011B6                     i2u480_41:
  7457  0011B6  EFE3  F008         	goto	i2l5580
  7458  0011BA                     i2u480_40:
  7459  0011BA                     
  7460                           ;usb_device.c: 606:         {;usb_device.c: 612:                 {UIR = 0;};
  7461  0011BA  0E00               	movlw	0
  7462  0011BC  6E68               	movwf	104,c	;volatile
  7463  0011BE                     
  7464                           ;usb_device.c: 618:             UIEbits.URSTIE = 1;
  7465  0011BE  8069               	bsf	105,0,c	;volatile
  7466  0011C0                     
  7467                           ;usb_device.c: 619:             UIEbits.IDLEIE = 1;
  7468  0011C0  8869               	bsf	105,4,c	;volatile
  7469                           
  7470                           ;usb_device.c: 620:             USBDeviceState = POWERED_STATE;
  7471  0011C2  0E02               	movlw	2
  7472  0011C4  6E29               	movwf	_USBDeviceState^0,c	;volatile
  7473  0011C6                     i2l5580:
  7474                           
  7475                           ;usb_device.c: 640:     if(UIRbits.ACTVIF && UIEbits.ACTVIE)
  7476  0011C6  A468               	btfss	104,2,c	;volatile
  7477  0011C8  EFE8  F008         	goto	i2u481_41
  7478  0011CC  EFEA  F008         	goto	i2u481_40
  7479  0011D0                     i2u481_41:
  7480  0011D0  EFF4  F008         	goto	i2l5588
  7481  0011D4                     i2u481_40:
  7482  0011D4  A469               	btfss	105,2,c	;volatile
  7483  0011D6  EFEF  F008         	goto	i2u482_41
  7484  0011DA  EFF1  F008         	goto	i2u482_40
  7485  0011DE                     i2u482_41:
  7486  0011DE  EFF4  F008         	goto	i2l5588
  7487  0011E2                     i2u482_40:
  7488  0011E2                     
  7489                           ;usb_device.c: 641:     {;usb_device.c: 642:         (UIR &= 0xFB);
  7490  0011E2  9468               	bcf	104,2,c	;volatile
  7491  0011E4                     
  7492                           ;usb_device.c: 646:             USBWakeFromSuspend();
  7493  0011E4  ECB2  F01F         	call	i2_USBWakeFromSuspend	;wreg free
  7494  0011E8                     i2l5588:
  7495                           
  7496                           ;usb_device.c: 653:     if(UCONbits.SUSPND==1)
  7497  0011E8  A26D               	btfss	109,1,c	;volatile
  7498  0011EA  EFF9  F008         	goto	i2u483_41
  7499  0011EE  EFFB  F008         	goto	i2u483_40
  7500  0011F2                     i2u483_41:
  7501  0011F2  EFFE  F008         	goto	i2l252
  7502  0011F6                     i2u483_40:
  7503  0011F6                     
  7504                           ;usb_device.c: 654:     {;usb_device.c: 655:         {PIR2bits.USBIF = 0;};
  7505  0011F6  9AA1               	bcf	161,5,c	;volatile
  7506                           
  7507                           ;usb_device.c: 656:         return;
  7508  0011F8  EFE1  F009         	goto	i2l253
  7509  0011FC                     i2l252:
  7510                           
  7511                           ;usb_device.c: 669:     if(UIRbits.URSTIF && UIEbits.URSTIE)
  7512  0011FC  A068               	btfss	104,0,c	;volatile
  7513  0011FE  EF03  F009         	goto	i2u484_41
  7514  001202  EF05  F009         	goto	i2u484_40
  7515  001206                     i2u484_41:
  7516  001206  EF12  F009         	goto	i2l5602
  7517  00120A                     i2u484_40:
  7518  00120A  A069               	btfss	105,0,c	;volatile
  7519  00120C  EF0A  F009         	goto	i2u485_41
  7520  001210  EF0C  F009         	goto	i2u485_40
  7521  001214                     i2u485_41:
  7522  001214  EF12  F009         	goto	i2l5602
  7523  001218                     i2u485_40:
  7524  001218                     
  7525                           ;usb_device.c: 670:     {;usb_device.c: 671:         USBDeviceInit();
  7526  001218  EC32  F00E         	call	i2_USBDeviceInit	;wreg free
  7527  00121C                     
  7528                           ;usb_device.c: 675:         {PIE2bits.USBIE = 1;};
  7529  00121C  8AA0               	bsf	160,5,c	;volatile
  7530  00121E                     
  7531                           ;usb_device.c: 677:         USBDeviceState = DEFAULT_STATE;
  7532  00121E  0E04               	movlw	4
  7533  001220  6E29               	movwf	_USBDeviceState^0,c	;volatile
  7534  001222                     
  7535                           ;usb_device.c: 687:         (UIR &= 0xFE);
  7536  001222  9068               	bcf	104,0,c	;volatile
  7537  001224                     i2l5602:
  7538                           
  7539                           ;usb_device.c: 693:     if(UIRbits.IDLEIF && UIEbits.IDLEIE)
  7540  001224  A868               	btfss	104,4,c	;volatile
  7541  001226  EF17  F009         	goto	i2u486_41
  7542  00122A  EF19  F009         	goto	i2u486_40
  7543  00122E                     i2u486_41:
  7544  00122E  EF22  F009         	goto	i2l5608
  7545  001232                     i2u486_40:
  7546  001232  A869               	btfss	105,4,c	;volatile
  7547  001234  EF1E  F009         	goto	i2u487_41
  7548  001238  EF20  F009         	goto	i2u487_40
  7549  00123C                     i2u487_41:
  7550  00123C  EF22  F009         	goto	i2l5608
  7551  001240                     i2u487_40:
  7552  001240                     
  7553                           ;usb_device.c: 694:     {;usb_device.c: 700:             USBSuspend();
  7554  001240  EC51  F020         	call	i2_USBSuspend	;wreg free
  7555  001244                     i2l5608:
  7556                           
  7557                           ;usb_device.c: 714:     if(UIRbits.SOFIF)
  7558  001244  AC68               	btfss	104,6,c	;volatile
  7559  001246  EF27  F009         	goto	i2u488_41
  7560  00124A  EF29  F009         	goto	i2u488_40
  7561  00124E                     i2u488_41:
  7562  00124E  EF55  F009         	goto	i2l5626
  7563  001252                     i2u488_40:
  7564  001252                     
  7565                           ;usb_device.c: 715:     {;usb_device.c: 717:         if(UIEbits.SOFIE)
  7566  001252  AC69               	btfss	105,6,c	;volatile
  7567  001254  EF2E  F009         	goto	i2u489_41
  7568  001258  EF30  F009         	goto	i2u489_40
  7569  00125C                     i2u489_41:
  7570  00125C  EF3E  F009         	goto	i2l5614
  7571  001260                     i2u489_40:
  7572  001260                     
  7573                           ;usb_device.c: 718:         {;usb_device.c: 719:             USER_USB_CALLBACK_EVENT_HAN
      +                          DLER((USB_EVENT)EVENT_SOF,0,1);
  7574  001260  0E00               	movlw	0
  7575  001262  6E38               	movwf	(i2USER_USB_CALLBACK_EVENT_HANDLER@event+1)^0,c
  7576  001264  0E73               	movlw	115
  7577  001266  6E37               	movwf	i2USER_USB_CALLBACK_EVENT_HANDLER@event^0,c
  7578  001268  0E00               	movlw	0
  7579  00126A  6E39               	movwf	i2USER_USB_CALLBACK_EVENT_HANDLER@pdata^0,c
  7580  00126C  0E00               	movlw	0
  7581  00126E  6E3A               	movwf	(i2USER_USB_CALLBACK_EVENT_HANDLER@pdata+1)^0,c
  7582  001270  0E00               	movlw	0
  7583  001272  6E3C               	movwf	(i2USER_USB_CALLBACK_EVENT_HANDLER@size+1)^0,c
  7584  001274  0E01               	movlw	1
  7585  001276  6E3B               	movwf	i2USER_USB_CALLBACK_EVENT_HANDLER@size^0,c
  7586  001278  ECA6  F01C         	call	i2_USER_USB_CALLBACK_EVENT_HANDLER	;wreg free
  7587  00127C                     i2l5614:
  7588                           
  7589                           ;usb_device.c: 721:         (UIR &= 0xBF);
  7590  00127C  9C68               	bcf	104,6,c	;volatile
  7591  00127E                     
  7592                           ;usb_device.c: 724:             USBIncrement1msInternalTimers();
  7593  00127E  EC08  F020         	call	i2_USBIncrement1msInternalTimers	;wreg free
  7594  001282                     
  7595                           ;usb_device.c: 741:             if(USBStatusStageTimeoutCounter != 0u)
  7596  001282  0100               	movlb	0	; () banked
  7597  001284  51CA               	movf	_USBStatusStageTimeoutCounter& (0+255),w,b	;volatile
  7598  001286  B4D8               	btfsc	status,2,c
  7599  001288  EF48  F009         	goto	i2u490_41
  7600  00128C  EF4A  F009         	goto	i2u490_40
  7601  001290                     i2u490_41:
  7602  001290  EF4B  F009         	goto	i2l5622
  7603  001294                     i2u490_40:
  7604  001294                     
  7605                           ; BSR set to: 0
  7606                           ;usb_device.c: 742:             {;usb_device.c: 743:                 USBStatusStageTimeo
      +                          utCounter--;
  7607  001294  07CA               	decf	_USBStatusStageTimeoutCounter& (0+255),f,b	;volatile
  7608  001296                     i2l5622:
  7609                           
  7610                           ; BSR set to: 0
  7611                           ;usb_device.c: 750:             if(USBStatusStageTimeoutCounter == 0)
  7612  001296  51CA               	movf	_USBStatusStageTimeoutCounter& (0+255),w,b	;volatile
  7613  001298  A4D8               	btfss	status,2,c
  7614  00129A  EF51  F009         	goto	i2u491_41
  7615  00129E  EF53  F009         	goto	i2u491_40
  7616  0012A2                     i2u491_41:
  7617  0012A2  EF55  F009         	goto	i2l5626
  7618  0012A6                     i2u491_40:
  7619  0012A6                     
  7620                           ; BSR set to: 0
  7621                           ;usb_device.c: 751:             {;usb_device.c: 752:                 USBCtrlEPAllowStatu
      +                          sStage();
  7622  0012A6  EC55  F018         	call	i2_USBCtrlEPAllowStatusStage	;wreg free
  7623  0012AA                     i2l5626:
  7624                           
  7625                           ;usb_device.c: 757:     if(UIRbits.STALLIF && UIEbits.STALLIE)
  7626  0012AA  AA68               	btfss	104,5,c	;volatile
  7627  0012AC  EF5A  F009         	goto	i2u492_41
  7628  0012B0  EF5C  F009         	goto	i2u492_40
  7629  0012B4                     i2u492_41:
  7630  0012B4  EF65  F009         	goto	i2l5632
  7631  0012B8                     i2u492_40:
  7632  0012B8  AA69               	btfss	105,5,c	;volatile
  7633  0012BA  EF61  F009         	goto	i2u493_41
  7634  0012BE  EF63  F009         	goto	i2u493_40
  7635  0012C2                     i2u493_41:
  7636  0012C2  EF65  F009         	goto	i2l5632
  7637  0012C6                     i2u493_40:
  7638  0012C6                     
  7639                           ;usb_device.c: 758:     {;usb_device.c: 759:         USBStallHandler();
  7640  0012C6  EC24  F01E         	call	i2_USBStallHandler	;wreg free
  7641  0012CA                     i2l5632:
  7642                           
  7643                           ;usb_device.c: 762:     if(UIRbits.UERRIF && UIEbits.UERRIE)
  7644  0012CA  A268               	btfss	104,1,c	;volatile
  7645  0012CC  EF6A  F009         	goto	i2u494_41
  7646  0012D0  EF6C  F009         	goto	i2u494_40
  7647  0012D4                     i2u494_41:
  7648  0012D4  EF82  F009         	goto	i2l5640
  7649  0012D8                     i2u494_40:
  7650  0012D8  A269               	btfss	105,1,c	;volatile
  7651  0012DA  EF71  F009         	goto	i2u495_41
  7652  0012DE  EF73  F009         	goto	i2u495_40
  7653  0012E2                     i2u495_41:
  7654  0012E2  EF82  F009         	goto	i2l5640
  7655  0012E6                     i2u495_40:
  7656  0012E6                     
  7657                           ;usb_device.c: 763:     {;usb_device.c: 764:         USER_USB_CALLBACK_EVENT_HANDLER((US
      +                          B_EVENT)EVENT_BUS_ERROR,0,1);
  7658  0012E6  0E7F               	movlw	127
  7659  0012E8  6E38               	movwf	(i2USER_USB_CALLBACK_EVENT_HANDLER@event+1)^0,c
  7660  0012EA  6837               	setf	i2USER_USB_CALLBACK_EVENT_HANDLER@event^0,c
  7661  0012EC  0E00               	movlw	0
  7662  0012EE  6E39               	movwf	i2USER_USB_CALLBACK_EVENT_HANDLER@pdata^0,c
  7663  0012F0  0E00               	movlw	0
  7664  0012F2  6E3A               	movwf	(i2USER_USB_CALLBACK_EVENT_HANDLER@pdata+1)^0,c
  7665  0012F4  0E00               	movlw	0
  7666  0012F6  6E3C               	movwf	(i2USER_USB_CALLBACK_EVENT_HANDLER@size+1)^0,c
  7667  0012F8  0E01               	movlw	1
  7668  0012FA  6E3B               	movwf	i2USER_USB_CALLBACK_EVENT_HANDLER@size^0,c
  7669  0012FC  ECA6  F01C         	call	i2_USER_USB_CALLBACK_EVENT_HANDLER	;wreg free
  7670  001300                     
  7671                           ;usb_device.c: 765:         {UEIR = 0;};
  7672  001300  0E00               	movlw	0
  7673  001302  6E6A               	movwf	106,c	;volatile
  7674  001304                     i2l5640:
  7675                           
  7676                           ;usb_device.c: 780:     if(USBDeviceState < DEFAULT_STATE)
  7677  001304  0E04               	movlw	4
  7678  001306  6029               	cpfslt	_USBDeviceState^0,c	;volatile
  7679  001308  EF88  F009         	goto	i2u496_41
  7680  00130C  EF8A  F009         	goto	i2u496_40
  7681  001310                     i2u496_41:
  7682  001310  EF8D  F009         	goto	i2l262
  7683  001314                     i2u496_40:
  7684  001314                     
  7685                           ;usb_device.c: 781:     {;usb_device.c: 782:         {PIR2bits.USBIF = 0;};
  7686  001314  9AA1               	bcf	161,5,c	;volatile
  7687                           
  7688                           ;usb_device.c: 783:         return;
  7689  001316  EFE1  F009         	goto	i2l253
  7690  00131A                     i2l262:
  7691                           
  7692                           ;usb_device.c: 789:     if(UIEbits.TRNIE)
  7693  00131A  A669               	btfss	105,3,c	;volatile
  7694  00131C  EF92  F009         	goto	i2u497_41
  7695  001320  EF94  F009         	goto	i2u497_40
  7696  001324                     i2u497_41:
  7697  001324  EFE0  F009         	goto	i2l263
  7698  001328                     i2u497_40:
  7699  001328                     
  7700                           ;usb_device.c: 790:     {;usb_device.c: 791:         for(i = 0; i < 4u; i++)
  7701  001328  0E00               	movlw	0
  7702  00132A  6E49               	movwf	i2USBDeviceTasks@i^0,c
  7703  00132C                     i2l264:
  7704                           
  7705                           ;usb_device.c: 792:         {;usb_device.c: 793:             if(UIRbits.TRNIF)
  7706  00132C  A668               	btfss	104,3,c	;volatile
  7707  00132E  EF9B  F009         	goto	i2u498_41
  7708  001332  EF9D  F009         	goto	i2u498_40
  7709  001336                     i2u498_41:
  7710  001336  EFE0  F009         	goto	i2l263
  7711  00133A                     i2u498_40:
  7712  00133A                     
  7713                           ;usb_device.c: 794:             {;usb_device.c: 796:                 USTATcopy.Val = UST
      +                          AT;
  7714  00133A  CF6C F0DD          	movff	3948,_USTATcopy	;volatile
  7715  00133E                     
  7716                           ;usb_device.c: 797:                 endpoint_number = USTATcopy.endpoint_number;
  7717  00133E  0100               	movlb	0	; () banked
  7718  001340  31DD               	rrcf	_USTATcopy& (0+255),w,b	;volatile
  7719  001342  32E8               	rrcf	wreg,f,c
  7720  001344  32E8               	rrcf	wreg,f,c
  7721  001346  0B0F               	andlw	15
  7722  001348  6FCB               	movwf	_endpoint_number& (0+255),b	;volatile
  7723  00134A                     
  7724                           ; BSR set to: 0
  7725                           ;usb_device.c: 799:                 (UIR &= 0xF7);
  7726  00134A  9668               	bcf	104,3,c	;volatile
  7727  00134C                     
  7728                           ; BSR set to: 0
  7729                           ;usb_device.c: 804:                 if(USTATcopy.direction == 0)
  7730  00134C  B5DD               	btfsc	_USTATcopy& (0+255),2,b	;volatile
  7731  00134E  EFAB  F009         	goto	i2u499_41
  7732  001352  EFAD  F009         	goto	i2u499_40
  7733  001356                     i2u499_41:
  7734  001356  EFB6  F009         	goto	i2l5660
  7735  00135A                     i2u499_40:
  7736  00135A                     
  7737                           ; BSR set to: 0
  7738                           ;usb_device.c: 805:                 {;usb_device.c: 806:                     ep_data_out
      +                          [endpoint_number].bits.ping_pong_state ^= 1;
  7739  00135A  0E15               	movlw	low _ep_data_out
  7740  00135C  25CB               	addwf	_endpoint_number& (0+255),w,b	;volatile
  7741  00135E  6ED9               	movwf	fsr2l,c
  7742  001360  6ADA               	clrf	fsr2h,c
  7743  001362  0E00               	movlw	high _ep_data_out
  7744  001364  22DA               	addwfc	fsr2h,f,c
  7745  001366  70DF               	btg	indf2,0,c
  7746                           
  7747                           ;usb_device.c: 807:                 }
  7748  001368  EFBD  F009         	goto	i2l5662
  7749  00136C                     i2l5660:
  7750                           
  7751                           ; BSR set to: 0
  7752                           ;usb_device.c: 809:                 {;usb_device.c: 810:                     ep_data_in[
      +                          endpoint_number].bits.ping_pong_state ^= 1;
  7753  00136C  0E18               	movlw	low _ep_data_in
  7754  00136E  25CB               	addwf	_endpoint_number& (0+255),w,b	;volatile
  7755  001370  6ED9               	movwf	fsr2l,c
  7756  001372  6ADA               	clrf	fsr2h,c
  7757  001374  0E00               	movlw	high _ep_data_in
  7758  001376  22DA               	addwfc	fsr2h,f,c
  7759  001378  70DF               	btg	indf2,0,c
  7760  00137A                     i2l5662:
  7761                           
  7762                           ; BSR set to: 0
  7763                           ;usb_device.c: 816:                 if(endpoint_number == 0)
  7764  00137A  51CB               	movf	_endpoint_number& (0+255),w,b	;volatile
  7765  00137C  A4D8               	btfss	status,2,c
  7766  00137E  EFC3  F009         	goto	i2u500_41
  7767  001382  EFC5  F009         	goto	i2u500_40
  7768  001386                     i2u500_41:
  7769  001386  EFC9  F009         	goto	i2l5666
  7770  00138A                     i2u500_40:
  7771  00138A                     
  7772                           ; BSR set to: 0
  7773                           ;usb_device.c: 817:                 {;usb_device.c: 818:                     USBCtrlEPSe
      +                          rvice();
  7774  00138A  EC17  F01A         	call	i2_USBCtrlEPService	;wreg free
  7775                           
  7776                           ;usb_device.c: 819:                 }
  7777  00138E  EFD7  F009         	goto	i2l5668
  7778  001392                     i2l5666:
  7779                           
  7780                           ; BSR set to: 0
  7781                           ;usb_device.c: 821:                 {;usb_device.c: 822:                     USER_USB_CA
      +                          LLBACK_EVENT_HANDLER((USB_EVENT)EVENT_TRANSFER,(uint8_t*)&USTATcopy.Val,0);
  7782  001392  0E00               	movlw	0
  7783  001394  6E38               	movwf	(i2USER_USB_CALLBACK_EVENT_HANDLER@event+1)^0,c
  7784  001396  0E72               	movlw	114
  7785  001398  6E37               	movwf	i2USER_USB_CALLBACK_EVENT_HANDLER@event^0,c
  7786  00139A  0EDD               	movlw	low _USTATcopy
  7787  00139C  6E39               	movwf	i2USER_USB_CALLBACK_EVENT_HANDLER@pdata^0,c
  7788  00139E  0E00               	movlw	high _USTATcopy
  7789  0013A0  6E3A               	movwf	(i2USER_USB_CALLBACK_EVENT_HANDLER@pdata+1)^0,c
  7790  0013A2  0E00               	movlw	0
  7791  0013A4  6E3C               	movwf	(i2USER_USB_CALLBACK_EVENT_HANDLER@size+1)^0,c
  7792  0013A6  0E00               	movlw	0
  7793  0013A8  6E3B               	movwf	i2USER_USB_CALLBACK_EVENT_HANDLER@size^0,c
  7794  0013AA  ECA6  F01C         	call	i2_USER_USB_CALLBACK_EVENT_HANDLER	;wreg free
  7795  0013AE                     i2l5668:
  7796                           
  7797                           ;usb_device.c: 829:         }
  7798  0013AE  2A49               	incf	i2USBDeviceTasks@i^0,f,c
  7799  0013B0  0E03               	movlw	3
  7800  0013B2  6449               	cpfsgt	i2USBDeviceTasks@i^0,c
  7801  0013B4  EFDE  F009         	goto	i2u501_41
  7802  0013B8  EFE0  F009         	goto	i2u501_40
  7803  0013BC                     i2u501_41:
  7804  0013BC  EF96  F009         	goto	i2l264
  7805  0013C0                     i2u501_40:
  7806  0013C0                     i2l263:
  7807                           
  7808                           ;usb_device.c: 832:     {PIR2bits.USBIF = 0;};
  7809  0013C0  9AA1               	bcf	161,5,c	;volatile
  7810  0013C2                     i2l253:
  7811  0013C2  0012               	return		;funcret
  7812  0013C4                     __end_ofi2_USBDeviceTasks:
  7813                           	opt callstack 0
  7814                           
  7815 ;; *************** function i2_USBWakeFromSuspend *****************
  7816 ;; Defined at:
  7817 ;;		line 2309 in file "usb_device.c"
  7818 ;; Parameters:    Size  Location     Type
  7819 ;;		None
  7820 ;; Auto vars:     Size  Location     Type
  7821 ;;		None
  7822 ;; Return value:  Size  Location     Type
  7823 ;;                  1    wreg      void 
  7824 ;; Registers used:
  7825 ;;		wreg, fsr2l, fsr2h, status,2, status,0, prodl, prodh, cstack
  7826 ;; Tracked objects:
  7827 ;;		On entry : 0/0
  7828 ;;		On exit  : 0/0
  7829 ;;		Unchanged: 0/0
  7830 ;; Data sizes:     COMRAM   BANK0   BANK1   BANK2   BANK3  BANK4h  BANK4l   BANK5   BANK6   BANK7
  7831 ;;      Params:         0       0       0       0       0       0       0       0       0       0
  7832 ;;      Locals:         0       0       0       0       0       0       0       0       0       0
  7833 ;;      Temps:          0       0       0       0       0       0       0       0       0       0
  7834 ;;      Totals:         0       0       0       0       0       0       0       0       0       0
  7835 ;;Total ram usage:        0 bytes
  7836 ;; Hardware stack levels used:    1
  7837 ;; Hardware stack levels required when called:    4
  7838 ;; This function calls:
  7839 ;;		i2_USER_USB_CALLBACK_EVENT_HANDLER
  7840 ;; This function is called by:
  7841 ;;		i2_USBDeviceTasks
  7842 ;; This function uses a non-reentrant model
  7843 ;;
  7844                           
  7845                           	psect	text39
  7846  003F64                     __ptext39:
  7847                           	opt callstack 0
  7848  003F64                     i2_USBWakeFromSuspend:
  7849                           	opt callstack 14
  7850  003F64                     
  7851                           ;usb_device.c: 2311:     USBBusIsSuspended = 0;
  7852  003F64  0E00               	movlw	0
  7853  003F66  6E25               	movwf	_USBBusIsSuspended^0,c	;volatile
  7854  003F68                     
  7855                           ;usb_device.c: 2317:     USER_USB_CALLBACK_EVENT_HANDLER((USB_EVENT)EVENT_RESUME,0,0);
  7856  003F68  0E00               	movlw	0
  7857  003F6A  6E38               	movwf	(i2USER_USB_CALLBACK_EVENT_HANDLER@event+1)^0,c
  7858  003F6C  0E74               	movlw	116
  7859  003F6E  6E37               	movwf	i2USER_USB_CALLBACK_EVENT_HANDLER@event^0,c
  7860  003F70  0E00               	movlw	0
  7861  003F72  6E39               	movwf	i2USER_USB_CALLBACK_EVENT_HANDLER@pdata^0,c
  7862  003F74  0E00               	movlw	0
  7863  003F76  6E3A               	movwf	(i2USER_USB_CALLBACK_EVENT_HANDLER@pdata+1)^0,c
  7864  003F78  0E00               	movlw	0
  7865  003F7A  6E3C               	movwf	(i2USER_USB_CALLBACK_EVENT_HANDLER@size+1)^0,c
  7866  003F7C  0E00               	movlw	0
  7867  003F7E  6E3B               	movwf	i2USER_USB_CALLBACK_EVENT_HANDLER@size^0,c
  7868  003F80  ECA6  F01C         	call	i2_USER_USB_CALLBACK_EVENT_HANDLER	;wreg free
  7869  003F84                     
  7870                           ;usb_device.c: 2324:         UCONbits.SUSPND = 0;
  7871  003F84  926D               	bcf	109,1,c	;volatile
  7872  003F86                     
  7873                           ;usb_device.c: 2329:     UIEbits.ACTVIE = 0;
  7874  003F86  9469               	bcf	105,2,c	;volatile
  7875                           
  7876                           ;usb_device.c: 2347:     while(UIRbits.ACTVIF)
  7877  003F88  EFC7  F01F         	goto	i2l5298
  7878  003F8C                     i2l5296:
  7879                           
  7880                           ;usb_device.c: 2349:     {;usb_device.c: 2350:         (UIR &= 0xFB);
  7881  003F8C  9468               	bcf	104,2,c	;volatile
  7882  003F8E                     i2l5298:
  7883                           
  7884                           ;usb_device.c: 2347:     while(UIRbits.ACTVIF)
  7885  003F8E  B468               	btfsc	104,2,c	;volatile
  7886  003F90  EFCC  F01F         	goto	i2u446_41
  7887  003F94  EFCE  F01F         	goto	i2u446_40
  7888  003F98                     i2u446_41:
  7889  003F98  EFC6  F01F         	goto	i2l5296
  7890  003F9C                     i2u446_40:
  7891  003F9C                     
  7892                           ;usb_device.c: 2353:     USBTicksSinceSuspendEnd = 0;
  7893  003F9C  0E00               	movlw	0
  7894  003F9E  0100               	movlb	0	; () banked
  7895  003FA0  6FC8               	movwf	_USBTicksSinceSuspendEnd& (0+255),b	;volatile
  7896  003FA2                     
  7897                           ; BSR set to: 0
  7898  003FA2  0012               	return		;funcret
  7899  003FA4                     __end_ofi2_USBWakeFromSuspend:
  7900                           	opt callstack 0
  7901                           
  7902 ;; *************** function i2_USBSuspend *****************
  7903 ;; Defined at:
  7904 ;;		line 2251 in file "usb_device.c"
  7905 ;; Parameters:    Size  Location     Type
  7906 ;;		None
  7907 ;; Auto vars:     Size  Location     Type
  7908 ;;		None
  7909 ;; Return value:  Size  Location     Type
  7910 ;;                  1    wreg      void 
  7911 ;; Registers used:
  7912 ;;		wreg, fsr2l, fsr2h, status,2, status,0, prodl, prodh, cstack
  7913 ;; Tracked objects:
  7914 ;;		On entry : 0/0
  7915 ;;		On exit  : 0/0
  7916 ;;		Unchanged: 0/0
  7917 ;; Data sizes:     COMRAM   BANK0   BANK1   BANK2   BANK3  BANK4h  BANK4l   BANK5   BANK6   BANK7
  7918 ;;      Params:         0       0       0       0       0       0       0       0       0       0
  7919 ;;      Locals:         0       0       0       0       0       0       0       0       0       0
  7920 ;;      Temps:          0       0       0       0       0       0       0       0       0       0
  7921 ;;      Totals:         0       0       0       0       0       0       0       0       0       0
  7922 ;;Total ram usage:        0 bytes
  7923 ;; Hardware stack levels used:    1
  7924 ;; Hardware stack levels required when called:    4
  7925 ;; This function calls:
  7926 ;;		i2_USER_USB_CALLBACK_EVENT_HANDLER
  7927 ;; This function is called by:
  7928 ;;		i2_USBDeviceTasks
  7929 ;; This function uses a non-reentrant model
  7930 ;;
  7931                           
  7932                           	psect	text40
  7933  0040A2                     __ptext40:
  7934                           	opt callstack 0
  7935  0040A2                     i2_USBSuspend:
  7936                           	opt callstack 14
  7937  0040A2                     
  7938                           ;usb_device.c: 2276:     UIEbits.ACTVIE = 1;
  7939  0040A2  8469               	bsf	105,2,c	;volatile
  7940  0040A4                     
  7941                           ;usb_device.c: 2277:     (UIR &= 0xEF);
  7942  0040A4  9868               	bcf	104,4,c	;volatile
  7943  0040A6                     
  7944                           ;usb_device.c: 2280:         UCONbits.SUSPND = 1;
  7945  0040A6  826D               	bsf	109,1,c	;volatile
  7946  0040A8                     
  7947                           ;usb_device.c: 2283:     USBBusIsSuspended = 1;
  7948  0040A8  0E01               	movlw	1
  7949  0040AA  6E25               	movwf	_USBBusIsSuspended^0,c	;volatile
  7950  0040AC                     
  7951                           ;usb_device.c: 2284:     USBTicksSinceSuspendEnd = 0;
  7952  0040AC  0E00               	movlw	0
  7953  0040AE  0100               	movlb	0	; () banked
  7954  0040B0  6FC8               	movwf	_USBTicksSinceSuspendEnd& (0+255),b	;volatile
  7955  0040B2                     
  7956                           ; BSR set to: 0
  7957                           ;usb_device.c: 2291:     USER_USB_CALLBACK_EVENT_HANDLER((USB_EVENT)EVENT_SUSPEND,0,0);
  7958  0040B2  0E00               	movlw	0
  7959  0040B4  6E38               	movwf	(i2USER_USB_CALLBACK_EVENT_HANDLER@event+1)^0,c
  7960  0040B6  0E75               	movlw	117
  7961  0040B8  6E37               	movwf	i2USER_USB_CALLBACK_EVENT_HANDLER@event^0,c
  7962  0040BA  0E00               	movlw	0
  7963  0040BC  6E39               	movwf	i2USER_USB_CALLBACK_EVENT_HANDLER@pdata^0,c
  7964  0040BE  0E00               	movlw	0
  7965  0040C0  6E3A               	movwf	(i2USER_USB_CALLBACK_EVENT_HANDLER@pdata+1)^0,c
  7966  0040C2  0E00               	movlw	0
  7967  0040C4  6E3C               	movwf	(i2USER_USB_CALLBACK_EVENT_HANDLER@size+1)^0,c
  7968  0040C6  0E00               	movlw	0
  7969  0040C8  6E3B               	movwf	i2USER_USB_CALLBACK_EVENT_HANDLER@size^0,c
  7970  0040CA  ECA6  F01C         	call	i2_USER_USB_CALLBACK_EVENT_HANDLER	;wreg free
  7971  0040CE  0012               	return		;funcret
  7972  0040D0                     __end_ofi2_USBSuspend:
  7973                           	opt callstack 0
  7974                           
  7975 ;; *************** function i2_USBStallHandler *****************
  7976 ;; Defined at:
  7977 ;;		line 2208 in file "usb_device.c"
  7978 ;; Parameters:    Size  Location     Type
  7979 ;;		None
  7980 ;; Auto vars:     Size  Location     Type
  7981 ;;		None
  7982 ;; Return value:  Size  Location     Type
  7983 ;;                  1    wreg      void 
  7984 ;; Registers used:
  7985 ;;		wreg, fsr2l, fsr2h, status,2, status,0
  7986 ;; Tracked objects:
  7987 ;;		On entry : 0/0
  7988 ;;		On exit  : 0/0
  7989 ;;		Unchanged: 0/0
  7990 ;; Data sizes:     COMRAM   BANK0   BANK1   BANK2   BANK3  BANK4h  BANK4l   BANK5   BANK6   BANK7
  7991 ;;      Params:         0       0       0       0       0       0       0       0       0       0
  7992 ;;      Locals:         0       0       0       0       0       0       0       0       0       0
  7993 ;;      Temps:          1       0       0       0       0       0       0       0       0       0
  7994 ;;      Totals:         1       0       0       0       0       0       0       0       0       0
  7995 ;;Total ram usage:        1 bytes
  7996 ;; Hardware stack levels used:    1
  7997 ;; This function calls:
  7998 ;;		Nothing
  7999 ;; This function is called by:
  8000 ;;		i2_USBDeviceTasks
  8001 ;; This function uses a non-reentrant model
  8002 ;;
  8003                           
  8004                           	psect	text41
  8005  003C48                     __ptext41:
  8006                           	opt callstack 0
  8007  003C48                     i2_USBStallHandler:
  8008                           	opt callstack 18
  8009  003C48                     
  8010                           ;usb_device.c: 2220:     if(UEP0bits.EPSTALL == 1)
  8011  003C48  A070               	btfss	112,0,c	;volatile
  8012  003C4A  EF29  F01E         	goto	i2u443_41
  8013  003C4E  EF2B  F01E         	goto	i2u443_40
  8014  003C52                     i2u443_41:
  8015  003C52  EF52  F01E         	goto	i2l402
  8016  003C56                     i2u443_40:
  8017  003C56                     
  8018                           ;usb_device.c: 2221:     {;usb_device.c: 2223:         if((pBDTEntryEP0OutCurrent->STAT.
      +                          Val == 0x80) && (pBDTEntryIn[0]->STAT.Val == (0x80|0x04)))
  8019  003C56  C01D  FFD9         	movff	_pBDTEntryEP0OutCurrent,fsr2l
  8020  003C5A  C01E  FFDA         	movff	_pBDTEntryEP0OutCurrent+1,fsr2h
  8021  003C5E  0E80               	movlw	128
  8022  003C60  18DE               	xorwf	postinc2,w,c
  8023  003C62  A4D8               	btfss	status,2,c
  8024  003C64  EF36  F01E         	goto	i2u444_41
  8025  003C68  EF38  F01E         	goto	i2u444_40
  8026  003C6C                     i2u444_41:
  8027  003C6C  EF51  F01E         	goto	i2l5274
  8028  003C70                     i2u444_40:
  8029  003C70  C00F  FFD9         	movff	_pBDTEntryIn,fsr2l
  8030  003C74  C010  FFDA         	movff	_pBDTEntryIn+1,fsr2h
  8031  003C78  0E84               	movlw	132
  8032  003C7A  18DE               	xorwf	postinc2,w,c
  8033  003C7C  A4D8               	btfss	status,2,c
  8034  003C7E  EF43  F01E         	goto	i2u445_41
  8035  003C82  EF45  F01E         	goto	i2u445_40
  8036  003C86                     i2u445_41:
  8037  003C86  EF51  F01E         	goto	i2l5274
  8038  003C8A                     i2u445_40:
  8039  003C8A                     
  8040                           ;usb_device.c: 2224:         {;usb_device.c: 2226:             pBDTEntryEP0OutCurrent->S
      +                          TAT.Val = 0x00|(0x08 & 0x08)|0x04;
  8041  003C8A  C01D  FFD9         	movff	_pBDTEntryEP0OutCurrent,fsr2l
  8042  003C8E  C01E  FFDA         	movff	_pBDTEntryEP0OutCurrent+1,fsr2h
  8043  003C92  0E0C               	movlw	12
  8044  003C94  6EDF               	movwf	indf2,c
  8045  003C96                     
  8046                           ;usb_device.c: 2227:             pBDTEntryEP0OutCurrent->STAT.Val |= 0x80;
  8047  003C96  C01D  FFD9         	movff	_pBDTEntryEP0OutCurrent,fsr2l
  8048  003C9A  C01E  FFDA         	movff	_pBDTEntryEP0OutCurrent+1,fsr2h
  8049  003C9E  0E00               	movlw	0
  8050  003CA0  8EDB               	bsf	plusw2,7,c
  8051  003CA2                     i2l5274:
  8052                           
  8053                           ;usb_device.c: 2229:         UEP0bits.EPSTALL = 0;
  8054  003CA2  9070               	bcf	112,0,c	;volatile
  8055  003CA4                     i2l402:
  8056                           
  8057                           ;usb_device.c: 2232:     (UIR &= 0xDF);
  8058  003CA4  9A68               	bcf	104,5,c	;volatile
  8059  003CA6  0012               	return		;funcret
  8060  003CA8                     __end_ofi2_USBStallHandler:
  8061                           	opt callstack 0
  8062                           
  8063 ;; *************** function i2_USBIncrement1msInternalTimers *****************
  8064 ;; Defined at:
  8065 ;;		line 3031 in file "usb_device.c"
  8066 ;; Parameters:    Size  Location     Type
  8067 ;;		None
  8068 ;; Auto vars:     Size  Location     Type
  8069 ;;		None
  8070 ;; Return value:  Size  Location     Type
  8071 ;;                  1    wreg      void 
  8072 ;; Registers used:
  8073 ;;		wreg, status,2, status,0
  8074 ;; Tracked objects:
  8075 ;;		On entry : 0/0
  8076 ;;		On exit  : 0/0
  8077 ;;		Unchanged: 0/0
  8078 ;; Data sizes:     COMRAM   BANK0   BANK1   BANK2   BANK3  BANK4h  BANK4l   BANK5   BANK6   BANK7
  8079 ;;      Params:         0       0       0       0       0       0       0       0       0       0
  8080 ;;      Locals:         0       0       0       0       0       0       0       0       0       0
  8081 ;;      Temps:          0       0       0       0       0       0       0       0       0       0
  8082 ;;      Totals:         0       0       0       0       0       0       0       0       0       0
  8083 ;;Total ram usage:        0 bytes
  8084 ;; Hardware stack levels used:    1
  8085 ;; This function calls:
  8086 ;;		Nothing
  8087 ;; This function is called by:
  8088 ;;		i2_USBDeviceTasks
  8089 ;; This function uses a non-reentrant model
  8090 ;;
  8091                           
  8092                           	psect	text42
  8093  004010                     __ptext42:
  8094                           	opt callstack 0
  8095  004010                     i2_USBIncrement1msInternalTimers:
  8096                           	opt callstack 18
  8097  004010                     
  8098                           ;usb_device.c: 3039:     USB1msTickCount++;
  8099  004010  0E01               	movlw	1
  8100  004012  0100               	movlb	0	; () banked
  8101  004014  27B4               	addwf	_USB1msTickCount& (0+255),f,b	;volatile
  8102  004016  0E00               	movlw	0
  8103  004018  23B5               	addwfc	(_USB1msTickCount+1)& (0+255),f,b	;volatile
  8104  00401A  23B6               	addwfc	(_USB1msTickCount+2)& (0+255),f,b	;volatile
  8105  00401C  23B7               	addwfc	(_USB1msTickCount+3)& (0+255),f,b	;volatile
  8106  00401E                     
  8107                           ; BSR set to: 0
  8108                           ;usb_device.c: 3040:     if(USBBusIsSuspended == 0)
  8109  00401E  5025               	movf	_USBBusIsSuspended^0,w,c	;volatile
  8110  004020  A4D8               	btfss	status,2,c
  8111  004022  EF15  F020         	goto	i2u450_41
  8112  004026  EF17  F020         	goto	i2u450_40
  8113  00402A                     i2u450_41:
  8114  00402A  EF21  F020         	goto	i2l494
  8115  00402E                     i2u450_40:
  8116  00402E                     
  8117                           ; BSR set to: 0
  8118                           ;usb_device.c: 3041:     {;usb_device.c: 3042:         USBTicksSinceSuspendEnd++;
  8119  00402E  2BC8               	incf	_USBTicksSinceSuspendEnd& (0+255),f,b	;volatile
  8120  004030                     
  8121                           ; BSR set to: 0
  8122                           ;usb_device.c: 3044:         if(USBTicksSinceSuspendEnd == 0)
  8123  004030  51C8               	movf	_USBTicksSinceSuspendEnd& (0+255),w,b	;volatile
  8124  004032  A4D8               	btfss	status,2,c
  8125  004034  EF1E  F020         	goto	i2u451_41
  8126  004038  EF20  F020         	goto	i2u451_40
  8127  00403C                     i2u451_41:
  8128  00403C  EF21  F020         	goto	i2l494
  8129  004040                     i2u451_40:
  8130  004040                     
  8131                           ; BSR set to: 0
  8132                           ;usb_device.c: 3045:         {;usb_device.c: 3046:             USBTicksSinceSuspendEnd =
      +                           255;
  8133  004040  69C8               	setf	_USBTicksSinceSuspendEnd& (0+255),b	;volatile
  8134  004042                     i2l494:
  8135                           
  8136                           ; BSR set to: 0
  8137  004042  0012               	return		;funcret
  8138  004044                     __end_ofi2_USBIncrement1msInternalTimers:
  8139                           	opt callstack 0
  8140                           
  8141 ;; *************** function i2_USBDeviceInit *****************
  8142 ;; Defined at:
  8143 ;;		line 281 in file "usb_device.c"
  8144 ;; Parameters:    Size  Location     Type
  8145 ;;		None
  8146 ;; Auto vars:     Size  Location     Type
  8147 ;;  USBDeviceIni    1   12[COMRAM] unsigned char 
  8148 ;; Return value:  Size  Location     Type
  8149 ;;                  1    wreg      void 
  8150 ;; Registers used:
  8151 ;;		wreg, fsr2l, fsr2h, status,2, status,0, prodl, prodh, cstack
  8152 ;; Tracked objects:
  8153 ;;		On entry : 0/0
  8154 ;;		On exit  : 0/0
  8155 ;;		Unchanged: 0/0
  8156 ;; Data sizes:     COMRAM   BANK0   BANK1   BANK2   BANK3  BANK4h  BANK4l   BANK5   BANK6   BANK7
  8157 ;;      Params:         0       0       0       0       0       0       0       0       0       0
  8158 ;;      Locals:         1       0       0       0       0       0       0       0       0       0
  8159 ;;      Temps:          0       0       0       0       0       0       0       0       0       0
  8160 ;;      Totals:         1       0       0       0       0       0       0       0       0       0
  8161 ;;Total ram usage:        1 bytes
  8162 ;; Hardware stack levels used:    1
  8163 ;; Hardware stack levels required when called:    1
  8164 ;; This function calls:
  8165 ;;		i2_memset
  8166 ;; This function is called by:
  8167 ;;		i2_USBDeviceTasks
  8168 ;; This function uses a non-reentrant model
  8169 ;;
  8170                           
  8171                           	psect	text43
  8172  001C64                     __ptext43:
  8173                           	opt callstack 0
  8174  001C64                     i2_USBDeviceInit:
  8175                           	opt callstack 17
  8176  001C64                     
  8177                           ;usb_device.c: 283:     uint8_t i;;usb_device.c: 285:     {PIE2bits.USBIE = 0;};
  8178  001C64  9AA0               	bcf	160,5,c	;volatile
  8179  001C66                     
  8180                           ;usb_device.c: 292:     {UEIR = 0;};
  8181  001C66  0E00               	movlw	0
  8182  001C68  6E6A               	movwf	106,c	;volatile
  8183                           
  8184                           ;usb_device.c: 295:     {UIR = 0;};
  8185  001C6A  0E00               	movlw	0
  8186  001C6C  6E68               	movwf	104,c	;volatile
  8187                           
  8188                           ;usb_device.c: 298:     UEP0 = 0;
  8189  001C6E  0E00               	movlw	0
  8190  001C70  6E70               	movwf	112,c	;volatile
  8191  001C72                     
  8192                           ;usb_device.c: 300:     memset((void*)&UEP1,0x00,(2));;
  8193  001C72  0E71               	movlw	113
  8194  001C74  6E2B               	movwf	i2memset@dest^0,c
  8195  001C76  0E0F               	movlw	15
  8196  001C78  6E2C               	movwf	(i2memset@dest+1)^0,c
  8197  001C7A  0E00               	movlw	0
  8198  001C7C  6E2E               	movwf	(i2memset@c+1)^0,c
  8199  001C7E  0E00               	movlw	0
  8200  001C80  6E2D               	movwf	i2memset@c^0,c
  8201  001C82  0E00               	movlw	0
  8202  001C84  6E30               	movwf	(i2memset@n+1)^0,c
  8203  001C86  0E02               	movlw	2
  8204  001C88  6E2F               	movwf	i2memset@n^0,c
  8205  001C8A  EC6A  F00B         	call	i2_memset	;wreg free
  8206  001C8E                     
  8207                           ;usb_device.c: 302:     { UCFG = 0x10 | 0x00 | 0x04 | 0x02; UEIE = 0x9F; UIE = 0x39 | 0x
      +                          40 | 0x02; };
  8208  001C8E  0E16               	movlw	22
  8209  001C90  6E6F               	movwf	111,c	;volatile
  8210  001C92  0E9F               	movlw	159
  8211  001C94  6E6B               	movwf	107,c	;volatile
  8212  001C96  0E7B               	movlw	123
  8213  001C98  6E69               	movwf	105,c	;volatile
  8214  001C9A                     
  8215                           ;usb_device.c: 311:     for(i = 0; i < (sizeof(BDT)/sizeof(BDT_ENTRY)); i++)
  8216  001C9A  0E00               	movlw	0
  8217  001C9C  6E37               	movwf	i2USBDeviceInit@i^0,c
  8218  001C9E                     i2l5206:
  8219                           
  8220                           ;usb_device.c: 312:     {;usb_device.c: 313:         BDT[i].Val = 0x00;
  8221  001C9E  5037               	movf	i2USBDeviceInit@i^0,w,c
  8222  001CA0  0D04               	mullw	4
  8223  001CA2  0E00               	movlw	0
  8224  001CA4  24F3               	addwf	243,w,c
  8225  001CA6  6ED9               	movwf	fsr2l,c
  8226  001CA8  0E04               	movlw	4
  8227  001CAA  20F4               	addwfc	prodh,w,c
  8228  001CAC  6EDA               	movwf	fsr2h,c
  8229  001CAE  6ADE               	clrf	postinc2,c
  8230  001CB0  6ADE               	clrf	postinc2,c
  8231  001CB2  6ADE               	clrf	postinc2,c
  8232  001CB4  6ADD               	clrf	postdec2,c
  8233  001CB6                     
  8234                           ;usb_device.c: 314:     }
  8235  001CB6  2A37               	incf	i2USBDeviceInit@i^0,f,c
  8236  001CB8  0E0B               	movlw	11
  8237  001CBA  6437               	cpfsgt	i2USBDeviceInit@i^0,c
  8238  001CBC  EF62  F00E         	goto	i2u440_41
  8239  001CC0  EF64  F00E         	goto	i2u440_40
  8240  001CC4                     i2u440_41:
  8241  001CC4  EF4F  F00E         	goto	i2l5206
  8242  001CC8                     i2u440_40:
  8243  001CC8                     
  8244                           ;usb_device.c: 317:     UCONbits.PPBRST = 1;
  8245  001CC8  8C6D               	bsf	109,6,c	;volatile
  8246  001CCA                     
  8247                           ;usb_device.c: 320:     UADDR = 0x00;
  8248  001CCA  0E00               	movlw	0
  8249  001CCC  6E6E               	movwf	110,c	;volatile
  8250  001CCE                     
  8251                           ;usb_device.c: 323:     UCONbits.PKTDIS = 0;
  8252  001CCE  986D               	bcf	109,4,c	;volatile
  8253  001CD0                     
  8254                           ;usb_device.c: 326:     UCONbits.PPBRST = 0;
  8255  001CD0  9C6D               	bcf	109,6,c	;volatile
  8256  001CD2                     i2l5218:
  8257                           
  8258                           ;usb_device.c: 330:     {;usb_device.c: 331:         (UIR &= 0xF7);
  8259  001CD2  9668               	bcf	104,3,c	;volatile
  8260  001CD4                     
  8261                           ;usb_device.c: 333:         inPipes[0].info.Val = 0;
  8262  001CD4  0E00               	movlw	0
  8263  001CD6  6E0C               	movwf	(_inPipes+3)^0,c	;volatile
  8264  001CD8                     
  8265                           ;usb_device.c: 334:         outPipes[0].info.Val = 0;
  8266  001CD8  0E00               	movlw	0
  8267  001CDA  6E04               	movwf	(_outPipes+3)^0,c	;volatile
  8268  001CDC                     
  8269                           ;usb_device.c: 335:         outPipes[0].wCount.Val = 0;
  8270  001CDC  0E00               	movlw	0
  8271  001CDE  6E06               	movwf	(_outPipes+5)^0,c	;volatile
  8272  001CE0  0E00               	movlw	0
  8273  001CE2  6E05               	movwf	(_outPipes+4)^0,c	;volatile
  8274  001CE4                     
  8275                           ;usb_device.c: 336:     }while(UIRbits.TRNIF == 1);
  8276  001CE4  B668               	btfsc	104,3,c	;volatile
  8277  001CE6  EF77  F00E         	goto	i2u441_41
  8278  001CEA  EF79  F00E         	goto	i2u441_40
  8279  001CEE                     i2u441_41:
  8280  001CEE  EF69  F00E         	goto	i2l5218
  8281  001CF2                     i2u441_40:
  8282  001CF2                     
  8283                           ;usb_device.c: 340:     USBStatusStageEnabledFlag1 = 1;
  8284  001CF2  0E01               	movlw	1
  8285  001CF4  6E22               	movwf	_USBStatusStageEnabledFlag1^0,c	;volatile
  8286                           
  8287                           ;usb_device.c: 341:     USBStatusStageEnabledFlag2 = 1;
  8288  001CF6  0E01               	movlw	1
  8289  001CF8  6E21               	movwf	_USBStatusStageEnabledFlag2^0,c	;volatile
  8290                           
  8291                           ;usb_device.c: 343:     USBDeferINDataStagePackets = 0;
  8292  001CFA  0E00               	movlw	0
  8293  001CFC  6E20               	movwf	_USBDeferINDataStagePackets^0,c	;volatile
  8294                           
  8295                           ;usb_device.c: 344:     USBDeferOUTDataStagePackets = 0;
  8296  001CFE  0E00               	movlw	0
  8297  001D00  0100               	movlb	0	; () banked
  8298  001D02  6FC9               	movwf	_USBDeferOUTDataStagePackets& (0+255),b	;volatile
  8299                           
  8300                           ;usb_device.c: 345:     USBBusIsSuspended = 0;
  8301  001D04  0E00               	movlw	0
  8302  001D06  6E25               	movwf	_USBBusIsSuspended^0,c	;volatile
  8303                           
  8304                           ;usb_device.c: 349:     for(i = 0; i < (uint8_t)(2 +1u); i++)
  8305  001D08  0E00               	movlw	0
  8306  001D0A  6E37               	movwf	i2USBDeviceInit@i^0,c
  8307  001D0C                     i2l5234:
  8308                           
  8309                           ;usb_device.c: 350:     {;usb_device.c: 351:         pBDTEntryIn[i] = 0u;
  8310  001D0C  5037               	movf	i2USBDeviceInit@i^0,w,c
  8311  001D0E  0D02               	mullw	2
  8312  001D10  0E0F               	movlw	low _pBDTEntryIn
  8313  001D12  24F3               	addwf	243,w,c
  8314  001D14  6ED9               	movwf	fsr2l,c
  8315  001D16  0E00               	movlw	high _pBDTEntryIn
  8316  001D18  20F4               	addwfc	prodh,w,c
  8317  001D1A  6EDA               	movwf	fsr2h,c
  8318  001D1C  0E00               	movlw	0
  8319  001D1E  6EDE               	movwf	postinc2,c
  8320  001D20  0E00               	movlw	0
  8321  001D22  6EDD               	movwf	postdec2,c
  8322                           
  8323                           ;usb_device.c: 352:         pBDTEntryOut[i] = 0u;
  8324  001D24  5037               	movf	i2USBDeviceInit@i^0,w,c
  8325  001D26  0D02               	mullw	2
  8326  001D28  0EAA               	movlw	low _pBDTEntryOut
  8327  001D2A  24F3               	addwf	243,w,c
  8328  001D2C  6ED9               	movwf	fsr2l,c
  8329  001D2E  0E00               	movlw	high _pBDTEntryOut
  8330  001D30  20F4               	addwfc	prodh,w,c
  8331  001D32  6EDA               	movwf	fsr2h,c
  8332  001D34  0E00               	movlw	0
  8333  001D36  6EDE               	movwf	postinc2,c
  8334  001D38  0E00               	movlw	0
  8335  001D3A  6EDD               	movwf	postdec2,c
  8336  001D3C                     
  8337                           ;usb_device.c: 353:         ep_data_in[i].Val = 0u;
  8338  001D3C  0E18               	movlw	low _ep_data_in
  8339  001D3E  2437               	addwf	i2USBDeviceInit@i^0,w,c
  8340  001D40  6ED9               	movwf	fsr2l,c
  8341  001D42  6ADA               	clrf	fsr2h,c
  8342  001D44  0E00               	movlw	high _ep_data_in
  8343  001D46  22DA               	addwfc	fsr2h,f,c
  8344  001D48  0E00               	movlw	0
  8345  001D4A  6EDF               	movwf	indf2,c
  8346  001D4C                     
  8347                           ;usb_device.c: 354:         ep_data_out[i].Val = 0u;
  8348  001D4C  0E15               	movlw	low _ep_data_out
  8349  001D4E  2437               	addwf	i2USBDeviceInit@i^0,w,c
  8350  001D50  6ED9               	movwf	fsr2l,c
  8351  001D52  6ADA               	clrf	fsr2h,c
  8352  001D54  0E00               	movlw	high _ep_data_out
  8353  001D56  22DA               	addwfc	fsr2h,f,c
  8354  001D58  0E00               	movlw	0
  8355  001D5A  6EDF               	movwf	indf2,c
  8356  001D5C                     
  8357                           ;usb_device.c: 355:     }
  8358  001D5C  2A37               	incf	i2USBDeviceInit@i^0,f,c
  8359  001D5E  0E02               	movlw	2
  8360  001D60  6437               	cpfsgt	i2USBDeviceInit@i^0,c
  8361  001D62  EFB5  F00E         	goto	i2u442_41
  8362  001D66  EFB7  F00E         	goto	i2u442_40
  8363  001D6A                     i2u442_41:
  8364  001D6A  EF86  F00E         	goto	i2l5234
  8365  001D6E                     i2u442_40:
  8366  001D6E                     
  8367                           ;usb_device.c: 358:     pBDTEntryIn[0] = (volatile BDT_ENTRY*)&BDT[2];
  8368  001D6E  0E08               	movlw	8
  8369  001D70  6E0F               	movwf	_pBDTEntryIn^0,c
  8370  001D72  0E04               	movlw	4
  8371  001D74  6E10               	movwf	(_pBDTEntryIn+1)^0,c
  8372  001D76                     
  8373                           ;usb_device.c: 360:     UEP0 = 0x06|0x10;
  8374  001D76  0E16               	movlw	22
  8375  001D78  6E70               	movwf	112,c	;volatile
  8376  001D7A                     
  8377                           ;usb_device.c: 362:     BDT[0].ADR = ((uint16_t)(&SetupPkt));
  8378  001D7A  0E04               	movlw	4
  8379  001D7C  0104               	movlb	4	; () banked
  8380  001D7E  6F03               	movwf	3,b	;volatile
  8381  001D80  0E30               	movlw	48
  8382  001D82  6F02               	movwf	2,b	;volatile
  8383  001D84                     
  8384                           ; BSR set to: 4
  8385                           ;usb_device.c: 363:     BDT[0].CNT = 32;
  8386  001D84  0E20               	movlw	32
  8387  001D86  6F01               	movwf	1,b	;volatile
  8388  001D88                     
  8389                           ; BSR set to: 4
  8390                           ;usb_device.c: 364:     BDT[0].STAT.Val = 0x00|0x04;
  8391  001D88  0E04               	movlw	4
  8392  001D8A  6F00               	movwf	0,b	;volatile
  8393  001D8C                     
  8394                           ; BSR set to: 4
  8395                           ;usb_device.c: 365:     BDT[0].STAT.Val |= 0x80;
  8396  001D8C  8F00               	bsf	0,7,b	;volatile
  8397  001D8E                     
  8398                           ; BSR set to: 4
  8399                           ;usb_device.c: 368:     USBActiveConfiguration = 0;
  8400  001D8E  0E00               	movlw	0
  8401  001D90  6E2A               	movwf	_USBActiveConfiguration^0,c	;volatile
  8402  001D92                     
  8403                           ; BSR set to: 4
  8404                           ;usb_device.c: 370:     USB1msTickCount = 0;
  8405  001D92  0E00               	movlw	0
  8406  001D94  0100               	movlb	0	; () banked
  8407  001D96  6FB4               	movwf	_USB1msTickCount& (0+255),b	;volatile
  8408  001D98  0E00               	movlw	0
  8409  001D9A  6FB5               	movwf	(_USB1msTickCount+1)& (0+255),b	;volatile
  8410  001D9C  0E00               	movlw	0
  8411  001D9E  6FB6               	movwf	(_USB1msTickCount+2)& (0+255),b	;volatile
  8412  001DA0  0E00               	movlw	0
  8413  001DA2  6FB7               	movwf	(_USB1msTickCount+3)& (0+255),b	;volatile
  8414  001DA4                     
  8415                           ; BSR set to: 0
  8416                           ;usb_device.c: 371:     USBTicksSinceSuspendEnd = 0;
  8417  001DA4  0E00               	movlw	0
  8418  001DA6  6FC8               	movwf	_USBTicksSinceSuspendEnd& (0+255),b	;volatile
  8419  001DA8                     
  8420                           ; BSR set to: 0
  8421                           ;usb_device.c: 374:     USBDeviceState = DETACHED_STATE;
  8422  001DA8  0E00               	movlw	0
  8423  001DAA  6E29               	movwf	_USBDeviceState^0,c	;volatile
  8424  001DAC                     
  8425                           ; BSR set to: 0
  8426  001DAC  0012               	return		;funcret
  8427  001DAE                     __end_ofi2_USBDeviceInit:
  8428                           	opt callstack 0
  8429                           
  8430 ;; *************** function i2_USBCtrlEPService *****************
  8431 ;; Defined at:
  8432 ;;		line 2378 in file "usb_device.c"
  8433 ;; Parameters:    Size  Location     Type
  8434 ;;		None
  8435 ;; Auto vars:     Size  Location     Type
  8436 ;;		None
  8437 ;; Return value:  Size  Location     Type
  8438 ;;                  1    wreg      void 
  8439 ;; Registers used:
  8440 ;;		wreg, fsr1l, fsr1h, fsr2l, fsr2h, status,2, status,0, tblptrl, tblptrh, tblptru, prodl, prodh, cstack
  8441 ;; Tracked objects:
  8442 ;;		On entry : 0/0
  8443 ;;		On exit  : 0/0
  8444 ;;		Unchanged: 0/0
  8445 ;; Data sizes:     COMRAM   BANK0   BANK1   BANK2   BANK3  BANK4h  BANK4l   BANK5   BANK6   BANK7
  8446 ;;      Params:         0       0       0       0       0       0       0       0       0       0
  8447 ;;      Locals:         0       0       0       0       0       0       0       0       0       0
  8448 ;;      Temps:          1       0       0       0       0       0       0       0       0       0
  8449 ;;      Totals:         1       0       0       0       0       0       0       0       0       0
  8450 ;;Total ram usage:        1 bytes
  8451 ;; Hardware stack levels used:    1
  8452 ;; Hardware stack levels required when called:    7
  8453 ;; This function calls:
  8454 ;;		i2_USBCtrlTrfInHandler
  8455 ;;		i2_USBCtrlTrfOutHandler
  8456 ;;		i2_USBCtrlTrfSetupHandler
  8457 ;;		i2_memcpy
  8458 ;; This function is called by:
  8459 ;;		i2_USBDeviceTasks
  8460 ;; This function uses a non-reentrant model
  8461 ;;
  8462                           
  8463                           	psect	text44
  8464  00342E                     __ptext44:
  8465                           	opt callstack 0
  8466  00342E                     i2_USBCtrlEPService:
  8467                           	opt callstack 11
  8468  00342E                     
  8469                           ;usb_device.c: 2384:         USBStatusStageTimeoutCounter = (uint8_t)45;
  8470  00342E  0E2D               	movlw	45
  8471  003430  0100               	movlb	0	; () banked
  8472  003432  6FCA               	movwf	_USBStatusStageTimeoutCounter& (0+255),b	;volatile
  8473  003434                     
  8474                           ; BSR set to: 0
  8475                           ;usb_device.c: 2388:     if((USTATcopy.Val & ~0x02) == 0x00)
  8476  003434  C0DD  F048         	movff	_USTATcopy,??i2_USBCtrlEPService	;volatile
  8477  003438  0EFD               	movlw	253
  8478  00343A  1648               	andwf	??i2_USBCtrlEPService^0,f,c
  8479  00343C  A4D8               	btfss	status,2,c
  8480  00343E  EF23  F01A         	goto	i2u447_41
  8481  003442  EF25  F01A         	goto	i2u447_40
  8482  003446                     i2u447_41:
  8483  003446  EF67  F01A         	goto	i2l5320
  8484  00344A                     i2u447_40:
  8485  00344A                     
  8486                           ; BSR set to: 0
  8487                           ;usb_device.c: 2389:     {;usb_device.c: 2392:             pBDTEntryEP0OutCurrent = (vol
      +                          atile BDT_ENTRY*)&BDT[(USTATcopy.Val & 0x7E)>>1];
  8488  00344A  C0DD  F048         	movff	_USTATcopy,??i2_USBCtrlEPService	;volatile
  8489  00344E  90D8               	bcf	status,0,c
  8490  003450  3248               	rrcf	??i2_USBCtrlEPService^0,f,c
  8491  003452  0E3F               	movlw	63
  8492  003454  1648               	andwf	??i2_USBCtrlEPService^0,f,c
  8493  003456  5048               	movf	??i2_USBCtrlEPService^0,w,c
  8494  003458  0D04               	mullw	4
  8495  00345A  0E00               	movlw	0
  8496  00345C  24F3               	addwf	243,w,c
  8497  00345E  6E1D               	movwf	_pBDTEntryEP0OutCurrent^0,c
  8498  003460  0E04               	movlw	4
  8499  003462  20F4               	addwfc	prodh,w,c
  8500  003464  6E1E               	movwf	(_pBDTEntryEP0OutCurrent+1)^0,c
  8501  003466                     
  8502                           ; BSR set to: 0
  8503                           ;usb_device.c: 2400:         pBDTEntryEP0OutNext = pBDTEntryEP0OutCurrent;
  8504  003466  C01D  F01B         	movff	_pBDTEntryEP0OutCurrent,_pBDTEntryEP0OutNext
  8505  00346A  C01E  F01C         	movff	_pBDTEntryEP0OutCurrent+1,_pBDTEntryEP0OutNext+1
  8506  00346E                     
  8507                           ; BSR set to: 0
  8508                           ;usb_device.c: 2402:         pBDTEntryEP0OutNext = (volatile BDT_ENTRY*)(((uint16_t)pBDT
      +                          EntryEP0OutNext) ^ 0x0004);
  8509  00346E  0E04               	movlw	4
  8510  003470  181B               	xorwf	_pBDTEntryEP0OutNext^0,w,c
  8511  003472  6E1B               	movwf	_pBDTEntryEP0OutNext^0,c
  8512  003474  501C               	movf	(_pBDTEntryEP0OutNext+1)^0,w,c
  8513  003476  6E1C               	movwf	(_pBDTEntryEP0OutNext+1)^0,c
  8514  003478                     
  8515                           ; BSR set to: 0
  8516                           ;usb_device.c: 2405:         if(pBDTEntryEP0OutCurrent->STAT.PID == 0xD)
  8517  003478  C01D  FFD9         	movff	_pBDTEntryEP0OutCurrent,fsr2l
  8518  00347C  C01E  FFDA         	movff	_pBDTEntryEP0OutCurrent+1,fsr2h
  8519  003480  30DF               	rrcf	indf2,w,c
  8520  003482  32E8               	rrcf	wreg,f,c
  8521  003484  0B0F               	andlw	15
  8522  003486  0A0D               	xorlw	13
  8523  003488  A4D8               	btfss	status,2,c
  8524  00348A  EF49  F01A         	goto	i2u448_41
  8525  00348E  EF4B  F01A         	goto	i2u448_40
  8526  003492                     i2u448_41:
  8527  003492  EF63  F01A         	goto	i2l5318
  8528  003496                     i2u448_40:
  8529  003496                     
  8530                           ; BSR set to: 0
  8531                           ;usb_device.c: 2406:         {;usb_device.c: 2411:             memcpy((uint8_t*)&SetupPk
      +                          t, (uint8_t*)((void *)(pBDTEntryEP0OutCurrent->ADR)), 8);
  8532  003496  0E30               	movlw	48
  8533  003498  6E2B               	movwf	i2memcpy@d1^0,c
  8534  00349A  0E04               	movlw	4
  8535  00349C  6E2C               	movwf	(i2memcpy@d1+1)^0,c
  8536  00349E  EE20 F002          	lfsr	2,2
  8537  0034A2  501D               	movf	_pBDTEntryEP0OutCurrent^0,w,c
  8538  0034A4  26D9               	addwf	fsr2l,f,c
  8539  0034A6  501E               	movf	(_pBDTEntryEP0OutCurrent+1)^0,w,c
  8540  0034A8  22DA               	addwfc	fsr2h,f,c
  8541  0034AA  CFDE F02D          	movff	postinc2,i2memcpy@s1
  8542  0034AE  CFDD F02E          	movff	postdec2,i2memcpy@s1+1
  8543  0034B2  0E00               	movlw	0
  8544  0034B4  6E30               	movwf	(i2memcpy@n+1)^0,c
  8545  0034B6  0E08               	movlw	8
  8546  0034B8  6E2F               	movwf	i2memcpy@n^0,c
  8547  0034BA  ECFF  F01E         	call	i2_memcpy	;wreg free
  8548  0034BE                     
  8549                           ;usb_device.c: 2414:             USBCtrlTrfSetupHandler();
  8550  0034BE  EC19  F01C         	call	i2_USBCtrlTrfSetupHandler	;wreg free
  8551                           
  8552                           ;usb_device.c: 2415:         }
  8553  0034C2  EF73  F01A         	goto	i2l421
  8554  0034C6                     i2l5318:
  8555                           
  8556                           ; BSR set to: 0
  8557                           ;usb_device.c: 2417:         {;usb_device.c: 2419:             USBCtrlTrfOutHandler();
  8558  0034C6  EC24  F01D         	call	i2_USBCtrlTrfOutHandler	;wreg free
  8559  0034CA  EF73  F01A         	goto	i2l421
  8560  0034CE                     i2l5320:
  8561                           
  8562                           ; BSR set to: 0
  8563  0034CE  51DD               	movf	_USTATcopy& (0+255),w,b	;volatile
  8564  0034D0  0BFD               	andlw	253
  8565  0034D2  0A04               	xorlw	4
  8566  0034D4  A4D8               	btfss	status,2,c
  8567  0034D6  EF6F  F01A         	goto	i2u449_41
  8568  0034DA  EF71  F01A         	goto	i2u449_40
  8569  0034DE                     i2u449_41:
  8570  0034DE  EF73  F01A         	goto	i2l421
  8571  0034E2                     i2u449_40:
  8572  0034E2                     
  8573                           ; BSR set to: 0
  8574                           ;usb_device.c: 2423:     {;usb_device.c: 2426:         USBCtrlTrfInHandler();
  8575  0034E2  EC59  F016         	call	i2_USBCtrlTrfInHandler	;wreg free
  8576  0034E6                     i2l421:
  8577  0034E6  0012               	return		;funcret
  8578  0034E8                     __end_ofi2_USBCtrlEPService:
  8579                           	opt callstack 0
  8580                           
  8581 ;; *************** function i2_memcpy *****************
  8582 ;; Defined at:
  8583 ;;		line 4 in file "C:\Program Files (x86)\Microchip\xc8\v2.10\pic\sources\c99\common\memcpy.c"
  8584 ;; Parameters:    Size  Location     Type
  8585 ;;  d1              2    0[COMRAM] PTR void 
  8586 ;;		 -> SetupPkt(8), 
  8587 ;;  s1              2    2[COMRAM] PTR const void 
  8588 ;;		 -> CtrlTrfData(32), RAM(2047), SetupPkt(8), 
  8589 ;;  n               2    4[COMRAM] unsigned int 
  8590 ;; Auto vars:     Size  Location     Type
  8591 ;;  memcpy          2    8[COMRAM] PTR const unsigned char 
  8592 ;;		 -> CtrlTrfData(32), RAM(2047), SetupPkt(8), 
  8593 ;;  memcpy          2    6[COMRAM] PTR unsigned char 
  8594 ;;		 -> SetupPkt(8), 
  8595 ;;  memcpy          1   10[COMRAM] unsigned char 
  8596 ;; Return value:  Size  Location     Type
  8597 ;;                  2    0[COMRAM] PTR void 
  8598 ;; Registers used:
  8599 ;;		wreg, fsr2l, fsr2h, status,2, status,0
  8600 ;; Tracked objects:
  8601 ;;		On entry : 0/0
  8602 ;;		On exit  : 0/0
  8603 ;;		Unchanged: 0/0
  8604 ;; Data sizes:     COMRAM   BANK0   BANK1   BANK2   BANK3  BANK4h  BANK4l   BANK5   BANK6   BANK7
  8605 ;;      Params:         6       0       0       0       0       0       0       0       0       0
  8606 ;;      Locals:         5       0       0       0       0       0       0       0       0       0
  8607 ;;      Temps:          0       0       0       0       0       0       0       0       0       0
  8608 ;;      Totals:        11       0       0       0       0       0       0       0       0       0
  8609 ;;Total ram usage:       11 bytes
  8610 ;; Hardware stack levels used:    1
  8611 ;; This function calls:
  8612 ;;		Nothing
  8613 ;; This function is called by:
  8614 ;;		i2_USBCtrlEPService
  8615 ;; This function uses a non-reentrant model
  8616 ;;
  8617                           
  8618                           	psect	text45
  8619  003DFE                     __ptext45:
  8620                           	opt callstack 0
  8621  003DFE                     i2_memcpy:
  8622                           	opt callstack 17
  8623  003DFE  C02D  F033         	movff	i2memcpy@s1,i2memcpy@s
  8624  003E02  C02E  F034         	movff	i2memcpy@s1+1,i2memcpy@s+1
  8625  003E06  C02B  F031         	movff	i2memcpy@d1,i2memcpy@d
  8626  003E0A  C02C  F032         	movff	i2memcpy@d1+1,i2memcpy@d+1
  8627  003E0E  EF19  F01F         	goto	i2l5094
  8628  003E12                     i2l5086:
  8629  003E12  C033  FFD9         	movff	i2memcpy@s,fsr2l
  8630  003E16  C034  FFDA         	movff	i2memcpy@s+1,fsr2h
  8631  003E1A  50DF               	movf	indf2,w,c
  8632  003E1C  6E35               	movwf	i2memcpy@tmp^0,c
  8633  003E1E  4A33               	infsnz	i2memcpy@s^0,f,c
  8634  003E20  2A34               	incf	(i2memcpy@s+1)^0,f,c
  8635  003E22  C031  FFD9         	movff	i2memcpy@d,fsr2l
  8636  003E26  C032  FFDA         	movff	i2memcpy@d+1,fsr2h
  8637  003E2A  C035  FFDF         	movff	i2memcpy@tmp,indf2
  8638  003E2E  4A31               	infsnz	i2memcpy@d^0,f,c
  8639  003E30  2A32               	incf	(i2memcpy@d+1)^0,f,c
  8640  003E32                     i2l5094:
  8641  003E32  062F               	decf	i2memcpy@n^0,f,c
  8642  003E34  A0D8               	btfss	status,0,c
  8643  003E36  0630               	decf	(i2memcpy@n+1)^0,f,c
  8644  003E38  282F               	incf	i2memcpy@n^0,w,c
  8645  003E3A  E106               	bnz	i2u430_41
  8646  003E3C  2830               	incf	(i2memcpy@n+1)^0,w,c
  8647  003E3E  A4D8               	btfss	status,2,c
  8648  003E40  EF24  F01F         	goto	i2u430_41
  8649  003E44  EF26  F01F         	goto	i2u430_40
  8650  003E48                     i2u430_41:
  8651  003E48  EF09  F01F         	goto	i2l5086
  8652  003E4C                     i2u430_40:
  8653  003E4C  0012               	return		;funcret
  8654  003E4E                     __end_ofi2_memcpy:
  8655                           	opt callstack 0
  8656                           
  8657 ;; *************** function i2_USBCtrlTrfSetupHandler *****************
  8658 ;; Defined at:
  8659 ;;		line 2471 in file "usb_device.c"
  8660 ;; Parameters:    Size  Location     Type
  8661 ;;		None
  8662 ;; Auto vars:     Size  Location     Type
  8663 ;;		None
  8664 ;; Return value:  Size  Location     Type
  8665 ;;                  1    wreg      void 
  8666 ;; Registers used:
  8667 ;;		wreg, fsr1l, fsr1h, fsr2l, fsr2h, status,2, status,0, tblptrl, tblptrh, tblptru, prodl, prodh, cstack
  8668 ;; Tracked objects:
  8669 ;;		On entry : 0/0
  8670 ;;		On exit  : 0/0
  8671 ;;		Unchanged: 0/0
  8672 ;; Data sizes:     COMRAM   BANK0   BANK1   BANK2   BANK3  BANK4h  BANK4l   BANK5   BANK6   BANK7
  8673 ;;      Params:         0       0       0       0       0       0       0       0       0       0
  8674 ;;      Locals:         0       0       0       0       0       0       0       0       0       0
  8675 ;;      Temps:          0       0       0       0       0       0       0       0       0       0
  8676 ;;      Totals:         0       0       0       0       0       0       0       0       0       0
  8677 ;;Total ram usage:        0 bytes
  8678 ;; Hardware stack levels used:    1
  8679 ;; Hardware stack levels required when called:    6
  8680 ;; This function calls:
  8681 ;;		i2_USBCheckStdRequest
  8682 ;;		i2_USBCtrlEPServiceComplete
  8683 ;;		i2_USER_USB_CALLBACK_EVENT_HANDLER
  8684 ;; This function is called by:
  8685 ;;		i2_USBCtrlEPService
  8686 ;; This function uses a non-reentrant model
  8687 ;;
  8688                           
  8689                           	psect	text46
  8690  003832                     __ptext46:
  8691                           	opt callstack 0
  8692  003832                     i2_USBCtrlTrfSetupHandler:
  8693                           	opt callstack 11
  8694  003832                     
  8695                           ;usb_device.c: 2476:     shortPacketStatus = 0;
  8696  003832  0E00               	movlw	0
  8697  003834  6E28               	movwf	_shortPacketStatus^0,c	;volatile
  8698                           
  8699                           ;usb_device.c: 2477:     USBDeferStatusStagePacket = 0;
  8700  003836  0E00               	movlw	0
  8701  003838  6E23               	movwf	_USBDeferStatusStagePacket^0,c	;volatile
  8702                           
  8703                           ;usb_device.c: 2478:     USBDeferINDataStagePackets = 0;
  8704  00383A  0E00               	movlw	0
  8705  00383C  6E20               	movwf	_USBDeferINDataStagePackets^0,c	;volatile
  8706                           
  8707                           ;usb_device.c: 2479:     USBDeferOUTDataStagePackets = 0;
  8708  00383E  0E00               	movlw	0
  8709  003840  0100               	movlb	0	; () banked
  8710  003842  6FC9               	movwf	_USBDeferOUTDataStagePackets& (0+255),b	;volatile
  8711                           
  8712                           ;usb_device.c: 2480:     BothEP0OutUOWNsSet = 0;
  8713  003844  0E00               	movlw	0
  8714  003846  6E24               	movwf	_BothEP0OutUOWNsSet^0,c	;volatile
  8715                           
  8716                           ;usb_device.c: 2481:     controlTransferState = 0;
  8717  003848  0E00               	movlw	0
  8718  00384A  6E27               	movwf	_controlTransferState^0,c	;volatile
  8719  00384C                     
  8720                           ; BSR set to: 0
  8721                           ;usb_device.c: 2490:     pBDTEntryIn[0]->STAT.Val &= ~(0x80);
  8722  00384C  C00F  FFD9         	movff	_pBDTEntryIn,fsr2l
  8723  003850  C010  FFDA         	movff	_pBDTEntryIn+1,fsr2h
  8724  003854  0E7F               	movlw	127
  8725  003856  16DF               	andwf	indf2,f,c
  8726  003858                     
  8727                           ; BSR set to: 0
  8728                           ;usb_device.c: 2492:     pBDTEntryIn[0] = (volatile BDT_ENTRY*)(((uint16_t)pBDTEntryIn[0
      +                          ]) ^ 0x0004);
  8729  003858  0E04               	movlw	4
  8730  00385A  180F               	xorwf	_pBDTEntryIn^0,w,c
  8731  00385C  6E0F               	movwf	_pBDTEntryIn^0,c
  8732  00385E  5010               	movf	(_pBDTEntryIn+1)^0,w,c
  8733  003860  6E10               	movwf	(_pBDTEntryIn+1)^0,c
  8734  003862                     
  8735                           ; BSR set to: 0
  8736                           ;usb_device.c: 2493:     pBDTEntryIn[0]->STAT.Val &= ~(0x80);
  8737  003862  C00F  FFD9         	movff	_pBDTEntryIn,fsr2l
  8738  003866  C010  FFDA         	movff	_pBDTEntryIn+1,fsr2h
  8739  00386A  0E7F               	movlw	127
  8740  00386C  16DF               	andwf	indf2,f,c
  8741  00386E                     
  8742                           ; BSR set to: 0
  8743                           ;usb_device.c: 2494:     pBDTEntryIn[0] = (volatile BDT_ENTRY*)(((uint16_t)pBDTEntryIn[0
      +                          ]) ^ 0x0004);
  8744  00386E  0E04               	movlw	4
  8745  003870  180F               	xorwf	_pBDTEntryIn^0,w,c
  8746  003872  6E0F               	movwf	_pBDTEntryIn^0,c
  8747  003874  5010               	movf	(_pBDTEntryIn+1)^0,w,c
  8748  003876  6E10               	movwf	(_pBDTEntryIn+1)^0,c
  8749  003878                     
  8750                           ; BSR set to: 0
  8751                           ;usb_device.c: 2495:     pBDTEntryEP0OutNext->STAT.Val &= ~(0x80);
  8752  003878  C01B  FFD9         	movff	_pBDTEntryEP0OutNext,fsr2l
  8753  00387C  C01C  FFDA         	movff	_pBDTEntryEP0OutNext+1,fsr2h
  8754  003880  0E7F               	movlw	127
  8755  003882  16DF               	andwf	indf2,f,c
  8756  003884                     
  8757                           ; BSR set to: 0
  8758                           ;usb_device.c: 2497:     inPipes[0].info.Val = 0;
  8759  003884  0E00               	movlw	0
  8760  003886  6E0C               	movwf	(_inPipes+3)^0,c	;volatile
  8761  003888                     
  8762                           ; BSR set to: 0
  8763                           ;usb_device.c: 2498:     inPipes[0].wCount.Val = 0;
  8764  003888  0E00               	movlw	0
  8765  00388A  6E0E               	movwf	(_inPipes+5)^0,c	;volatile
  8766  00388C  0E00               	movlw	0
  8767  00388E  6E0D               	movwf	(_inPipes+4)^0,c	;volatile
  8768  003890                     
  8769                           ; BSR set to: 0
  8770                           ;usb_device.c: 2499:     outPipes[0].info.Val = 0;
  8771  003890  0E00               	movlw	0
  8772  003892  6E04               	movwf	(_outPipes+3)^0,c	;volatile
  8773  003894                     
  8774                           ; BSR set to: 0
  8775                           ;usb_device.c: 2500:     outPipes[0].wCount.Val = 0;
  8776  003894  0E00               	movlw	0
  8777  003896  6E06               	movwf	(_outPipes+5)^0,c	;volatile
  8778  003898  0E00               	movlw	0
  8779  00389A  6E05               	movwf	(_outPipes+4)^0,c	;volatile
  8780  00389C                     
  8781                           ; BSR set to: 0
  8782                           ;usb_device.c: 2506:     USBCheckStdRequest();
  8783  00389C  EC2E  F013         	call	i2_USBCheckStdRequest	;wreg free
  8784  0038A0                     
  8785                           ;usb_device.c: 2507:     USER_USB_CALLBACK_EVENT_HANDLER((USB_EVENT)EVENT_EP0_REQUEST,0,
      +                          0);
  8786  0038A0  0E00               	movlw	0
  8787  0038A2  6E38               	movwf	(i2USER_USB_CALLBACK_EVENT_HANDLER@event+1)^0,c
  8788  0038A4  0E03               	movlw	3
  8789  0038A6  6E37               	movwf	i2USER_USB_CALLBACK_EVENT_HANDLER@event^0,c
  8790  0038A8  0E00               	movlw	0
  8791  0038AA  6E39               	movwf	i2USER_USB_CALLBACK_EVENT_HANDLER@pdata^0,c
  8792  0038AC  0E00               	movlw	0
  8793  0038AE  6E3A               	movwf	(i2USER_USB_CALLBACK_EVENT_HANDLER@pdata+1)^0,c
  8794  0038B0  0E00               	movlw	0
  8795  0038B2  6E3C               	movwf	(i2USER_USB_CALLBACK_EVENT_HANDLER@size+1)^0,c
  8796  0038B4  0E00               	movlw	0
  8797  0038B6  6E3B               	movwf	i2USER_USB_CALLBACK_EVENT_HANDLER@size^0,c
  8798  0038B8  ECA6  F01C         	call	i2_USER_USB_CALLBACK_EVENT_HANDLER	;wreg free
  8799  0038BC                     
  8800                           ;usb_device.c: 2520:     USBCtrlEPServiceComplete();
  8801  0038BC  ECBB  F010         	call	i2_USBCtrlEPServiceComplete	;wreg free
  8802  0038C0  0012               	return		;funcret
  8803  0038C2                     __end_ofi2_USBCtrlTrfSetupHandler:
  8804                           	opt callstack 0
  8805                           
  8806 ;; *************** function i2_USBCtrlEPServiceComplete *****************
  8807 ;; Defined at:
  8808 ;;		line 1622 in file "usb_device.c"
  8809 ;; Parameters:    Size  Location     Type
  8810 ;;		None
  8811 ;; Auto vars:     Size  Location     Type
  8812 ;;		None
  8813 ;; Return value:  Size  Location     Type
  8814 ;;                  1    wreg      void 
  8815 ;; Registers used:
  8816 ;;		wreg, fsr1l, fsr1h, fsr2l, fsr2h, status,2, status,0, tblptrl, tblptrh, tblptru, cstack
  8817 ;; Tracked objects:
  8818 ;;		On entry : 0/0
  8819 ;;		On exit  : 0/0
  8820 ;;		Unchanged: 0/0
  8821 ;; Data sizes:     COMRAM   BANK0   BANK1   BANK2   BANK3  BANK4h  BANK4l   BANK5   BANK6   BANK7
  8822 ;;      Params:         0       0       0       0       0       0       0       0       0       0
  8823 ;;      Locals:         0       0       0       0       0       0       0       0       0       0
  8824 ;;      Temps:          0       0       0       0       0       0       0       0       0       0
  8825 ;;      Totals:         0       0       0       0       0       0       0       0       0       0
  8826 ;;Total ram usage:        0 bytes
  8827 ;; Hardware stack levels used:    1
  8828 ;; Hardware stack levels required when called:    2
  8829 ;; This function calls:
  8830 ;;		i2_USBCtrlEPAllowDataStage
  8831 ;;		i2_USBCtrlEPAllowStatusStage
  8832 ;; This function is called by:
  8833 ;;		i2_USBCtrlTrfSetupHandler
  8834 ;; This function uses a non-reentrant model
  8835 ;;
  8836                           
  8837                           	psect	text47
  8838  002176                     __ptext47:
  8839                           	opt callstack 0
  8840  002176                     i2_USBCtrlEPServiceComplete:
  8841                           	opt callstack 14
  8842  002176                     
  8843                           ;usb_device.c: 1628:     UCONbits.PKTDIS = 0;
  8844  002176  986D               	bcf	109,4,c	;volatile
  8845                           
  8846                           ;usb_device.c: 1634:     if(inPipes[0].info.bits.busy == 0)
  8847  002178  BE0C               	btfsc	(_inPipes+3)^0,7,c	;volatile
  8848  00217A  EFC1  F010         	goto	i2u396_41
  8849  00217E  EFC3  F010         	goto	i2u396_40
  8850  002182                     i2u396_41:
  8851  002182  EF09  F011         	goto	i2l326
  8852  002186                     i2u396_40:
  8853  002186                     
  8854                           ;usb_device.c: 1635:     {;usb_device.c: 1636:         if(outPipes[0].info.bits.busy == 
      +                          1)
  8855  002186  AE04               	btfss	(_outPipes+3)^0,7,c	;volatile
  8856  002188  EFC8  F010         	goto	i2u397_41
  8857  00218C  EFCA  F010         	goto	i2u397_40
  8858  002190                     i2u397_41:
  8859  002190  EFDD  F010         	goto	i2l4740
  8860  002194                     i2u397_40:
  8861  002194                     
  8862                           ;usb_device.c: 1637:         {;usb_device.c: 1638:             controlTransferState = 2;
  8863  002194  0E02               	movlw	2
  8864  002196  6E27               	movwf	_controlTransferState^0,c	;volatile
  8865                           
  8866                           ;usb_device.c: 1649:             if(USBDeferOUTDataStagePackets == 0)
  8867  002198  0100               	movlb	0	; () banked
  8868  00219A  51C9               	movf	_USBDeferOUTDataStagePackets& (0+255),w,b	;volatile
  8869  00219C  A4D8               	btfss	status,2,c
  8870  00219E  EFD3  F010         	goto	i2u398_41
  8871  0021A2  EFD5  F010         	goto	i2u398_40
  8872  0021A6                     i2u398_41:
  8873  0021A6  EFD7  F010         	goto	i2l4736
  8874  0021AA                     i2u398_40:
  8875  0021AA                     
  8876                           ; BSR set to: 0
  8877                           ;usb_device.c: 1650:             {;usb_device.c: 1651:                 USBCtrlEPAllowDat
      +                          aStage();
  8878  0021AA  EC23  F01B         	call	i2_USBCtrlEPAllowDataStage	;wreg free
  8879  0021AE                     i2l4736:
  8880                           
  8881                           ;usb_device.c: 1656:             USBStatusStageEnabledFlag2 = 0;
  8882  0021AE  0E00               	movlw	0
  8883  0021B0  6E21               	movwf	_USBStatusStageEnabledFlag2^0,c	;volatile
  8884  0021B2                     
  8885                           ;usb_device.c: 1657:             USBStatusStageEnabledFlag1 = 0;
  8886  0021B2  0E00               	movlw	0
  8887  0021B4  6E22               	movwf	_USBStatusStageEnabledFlag1^0,c	;volatile
  8888                           
  8889                           ;usb_device.c: 1658:         }
  8890  0021B6  EF5B  F011         	goto	i2l336
  8891  0021BA                     i2l4740:
  8892                           
  8893                           ;usb_device.c: 1660:         {;usb_device.c: 1665:             pBDTEntryEP0OutNext->CNT 
      +                          = 32;
  8894  0021BA  EE20 F001          	lfsr	2,1
  8895  0021BE  501B               	movf	_pBDTEntryEP0OutNext^0,w,c
  8896  0021C0  26D9               	addwf	fsr2l,f,c
  8897  0021C2  501C               	movf	(_pBDTEntryEP0OutNext+1)^0,w,c
  8898  0021C4  22DA               	addwfc	fsr2h,f,c
  8899  0021C6  0E20               	movlw	32
  8900  0021C8  6EDF               	movwf	indf2,c
  8901                           
  8902                           ;usb_device.c: 1666:             pBDTEntryEP0OutNext->ADR = ((uint16_t)(&SetupPkt));
  8903  0021CA  EE20 F002          	lfsr	2,2
  8904  0021CE  501B               	movf	_pBDTEntryEP0OutNext^0,w,c
  8905  0021D0  26D9               	addwf	fsr2l,f,c
  8906  0021D2  501C               	movf	(_pBDTEntryEP0OutNext+1)^0,w,c
  8907  0021D4  22DA               	addwfc	fsr2h,f,c
  8908  0021D6  0E30               	movlw	48
  8909  0021D8  6EDE               	movwf	postinc2,c
  8910  0021DA  0E04               	movlw	4
  8911  0021DC  6EDD               	movwf	postdec2,c
  8912  0021DE                     
  8913                           ;usb_device.c: 1667:             pBDTEntryEP0OutNext->STAT.Val = 0x00|(0x08 & 0x08)|0x04
      +                          ;
  8914  0021DE  C01B  FFD9         	movff	_pBDTEntryEP0OutNext,fsr2l
  8915  0021E2  C01C  FFDA         	movff	_pBDTEntryEP0OutNext+1,fsr2h
  8916  0021E6  0E0C               	movlw	12
  8917  0021E8  6EDF               	movwf	indf2,c
  8918  0021EA                     
  8919                           ;usb_device.c: 1668:             pBDTEntryEP0OutNext->STAT.Val |= 0x80;
  8920  0021EA  C01B  FFD9         	movff	_pBDTEntryEP0OutNext,fsr2l
  8921  0021EE  C01C  FFDA         	movff	_pBDTEntryEP0OutNext+1,fsr2h
  8922  0021F2  0E00               	movlw	0
  8923  0021F4  8EDB               	bsf	plusw2,7,c
  8924                           
  8925                           ;usb_device.c: 1669:             pBDTEntryIn[0]->STAT.Val = 0x04;
  8926  0021F6  C00F  FFD9         	movff	_pBDTEntryIn,fsr2l
  8927  0021FA  C010  FFDA         	movff	_pBDTEntryIn+1,fsr2h
  8928  0021FE  0E04               	movlw	4
  8929  002200  6EDF               	movwf	indf2,c
  8930  002202                     
  8931                           ;usb_device.c: 1670:             pBDTEntryIn[0]->STAT.Val |= 0x80;
  8932  002202  C00F  FFD9         	movff	_pBDTEntryIn,fsr2l
  8933  002206  C010  FFDA         	movff	_pBDTEntryIn+1,fsr2h
  8934  00220A  0E00               	movlw	0
  8935  00220C  8EDB               	bsf	plusw2,7,c
  8936  00220E  EF5B  F011         	goto	i2l336
  8937  002212                     i2l326:
  8938                           
  8939                           ;usb_device.c: 1674:     {;usb_device.c: 1675:   if(SetupPkt.DataDir == (0x80>>7))
  8940  002212  0104               	movlb	4	; () banked
  8941  002214  AF30               	btfss	48,7,b	;volatile
  8942  002216  EF0F  F011         	goto	i2u399_41
  8943  00221A  EF11  F011         	goto	i2u399_40
  8944  00221E                     i2u399_41:
  8945  00221E  EF2D  F011         	goto	i2l4760
  8946  002222                     i2u399_40:
  8947  002222                     
  8948                           ; BSR set to: 4
  8949                           ;usb_device.c: 1676:   {;usb_device.c: 1677:    controlTransferState = 1;
  8950  002222  0E01               	movlw	1
  8951  002224  6E27               	movwf	_controlTransferState^0,c	;volatile
  8952                           
  8953                           ;usb_device.c: 1691:    if(USBDeferINDataStagePackets == 0)
  8954  002226  5020               	movf	_USBDeferINDataStagePackets^0,w,c	;volatile
  8955  002228  A4D8               	btfss	status,2,c
  8956  00222A  EF19  F011         	goto	i2u400_41
  8957  00222E  EF1B  F011         	goto	i2u400_40
  8958  002232                     i2u400_41:
  8959  002232  EF1D  F011         	goto	i2l4752
  8960  002236                     i2u400_40:
  8961  002236                     
  8962                           ; BSR set to: 4
  8963                           ;usb_device.c: 1692:             {;usb_device.c: 1693:                 USBCtrlEPAllowDat
      +                          aStage();
  8964  002236  EC23  F01B         	call	i2_USBCtrlEPAllowDataStage	;wreg free
  8965  00223A                     i2l4752:
  8966                           
  8967                           ;usb_device.c: 1716:             USBStatusStageEnabledFlag2 = 0;
  8968  00223A  0E00               	movlw	0
  8969  00223C  6E21               	movwf	_USBStatusStageEnabledFlag2^0,c	;volatile
  8970  00223E                     
  8971                           ;usb_device.c: 1717:             USBStatusStageEnabledFlag1 = 0;
  8972  00223E  0E00               	movlw	0
  8973  002240  6E22               	movwf	_USBStatusStageEnabledFlag1^0,c	;volatile
  8974  002242                     
  8975                           ;usb_device.c: 1718:             if(USBDeferStatusStagePacket == 0)
  8976  002242  5023               	movf	_USBDeferStatusStagePacket^0,w,c	;volatile
  8977  002244  A4D8               	btfss	status,2,c
  8978  002246  EF27  F011         	goto	i2u401_41
  8979  00224A  EF29  F011         	goto	i2u401_40
  8980  00224E                     i2u401_41:
  8981  00224E  EF5B  F011         	goto	i2l336
  8982  002252                     i2u401_40:
  8983  002252                     i2l4758:
  8984                           
  8985                           ;usb_device.c: 1719:             {;usb_device.c: 1720:                 USBCtrlEPAllowSta
      +                          tusStage();
  8986  002252  EC55  F018         	call	i2_USBCtrlEPAllowStatusStage	;wreg free
  8987  002256  EF5B  F011         	goto	i2l336
  8988  00225A                     i2l4760:
  8989                           
  8990                           ; BSR set to: 4
  8991                           ;usb_device.c: 1724:   {;usb_device.c: 1735:    controlTransferState = 2;
  8992  00225A  0E02               	movlw	2
  8993  00225C  6E27               	movwf	_controlTransferState^0,c	;volatile
  8994  00225E                     
  8995                           ; BSR set to: 4
  8996                           ;usb_device.c: 1738:    pBDTEntryEP0OutNext->CNT = 32;
  8997  00225E  EE20 F001          	lfsr	2,1
  8998  002262  501B               	movf	_pBDTEntryEP0OutNext^0,w,c
  8999  002264  26D9               	addwf	fsr2l,f,c
  9000  002266  501C               	movf	(_pBDTEntryEP0OutNext+1)^0,w,c
  9001  002268  22DA               	addwfc	fsr2h,f,c
  9002  00226A  0E20               	movlw	32
  9003  00226C  6EDF               	movwf	indf2,c
  9004  00226E                     
  9005                           ; BSR set to: 4
  9006                           ;usb_device.c: 1739:    pBDTEntryEP0OutNext->ADR = ((uint16_t)(&SetupPkt));
  9007  00226E  EE20 F002          	lfsr	2,2
  9008  002272  501B               	movf	_pBDTEntryEP0OutNext^0,w,c
  9009  002274  26D9               	addwf	fsr2l,f,c
  9010  002276  501C               	movf	(_pBDTEntryEP0OutNext+1)^0,w,c
  9011  002278  22DA               	addwfc	fsr2h,f,c
  9012  00227A  0E30               	movlw	48
  9013  00227C  6EDE               	movwf	postinc2,c
  9014  00227E  0E04               	movlw	4
  9015  002280  6EDD               	movwf	postdec2,c
  9016  002282                     
  9017                           ; BSR set to: 4
  9018                           ;usb_device.c: 1740:    pBDTEntryEP0OutNext->STAT.Val = 0x04;
  9019  002282  C01B  FFD9         	movff	_pBDTEntryEP0OutNext,fsr2l
  9020  002286  C01C  FFDA         	movff	_pBDTEntryEP0OutNext+1,fsr2h
  9021  00228A  0E04               	movlw	4
  9022  00228C  6EDF               	movwf	indf2,c
  9023  00228E                     
  9024                           ; BSR set to: 4
  9025                           ;usb_device.c: 1741:             pBDTEntryEP0OutNext->STAT.Val |= 0x80;
  9026  00228E  C01B  FFD9         	movff	_pBDTEntryEP0OutNext,fsr2l
  9027  002292  C01C  FFDA         	movff	_pBDTEntryEP0OutNext+1,fsr2h
  9028  002296  0E00               	movlw	0
  9029  002298  8EDB               	bsf	plusw2,7,c
  9030  00229A                     
  9031                           ; BSR set to: 4
  9032                           ;usb_device.c: 1744:             USBStatusStageEnabledFlag2 = 0;
  9033  00229A  0E00               	movlw	0
  9034  00229C  6E21               	movwf	_USBStatusStageEnabledFlag2^0,c	;volatile
  9035  00229E                     
  9036                           ; BSR set to: 4
  9037                           ;usb_device.c: 1745:             USBStatusStageEnabledFlag1 = 0;
  9038  00229E  0E00               	movlw	0
  9039  0022A0  6E22               	movwf	_USBStatusStageEnabledFlag1^0,c	;volatile
  9040  0022A2                     
  9041                           ; BSR set to: 4
  9042                           ;usb_device.c: 1746:    if(USBDeferStatusStagePacket == 0)
  9043  0022A2  5023               	movf	_USBDeferStatusStagePacket^0,w,c	;volatile
  9044  0022A4  A4D8               	btfss	status,2,c
  9045  0022A6  EF57  F011         	goto	i2u402_41
  9046  0022AA  EF59  F011         	goto	i2u402_40
  9047  0022AE                     i2u402_41:
  9048  0022AE  EF5B  F011         	goto	i2l336
  9049  0022B2                     i2u402_40:
  9050  0022B2  EF29  F011         	goto	i2l4758
  9051  0022B6                     i2l336:
  9052  0022B6  0012               	return		;funcret
  9053  0022B8                     __end_ofi2_USBCtrlEPServiceComplete:
  9054                           	opt callstack 0
  9055                           
  9056 ;; *************** function i2_USBCtrlEPAllowDataStage *****************
  9057 ;; Defined at:
  9058 ;;		line 1494 in file "usb_device.c"
  9059 ;; Parameters:    Size  Location     Type
  9060 ;;		None
  9061 ;; Auto vars:     Size  Location     Type
  9062 ;;		None
  9063 ;; Return value:  Size  Location     Type
  9064 ;;                  1    wreg      void 
  9065 ;; Registers used:
  9066 ;;		wreg, fsr1l, fsr1h, fsr2l, fsr2h, status,2, status,0, tblptrl, tblptrh, tblptru, cstack
  9067 ;; Tracked objects:
  9068 ;;		On entry : 0/0
  9069 ;;		On exit  : 0/0
  9070 ;;		Unchanged: 0/0
  9071 ;; Data sizes:     COMRAM   BANK0   BANK1   BANK2   BANK3  BANK4h  BANK4l   BANK5   BANK6   BANK7
  9072 ;;      Params:         0       0       0       0       0       0       0       0       0       0
  9073 ;;      Locals:         0       0       0       0       0       0       0       0       0       0
  9074 ;;      Temps:          0       0       0       0       0       0       0       0       0       0
  9075 ;;      Totals:         0       0       0       0       0       0       0       0       0       0
  9076 ;;Total ram usage:        0 bytes
  9077 ;; Hardware stack levels used:    1
  9078 ;; Hardware stack levels required when called:    1
  9079 ;; This function calls:
  9080 ;;		i2_USBCtrlTrfTxService
  9081 ;; This function is called by:
  9082 ;;		i2_USBCtrlEPServiceComplete
  9083 ;; This function uses a non-reentrant model
  9084 ;;
  9085                           
  9086                           	psect	text48
  9087  003646                     __ptext48:
  9088                           	opt callstack 0
  9089  003646                     i2_USBCtrlEPAllowDataStage:
  9090                           	opt callstack 14
  9091  003646                     
  9092                           ;usb_device.c: 1496:     USBDeferINDataStagePackets = 0;
  9093  003646  0E00               	movlw	0
  9094  003648  6E20               	movwf	_USBDeferINDataStagePackets^0,c	;volatile
  9095                           
  9096                           ;usb_device.c: 1497:     USBDeferOUTDataStagePackets = 0;
  9097  00364A  0E00               	movlw	0
  9098  00364C  0100               	movlb	0	; () banked
  9099  00364E  6FC9               	movwf	_USBDeferOUTDataStagePackets& (0+255),b	;volatile
  9100  003650                     
  9101                           ; BSR set to: 0
  9102                           ;usb_device.c: 1499:     if(controlTransferState == 2)
  9103  003650  0E02               	movlw	2
  9104  003652  1827               	xorwf	_controlTransferState^0,w,c	;volatile
  9105  003654  A4D8               	btfss	status,2,c
  9106  003656  EF2F  F01B         	goto	i2u326_41
  9107  00365A  EF31  F01B         	goto	i2u326_40
  9108  00365E                     i2u326_41:
  9109  00365E  EF51  F01B         	goto	i2l4272
  9110  003662                     i2u326_40:
  9111  003662                     
  9112                           ; BSR set to: 0
  9113                           ;usb_device.c: 1500:     {;usb_device.c: 1502:         pBDTEntryEP0OutNext->CNT = 32;
  9114  003662  EE20 F001          	lfsr	2,1
  9115  003666  501B               	movf	_pBDTEntryEP0OutNext^0,w,c
  9116  003668  26D9               	addwf	fsr2l,f,c
  9117  00366A  501C               	movf	(_pBDTEntryEP0OutNext+1)^0,w,c
  9118  00366C  22DA               	addwfc	fsr2h,f,c
  9119  00366E  0E20               	movlw	32
  9120  003670  6EDF               	movwf	indf2,c
  9121                           
  9122                           ;usb_device.c: 1503:         pBDTEntryEP0OutNext->ADR = ((uint16_t)(&CtrlTrfData));
  9123  003672  EE20 F002          	lfsr	2,2
  9124  003676  501B               	movf	_pBDTEntryEP0OutNext^0,w,c
  9125  003678  26D9               	addwf	fsr2l,f,c
  9126  00367A  501C               	movf	(_pBDTEntryEP0OutNext+1)^0,w,c
  9127  00367C  22DA               	addwfc	fsr2h,f,c
  9128  00367E  0E50               	movlw	80
  9129  003680  6EDE               	movwf	postinc2,c
  9130  003682  0E04               	movlw	4
  9131  003684  6EDD               	movwf	postdec2,c
  9132  003686                     
  9133                           ; BSR set to: 0
  9134                           ;usb_device.c: 1504:         pBDTEntryEP0OutNext->STAT.Val = 0x40|(0x08 & 0x08);
  9135  003686  C01B  FFD9         	movff	_pBDTEntryEP0OutNext,fsr2l
  9136  00368A  C01C  FFDA         	movff	_pBDTEntryEP0OutNext+1,fsr2h
  9137  00368E  0E48               	movlw	72
  9138  003690  6EDF               	movwf	indf2,c
  9139  003692                     
  9140                           ; BSR set to: 0
  9141                           ;usb_device.c: 1505:         pBDTEntryEP0OutNext->STAT.Val |= 0x80;
  9142  003692  C01B  FFD9         	movff	_pBDTEntryEP0OutNext,fsr2l
  9143  003696  C01C  FFDA         	movff	_pBDTEntryEP0OutNext+1,fsr2h
  9144  00369A  0E00               	movlw	0
  9145  00369C  8EDB               	bsf	plusw2,7,c
  9146                           
  9147                           ;usb_device.c: 1506:     }
  9148  00369E  EF79  F01B         	goto	i2l318
  9149  0036A2                     i2l4272:
  9150                           
  9151                           ; BSR set to: 0
  9152                           ;usb_device.c: 1508:     {;usb_device.c: 1511:   if(SetupPkt.wLength < inPipes[0].wCount
      +                          .Val)
  9153  0036A2  500D               	movf	(_inPipes+4)^0,w,c	;volatile
  9154  0036A4  0104               	movlb	4	; () banked
  9155  0036A6  5D36               	subwf	54,w,b	;volatile
  9156  0036A8  500E               	movf	(_inPipes+5)^0,w,c	;volatile
  9157  0036AA  5937               	subwfb	55,w,b	;volatile
  9158  0036AC  B0D8               	btfsc	status,0,c
  9159  0036AE  EF5B  F01B         	goto	i2u327_41
  9160  0036B2  EF5D  F01B         	goto	i2u327_40
  9161  0036B6                     i2u327_41:
  9162  0036B6  EF61  F01B         	goto	i2l4276
  9163  0036BA                     i2u327_40:
  9164  0036BA                     
  9165                           ; BSR set to: 4
  9166                           ;usb_device.c: 1512:   {;usb_device.c: 1513:    inPipes[0].wCount.Val = SetupPkt.wLength
      +                          ;
  9167  0036BA  C436 F00D          	movff	1078,_inPipes+4	;volatile
  9168  0036BE  C437 F00E          	movff	1079,_inPipes+5	;volatile
  9169  0036C2                     i2l4276:
  9170                           
  9171                           ; BSR set to: 4
  9172                           ;usb_device.c: 1515:   USBCtrlTrfTxService();
  9173  0036C2  EC44  F014         	call	i2_USBCtrlTrfTxService	;wreg free
  9174  0036C6                     
  9175                           ;usb_device.c: 1520:   pBDTEntryIn[0]->ADR = ((uint16_t)(&CtrlTrfData));
  9176  0036C6  EE20 F002          	lfsr	2,2
  9177  0036CA  500F               	movf	_pBDTEntryIn^0,w,c
  9178  0036CC  26D9               	addwf	fsr2l,f,c
  9179  0036CE  5010               	movf	(_pBDTEntryIn+1)^0,w,c
  9180  0036D0  22DA               	addwfc	fsr2h,f,c
  9181  0036D2  0E50               	movlw	80
  9182  0036D4  6EDE               	movwf	postinc2,c
  9183  0036D6  0E04               	movlw	4
  9184  0036D8  6EDD               	movwf	postdec2,c
  9185  0036DA                     
  9186                           ;usb_device.c: 1521:   pBDTEntryIn[0]->STAT.Val = 0x40|(0x08 & 0x08);
  9187  0036DA  C00F  FFD9         	movff	_pBDTEntryIn,fsr2l
  9188  0036DE  C010  FFDA         	movff	_pBDTEntryIn+1,fsr2h
  9189  0036E2  0E48               	movlw	72
  9190  0036E4  6EDF               	movwf	indf2,c
  9191  0036E6                     
  9192                           ;usb_device.c: 1522:         pBDTEntryIn[0]->STAT.Val |= 0x80;
  9193  0036E6  C00F  FFD9         	movff	_pBDTEntryIn,fsr2l
  9194  0036EA  C010  FFDA         	movff	_pBDTEntryIn+1,fsr2h
  9195  0036EE  0E00               	movlw	0
  9196  0036F0  8EDB               	bsf	plusw2,7,c
  9197  0036F2                     i2l318:
  9198  0036F2  0012               	return		;funcret
  9199  0036F4                     __end_ofi2_USBCtrlEPAllowDataStage:
  9200                           	opt callstack 0
  9201                           
  9202 ;; *************** function i2_USBCheckStdRequest *****************
  9203 ;; Defined at:
  9204 ;;		line 2692 in file "usb_device.c"
  9205 ;; Parameters:    Size  Location     Type
  9206 ;;		None
  9207 ;; Auto vars:     Size  Location     Type
  9208 ;;		None
  9209 ;; Return value:  Size  Location     Type
  9210 ;;                  1    wreg      void 
  9211 ;; Registers used:
  9212 ;;		wreg, fsr1l, fsr1h, fsr2l, fsr2h, status,2, status,0, tblptrl, tblptrh, tblptru, prodl, prodh, cstack
  9213 ;; Tracked objects:
  9214 ;;		On entry : 0/0
  9215 ;;		On exit  : 0/0
  9216 ;;		Unchanged: 0/0
  9217 ;; Data sizes:     COMRAM   BANK0   BANK1   BANK2   BANK3  BANK4h  BANK4l   BANK5   BANK6   BANK7
  9218 ;;      Params:         0       0       0       0       0       0       0       0       0       0
  9219 ;;      Locals:         0       0       0       0       0       0       0       0       0       0
  9220 ;;      Temps:          2       0       0       0       0       0       0       0       0       0
  9221 ;;      Totals:         2       0       0       0       0       0       0       0       0       0
  9222 ;;Total ram usage:        2 bytes
  9223 ;; Hardware stack levels used:    1
  9224 ;; Hardware stack levels required when called:    5
  9225 ;; This function calls:
  9226 ;;		i2_USBStdFeatureReqHandler
  9227 ;;		i2_USBStdGetDscHandler
  9228 ;;		i2_USBStdGetStatusHandler
  9229 ;;		i2_USBStdSetCfgHandler
  9230 ;;		i2_USER_USB_CALLBACK_EVENT_HANDLER
  9231 ;; This function is called by:
  9232 ;;		i2_USBCtrlTrfSetupHandler
  9233 ;; This function uses a non-reentrant model
  9234 ;;
  9235                           
  9236                           	psect	text49
  9237  00265C                     __ptext49:
  9238                           	opt callstack 0
  9239  00265C                     i2_USBCheckStdRequest:
  9240                           	opt callstack 11
  9241  00265C                     
  9242                           ;usb_device.c: 2694:     if(SetupPkt.RequestType != (0x00>>5)) return;
  9243  00265C  0104               	movlb	4	; () banked
  9244  00265E  3930               	swapf	48,w,b	;volatile
  9245  002660  32E8               	rrcf	wreg,f,c
  9246  002662  0B03               	andlw	3
  9247  002664  0900               	iorlw	0
  9248  002666  B4D8               	btfsc	status,2,c
  9249  002668  EF38  F013         	goto	i2u408_41
  9250  00266C  EF3A  F013         	goto	i2u408_40
  9251  002670                     i2u408_41:
  9252  002670  EF82  F013         	goto	i2l4858
  9253  002674                     i2u408_40:
  9254  002674  EFBB  F013         	goto	i2l449
  9255  002678                     i2l451:
  9256                           
  9257                           ; BSR set to: 4
  9258                           ;usb_device.c: 2699:             inPipes[0].info.bits.busy = 1;
  9259  002678  8E0C               	bsf	(_inPipes+3)^0,7,c	;volatile
  9260  00267A                     
  9261                           ; BSR set to: 4
  9262                           ;usb_device.c: 2700:             USBDeviceState = ADR_PENDING_STATE;
  9263  00267A  0E08               	movlw	8
  9264  00267C  6E29               	movwf	_USBDeviceState^0,c	;volatile
  9265                           
  9266                           ;usb_device.c: 2702:             break;
  9267  00267E  EFBB  F013         	goto	i2l449
  9268  002682                     i2l4828:
  9269                           
  9270                           ; BSR set to: 4
  9271                           ;usb_device.c: 2704:             USBStdGetDscHandler();
  9272  002682  ECDB  F00C         	call	i2_USBStdGetDscHandler	;wreg free
  9273                           
  9274                           ;usb_device.c: 2705:             break;
  9275  002686  EFBB  F013         	goto	i2l449
  9276  00268A                     i2l4830:
  9277                           
  9278                           ; BSR set to: 4
  9279                           ;usb_device.c: 2707:             USBStdSetCfgHandler();
  9280  00268A  EC44  F019         	call	i2_USBStdSetCfgHandler	;wreg free
  9281                           
  9282                           ;usb_device.c: 2708:             break;
  9283  00268E  EFBB  F013         	goto	i2l449
  9284  002692                     i2l4832:
  9285                           
  9286                           ; BSR set to: 4
  9287                           ;usb_device.c: 2710:             inPipes[0].pSrc.bRam = (uint8_t*)&USBActiveConfiguratio
      +                          n;
  9288  002692  0E2A               	movlw	low _USBActiveConfiguration
  9289  002694  6E09               	movwf	_inPipes^0,c	;volatile
  9290  002696  0E00               	movlw	high _USBActiveConfiguration
  9291  002698  6E0A               	movwf	(_inPipes+1)^0,c	;volatile
  9292  00269A                     
  9293                           ; BSR set to: 4
  9294                           ;usb_device.c: 2711:             inPipes[0].info.bits.ctrl_trf_mem = 0x01;
  9295  00269A  800C               	bsf	(_inPipes+3)^0,0,c	;volatile
  9296  00269C                     
  9297                           ; BSR set to: 4
  9298                           ;usb_device.c: 2712:             inPipes[0].wCount.v[0] = 1;
  9299  00269C  0E01               	movlw	1
  9300  00269E  6E0D               	movwf	(_inPipes+4)^0,c	;volatile
  9301  0026A0                     
  9302                           ; BSR set to: 4
  9303                           ;usb_device.c: 2713:             inPipes[0].info.bits.busy = 1;
  9304  0026A0  8E0C               	bsf	(_inPipes+3)^0,7,c	;volatile
  9305                           
  9306                           ;usb_device.c: 2714:             break;
  9307  0026A2  EFBB  F013         	goto	i2l449
  9308  0026A6                     i2l4840:
  9309                           
  9310                           ; BSR set to: 4
  9311                           ;usb_device.c: 2716:             USBStdGetStatusHandler();
  9312  0026A6  ECDB  F016         	call	i2_USBStdGetStatusHandler	;wreg free
  9313                           
  9314                           ;usb_device.c: 2717:             break;
  9315  0026AA  EFBB  F013         	goto	i2l449
  9316  0026AE                     i2l4842:
  9317                           
  9318                           ; BSR set to: 4
  9319                           ;usb_device.c: 2720:             USBStdFeatureReqHandler();
  9320  0026AE  EC10  F006         	call	i2_USBStdFeatureReqHandler	;wreg free
  9321                           
  9322                           ;usb_device.c: 2721:             break;
  9323  0026B2  EFBB  F013         	goto	i2l449
  9324  0026B6                     i2l4844:
  9325                           
  9326                           ; BSR set to: 4
  9327                           ;usb_device.c: 2723:             inPipes[0].pSrc.bRam = (uint8_t*)&USBAlternateInterface
      +                          [SetupPkt.bIntfID];
  9328  0026B6  0EDB               	movlw	low _USBAlternateInterface
  9329  0026B8  2534               	addwf	52,w,b	;volatile
  9330  0026BA  6E09               	movwf	_inPipes^0,c	;volatile
  9331  0026BC  6A0A               	clrf	(_inPipes+1)^0,c	;volatile
  9332  0026BE  0E00               	movlw	high _USBAlternateInterface
  9333  0026C0  220A               	addwfc	(_inPipes+1)^0,f,c	;volatile
  9334  0026C2                     
  9335                           ; BSR set to: 4
  9336                           ;usb_device.c: 2724:             inPipes[0].info.bits.ctrl_trf_mem = 0x01;
  9337  0026C2  800C               	bsf	(_inPipes+3)^0,0,c	;volatile
  9338  0026C4                     
  9339                           ; BSR set to: 4
  9340                           ;usb_device.c: 2725:             inPipes[0].wCount.v[0] = 1;
  9341  0026C4  0E01               	movlw	1
  9342  0026C6  6E0D               	movwf	(_inPipes+4)^0,c	;volatile
  9343  0026C8                     
  9344                           ; BSR set to: 4
  9345                           ;usb_device.c: 2726:             inPipes[0].info.bits.busy = 1;
  9346  0026C8  8E0C               	bsf	(_inPipes+3)^0,7,c	;volatile
  9347                           
  9348                           ;usb_device.c: 2727:             break;
  9349  0026CA  EFBB  F013         	goto	i2l449
  9350  0026CE                     i2l460:
  9351                           
  9352                           ; BSR set to: 4
  9353                           ;usb_device.c: 2729:             inPipes[0].info.bits.busy = 1;
  9354  0026CE  8E0C               	bsf	(_inPipes+3)^0,7,c	;volatile
  9355  0026D0                     
  9356                           ; BSR set to: 4
  9357                           ;usb_device.c: 2730:             USBAlternateInterface[SetupPkt.bIntfID] = SetupPkt.bAlt
      +                          ID;
  9358  0026D0  0EDB               	movlw	low _USBAlternateInterface
  9359  0026D2  2534               	addwf	52,w,b	;volatile
  9360  0026D4  6ED9               	movwf	fsr2l,c
  9361  0026D6  6ADA               	clrf	fsr2h,c
  9362  0026D8  0E00               	movlw	high _USBAlternateInterface
  9363  0026DA  22DA               	addwfc	fsr2h,f,c
  9364  0026DC  C432 FFDF          	movff	1074,indf2	;volatile
  9365                           
  9366                           ;usb_device.c: 2731:             break;
  9367  0026E0  EFBB  F013         	goto	i2l449
  9368  0026E4                     i2l4854:
  9369                           
  9370                           ; BSR set to: 4
  9371                           ;usb_device.c: 2733:             USER_USB_CALLBACK_EVENT_HANDLER((USB_EVENT)EVENT_SET_DE
      +                          SCRIPTOR,0,0);
  9372  0026E4  0E00               	movlw	0
  9373  0026E6  6E38               	movwf	(i2USER_USB_CALLBACK_EVENT_HANDLER@event+1)^0,c
  9374  0026E8  0E02               	movlw	2
  9375  0026EA  6E37               	movwf	i2USER_USB_CALLBACK_EVENT_HANDLER@event^0,c
  9376  0026EC  0E00               	movlw	0
  9377  0026EE  6E39               	movwf	i2USER_USB_CALLBACK_EVENT_HANDLER@pdata^0,c
  9378  0026F0  0E00               	movlw	0
  9379  0026F2  6E3A               	movwf	(i2USER_USB_CALLBACK_EVENT_HANDLER@pdata+1)^0,c
  9380  0026F4  0E00               	movlw	0
  9381  0026F6  6E3C               	movwf	(i2USER_USB_CALLBACK_EVENT_HANDLER@size+1)^0,c
  9382  0026F8  0E00               	movlw	0
  9383  0026FA  6E3B               	movwf	i2USER_USB_CALLBACK_EVENT_HANDLER@size^0,c
  9384  0026FC  ECA6  F01C         	call	i2_USER_USB_CALLBACK_EVENT_HANDLER	;wreg free
  9385                           
  9386                           ;usb_device.c: 2734:             break;
  9387  002700  EFBB  F013         	goto	i2l449
  9388  002704                     i2l4858:
  9389                           
  9390                           ; BSR set to: 4
  9391  002704  5131               	movf	49,w,b	;volatile
  9392  002706  6E46               	movwf	??i2_USBCheckStdRequest^0,c
  9393  002708  6A47               	clrf	(??i2_USBCheckStdRequest+1)^0,c
  9394                           
  9395                           ; Switch on 2 bytes has been partitioned into a top level switch of size 1, and 1 sub-sw
      +                          itches
  9396                           ; Switch size 1, requested type "simple"
  9397                           ; Number of cases is 1, Range of values is 0 to 0
  9398                           ; switch strategies available:
  9399                           ; Name         Instructions Cycles
  9400                           ; simple_byte            4     3 (average)
  9401                           ;	Chosen strategy is simple_byte
  9402  00270A  5047               	movf	(??i2_USBCheckStdRequest+1)^0,w,c
  9403  00270C  0A00               	xorlw	0	; case 0
  9404  00270E  B4D8               	btfsc	status,2,c
  9405  002710  EF8C  F013         	goto	i2l7706
  9406  002714  EFBB  F013         	goto	i2l449
  9407  002718                     i2l7706:
  9408                           
  9409                           ; BSR set to: 4
  9410                           ; Switch size 1, requested type "simple"
  9411                           ; Number of cases is 11, Range of values is 0 to 12
  9412                           ; switch strategies available:
  9413                           ; Name         Instructions Cycles
  9414                           ; simple_byte           34    18 (average)
  9415                           ;	Chosen strategy is simple_byte
  9416  002718  5046               	movf	??i2_USBCheckStdRequest^0,w,c
  9417  00271A  0A00               	xorlw	0	; case 0
  9418  00271C  B4D8               	btfsc	status,2,c
  9419  00271E  EF53  F013         	goto	i2l4840
  9420  002722  0A01               	xorlw	1	; case 1
  9421  002724  B4D8               	btfsc	status,2,c
  9422  002726  EF57  F013         	goto	i2l4842
  9423  00272A  0A02               	xorlw	2	; case 3
  9424  00272C  B4D8               	btfsc	status,2,c
  9425  00272E  EF57  F013         	goto	i2l4842
  9426  002732  0A06               	xorlw	6	; case 5
  9427  002734  B4D8               	btfsc	status,2,c
  9428  002736  EF3C  F013         	goto	i2l451
  9429  00273A  0A03               	xorlw	3	; case 6
  9430  00273C  B4D8               	btfsc	status,2,c
  9431  00273E  EF41  F013         	goto	i2l4828
  9432  002742  0A01               	xorlw	1	; case 7
  9433  002744  B4D8               	btfsc	status,2,c
  9434  002746  EF72  F013         	goto	i2l4854
  9435  00274A  0A0F               	xorlw	15	; case 8
  9436  00274C  B4D8               	btfsc	status,2,c
  9437  00274E  EF49  F013         	goto	i2l4832
  9438  002752  0A01               	xorlw	1	; case 9
  9439  002754  B4D8               	btfsc	status,2,c
  9440  002756  EF45  F013         	goto	i2l4830
  9441  00275A  0A03               	xorlw	3	; case 10
  9442  00275C  B4D8               	btfsc	status,2,c
  9443  00275E  EF5B  F013         	goto	i2l4844
  9444  002762  0A01               	xorlw	1	; case 11
  9445  002764  B4D8               	btfsc	status,2,c
  9446  002766  EF67  F013         	goto	i2l460
  9447  00276A  0A07               	xorlw	7	; case 12
  9448  00276C  B4D8               	btfsc	status,2,c
  9449  00276E  EFBB  F013         	goto	i2l449
  9450  002772  EFBB  F013         	goto	i2l449
  9451  002776                     i2l449:
  9452  002776  0012               	return		;funcret
  9453  002778                     __end_ofi2_USBCheckStdRequest:
  9454                           	opt callstack 0
  9455                           
  9456 ;; *************** function i2_USBStdSetCfgHandler *****************
  9457 ;; Defined at:
  9458 ;;		line 1974 in file "usb_device.c"
  9459 ;; Parameters:    Size  Location     Type
  9460 ;;		None
  9461 ;; Auto vars:     Size  Location     Type
  9462 ;;  USBStdSetCfg    1   20[COMRAM] unsigned char 
  9463 ;; Return value:  Size  Location     Type
  9464 ;;                  1    wreg      void 
  9465 ;; Registers used:
  9466 ;;		wreg, fsr2l, fsr2h, status,2, status,0, prodl, prodh, cstack
  9467 ;; Tracked objects:
  9468 ;;		On entry : 0/0
  9469 ;;		On exit  : 0/0
  9470 ;;		Unchanged: 0/0
  9471 ;; Data sizes:     COMRAM   BANK0   BANK1   BANK2   BANK3  BANK4h  BANK4l   BANK5   BANK6   BANK7
  9472 ;;      Params:         0       0       0       0       0       0       0       0       0       0
  9473 ;;      Locals:         1       0       0       0       0       0       0       0       0       0
  9474 ;;      Temps:          0       0       0       0       0       0       0       0       0       0
  9475 ;;      Totals:         1       0       0       0       0       0       0       0       0       0
  9476 ;;Total ram usage:        1 bytes
  9477 ;; Hardware stack levels used:    1
  9478 ;; Hardware stack levels required when called:    4
  9479 ;; This function calls:
  9480 ;;		i2_USER_USB_CALLBACK_EVENT_HANDLER
  9481 ;;		i2_memset
  9482 ;; This function is called by:
  9483 ;;		i2_USBCheckStdRequest
  9484 ;; This function uses a non-reentrant model
  9485 ;;
  9486                           
  9487                           	psect	text50
  9488  003288                     __ptext50:
  9489                           	opt callstack 0
  9490  003288                     i2_USBStdSetCfgHandler:
  9491                           	opt callstack 11
  9492  003288                     
  9493                           ;usb_device.c: 1976:     uint8_t i;;usb_device.c: 1979:     inPipes[0].info.bits.busy = 
      +                          1;
  9494  003288  8E0C               	bsf	(_inPipes+3)^0,7,c	;volatile
  9495  00328A                     
  9496                           ;usb_device.c: 1982:     memset((void*)&UEP1,0x00,(2));;
  9497  00328A  0E71               	movlw	113
  9498  00328C  6E2B               	movwf	i2memset@dest^0,c
  9499  00328E  0E0F               	movlw	15
  9500  003290  6E2C               	movwf	(i2memset@dest+1)^0,c
  9501  003292  0E00               	movlw	0
  9502  003294  6E2E               	movwf	(i2memset@c+1)^0,c
  9503  003296  0E00               	movlw	0
  9504  003298  6E2D               	movwf	i2memset@c^0,c
  9505  00329A  0E00               	movlw	0
  9506  00329C  6E30               	movwf	(i2memset@n+1)^0,c
  9507  00329E  0E02               	movlw	2
  9508  0032A0  6E2F               	movwf	i2memset@n^0,c
  9509  0032A2  EC6A  F00B         	call	i2_memset	;wreg free
  9510                           
  9511                           ;usb_device.c: 1985:     memset((void*)&BDT[0], 0x00, sizeof(BDT));
  9512  0032A6  0E00               	movlw	0
  9513  0032A8  6E2B               	movwf	i2memset@dest^0,c
  9514  0032AA  0E04               	movlw	4
  9515  0032AC  6E2C               	movwf	(i2memset@dest+1)^0,c
  9516  0032AE  0E00               	movlw	0
  9517  0032B0  6E2E               	movwf	(i2memset@c+1)^0,c
  9518  0032B2  0E00               	movlw	0
  9519  0032B4  6E2D               	movwf	i2memset@c^0,c
  9520  0032B6  0E00               	movlw	0
  9521  0032B8  6E30               	movwf	(i2memset@n+1)^0,c
  9522  0032BA  0E30               	movlw	48
  9523  0032BC  6E2F               	movwf	i2memset@n^0,c
  9524  0032BE  EC6A  F00B         	call	i2_memset	;wreg free
  9525  0032C2                     
  9526                           ;usb_device.c: 1988:     UCONbits.PPBRST = 1;
  9527  0032C2  8C6D               	bsf	109,6,c	;volatile
  9528  0032C4                     
  9529                           ;usb_device.c: 1993:  for(i = 0; i < (uint8_t)(2 +1u); i++)
  9530  0032C4  0E00               	movlw	0
  9531  0032C6  6E3F               	movwf	i2USBStdSetCfgHandler@i^0,c
  9532  0032C8                     i2l4296:
  9533                           
  9534                           ;usb_device.c: 1994:  {;usb_device.c: 1995:   ep_data_in[i].Val = 0u;
  9535  0032C8  0E18               	movlw	low _ep_data_in
  9536  0032CA  243F               	addwf	i2USBStdSetCfgHandler@i^0,w,c
  9537  0032CC  6ED9               	movwf	fsr2l,c
  9538  0032CE  6ADA               	clrf	fsr2h,c
  9539  0032D0  0E00               	movlw	high _ep_data_in
  9540  0032D2  22DA               	addwfc	fsr2h,f,c
  9541  0032D4  0E00               	movlw	0
  9542  0032D6  6EDF               	movwf	indf2,c
  9543                           
  9544                           ;usb_device.c: 1996:         ep_data_out[i].Val = 0u;
  9545  0032D8  0E15               	movlw	low _ep_data_out
  9546  0032DA  243F               	addwf	i2USBStdSetCfgHandler@i^0,w,c
  9547  0032DC  6ED9               	movwf	fsr2l,c
  9548  0032DE  6ADA               	clrf	fsr2h,c
  9549  0032E0  0E00               	movlw	high _ep_data_out
  9550  0032E2  22DA               	addwfc	fsr2h,f,c
  9551  0032E4  0E00               	movlw	0
  9552  0032E6  6EDF               	movwf	indf2,c
  9553  0032E8                     
  9554                           ;usb_device.c: 1997:  }
  9555  0032E8  2A3F               	incf	i2USBStdSetCfgHandler@i^0,f,c
  9556  0032EA  0E02               	movlw	2
  9557  0032EC  643F               	cpfsgt	i2USBStdSetCfgHandler@i^0,c
  9558  0032EE  EF7B  F019         	goto	i2u328_41
  9559  0032F2  EF7D  F019         	goto	i2u328_40
  9560  0032F6                     i2u328_41:
  9561  0032F6  EF64  F019         	goto	i2l4296
  9562  0032FA                     i2u328_40:
  9563  0032FA                     
  9564                           ;usb_device.c: 2000:     memset((void*)&USBAlternateInterface,0x00,2);
  9565  0032FA  0EDB               	movlw	low _USBAlternateInterface
  9566  0032FC  6E2B               	movwf	i2memset@dest^0,c
  9567  0032FE  0E00               	movlw	high _USBAlternateInterface
  9568  003300  6E2C               	movwf	(i2memset@dest+1)^0,c
  9569  003302  0E00               	movlw	0
  9570  003304  6E2E               	movwf	(i2memset@c+1)^0,c
  9571  003306  0E00               	movlw	0
  9572  003308  6E2D               	movwf	i2memset@c^0,c
  9573  00330A  0E00               	movlw	0
  9574  00330C  6E30               	movwf	(i2memset@n+1)^0,c
  9575  00330E  0E02               	movlw	2
  9576  003310  6E2F               	movwf	i2memset@n^0,c
  9577  003312  EC6A  F00B         	call	i2_memset	;wreg free
  9578  003316                     
  9579                           ;usb_device.c: 2003:     UCONbits.PPBRST = 0;
  9580  003316  9C6D               	bcf	109,6,c	;volatile
  9581  003318                     
  9582                           ;usb_device.c: 2005:     pBDTEntryIn[0] = (volatile BDT_ENTRY*)&BDT[2];
  9583  003318  0E08               	movlw	8
  9584  00331A  6E0F               	movwf	_pBDTEntryIn^0,c
  9585  00331C  0E04               	movlw	4
  9586  00331E  6E10               	movwf	(_pBDTEntryIn+1)^0,c
  9587  003320                     
  9588                           ;usb_device.c: 2008:     pBDTEntryEP0OutCurrent = (volatile BDT_ENTRY*)&BDT[0];
  9589  003320  0E00               	movlw	0
  9590  003322  6E1D               	movwf	_pBDTEntryEP0OutCurrent^0,c
  9591  003324  0E04               	movlw	4
  9592  003326  6E1E               	movwf	(_pBDTEntryEP0OutCurrent+1)^0,c
  9593  003328                     
  9594                           ;usb_device.c: 2009:     pBDTEntryEP0OutNext = pBDTEntryEP0OutCurrent;
  9595  003328  C01D  F01B         	movff	_pBDTEntryEP0OutCurrent,_pBDTEntryEP0OutNext
  9596  00332C  C01E  F01C         	movff	_pBDTEntryEP0OutCurrent+1,_pBDTEntryEP0OutNext+1
  9597  003330                     
  9598                           ;usb_device.c: 2012:     USBActiveConfiguration = SetupPkt.bConfigurationValue;
  9599  003330  C432 F02A          	movff	1074,_USBActiveConfiguration	;volatile
  9600  003334                     
  9601                           ;usb_device.c: 2015:     if(USBActiveConfiguration == 0)
  9602  003334  502A               	movf	_USBActiveConfiguration^0,w,c	;volatile
  9603  003336  A4D8               	btfss	status,2,c
  9604  003338  EFA0  F019         	goto	i2u329_41
  9605  00333C  EFA2  F019         	goto	i2u329_40
  9606  003340                     i2u329_41:
  9607  003340  EFA6  F019         	goto	i2l4318
  9608  003344                     i2u329_40:
  9609  003344                     
  9610                           ;usb_device.c: 2016:     {;usb_device.c: 2018:         USBDeviceState = ADDRESS_STATE;
  9611  003344  0E10               	movlw	16
  9612  003346  6E29               	movwf	_USBDeviceState^0,c	;volatile
  9613                           
  9614                           ;usb_device.c: 2019:     }
  9615  003348  EFB6  F019         	goto	i2l371
  9616  00334C                     i2l4318:
  9617                           
  9618                           ;usb_device.c: 2021:     {;usb_device.c: 2023:         USER_USB_CALLBACK_EVENT_HANDLER((
      +                          USB_EVENT)EVENT_CONFIGURED,(void*)&USBActiveConfiguration,1);
  9619  00334C  0E00               	movlw	0
  9620  00334E  6E38               	movwf	(i2USER_USB_CALLBACK_EVENT_HANDLER@event+1)^0,c
  9621  003350  0E01               	movlw	1
  9622  003352  6E37               	movwf	i2USER_USB_CALLBACK_EVENT_HANDLER@event^0,c
  9623  003354  0E2A               	movlw	low _USBActiveConfiguration
  9624  003356  6E39               	movwf	i2USER_USB_CALLBACK_EVENT_HANDLER@pdata^0,c
  9625  003358  0E00               	movlw	high _USBActiveConfiguration
  9626  00335A  6E3A               	movwf	(i2USER_USB_CALLBACK_EVENT_HANDLER@pdata+1)^0,c
  9627  00335C  0E00               	movlw	0
  9628  00335E  6E3C               	movwf	(i2USER_USB_CALLBACK_EVENT_HANDLER@size+1)^0,c
  9629  003360  0E01               	movlw	1
  9630  003362  6E3B               	movwf	i2USER_USB_CALLBACK_EVENT_HANDLER@size^0,c
  9631  003364  ECA6  F01C         	call	i2_USER_USB_CALLBACK_EVENT_HANDLER	;wreg free
  9632  003368                     
  9633                           ;usb_device.c: 2028:         USBDeviceState = CONFIGURED_STATE;
  9634  003368  0E20               	movlw	32
  9635  00336A  6E29               	movwf	_USBDeviceState^0,c	;volatile
  9636  00336C                     i2l371:
  9637  00336C  0012               	return		;funcret
  9638  00336E                     __end_ofi2_USBStdSetCfgHandler:
  9639                           	opt callstack 0
  9640                           
  9641 ;; *************** function i2_memset *****************
  9642 ;; Defined at:
  9643 ;;		line 4 in file "C:\Program Files (x86)\Microchip\xc8\v2.10\pic\sources\c99\common\memset.c"
  9644 ;; Parameters:    Size  Location     Type
  9645 ;;  dest            2    0[COMRAM] PTR void 
  9646 ;;		 -> USBAlternateInterface(2), BDT(48), UEP1(1), 
  9647 ;;  c               2    2[COMRAM] int 
  9648 ;;  n               2    4[COMRAM] unsigned int 
  9649 ;; Auto vars:     Size  Location     Type
  9650 ;;  memset          2   10[COMRAM] PTR unsigned char 
  9651 ;;		 -> USBAlternateInterface(2), BDT(48), UEP1(1), 
  9652 ;;  memset          2    8[COMRAM] unsigned int 
  9653 ;; Return value:  Size  Location     Type
  9654 ;;                  2    0[COMRAM] PTR void 
  9655 ;; Registers used:
  9656 ;;		wreg, fsr2l, fsr2h, status,2, status,0
  9657 ;; Tracked objects:
  9658 ;;		On entry : 0/0
  9659 ;;		On exit  : 0/0
  9660 ;;		Unchanged: 0/0
  9661 ;; Data sizes:     COMRAM   BANK0   BANK1   BANK2   BANK3  BANK4h  BANK4l   BANK5   BANK6   BANK7
  9662 ;;      Params:         6       0       0       0       0       0       0       0       0       0
  9663 ;;      Locals:         4       0       0       0       0       0       0       0       0       0
  9664 ;;      Temps:          2       0       0       0       0       0       0       0       0       0
  9665 ;;      Totals:        12       0       0       0       0       0       0       0       0       0
  9666 ;;Total ram usage:       12 bytes
  9667 ;; Hardware stack levels used:    1
  9668 ;; This function calls:
  9669 ;;		Nothing
  9670 ;; This function is called by:
  9671 ;;		i2_USBDeviceInit
  9672 ;;		i2_USBStdSetCfgHandler
  9673 ;; This function uses a non-reentrant model
  9674 ;;
  9675                           
  9676                           	psect	text51
  9677  0016D4                     __ptext51:
  9678                           	opt callstack 0
  9679  0016D4                     i2_memset:
  9680                           	opt callstack 17
  9681  0016D4  C02B  F035         	movff	i2memset@dest,i2memset@s
  9682  0016D8  C02C  F036         	movff	i2memset@dest+1,i2memset@s+1
  9683  0016DC  502F               	movf	i2memset@n^0,w,c
  9684  0016DE  1030               	iorwf	(i2memset@n+1)^0,w,c
  9685  0016E0  A4D8               	btfss	status,2,c
  9686  0016E2  EF75  F00B         	goto	i2u304_41
  9687  0016E6  EF77  F00B         	goto	i2u304_40
  9688  0016EA                     i2u304_41:
  9689  0016EA  EF79  F00B         	goto	i2l4106
  9690  0016EE                     i2u304_40:
  9691  0016EE  EF24  F00C         	goto	i2l1320
  9692  0016F2                     i2l4106:
  9693  0016F2  C035  FFD9         	movff	i2memset@s,fsr2l
  9694  0016F6  C036  FFDA         	movff	i2memset@s+1,fsr2h
  9695  0016FA  C02D  FFDF         	movff	i2memset@c,indf2
  9696  0016FE  502F               	movf	i2memset@n^0,w,c
  9697  001700  2435               	addwf	i2memset@s^0,w,c
  9698  001702  6E31               	movwf	??i2_memset^0,c
  9699  001704  5030               	movf	(i2memset@n+1)^0,w,c
  9700  001706  2036               	addwfc	(i2memset@s+1)^0,w,c
  9701  001708  6E32               	movwf	(??i2_memset+1)^0,c
  9702  00170A  0EFF               	movlw	255
  9703  00170C  2431               	addwf	??i2_memset^0,w,c
  9704  00170E  6ED9               	movwf	fsr2l,c
  9705  001710  0EFF               	movlw	255
  9706  001712  2032               	addwfc	(??i2_memset+1)^0,w,c
  9707  001714  6EDA               	movwf	fsr2h,c
  9708  001716  C02D  FFDF         	movff	i2memset@c,indf2
  9709  00171A  5030               	movf	(i2memset@n+1)^0,w,c
  9710  00171C  E107               	bnz	i2u305_41
  9711  00171E  0E03               	movlw	3
  9712  001720  5C2F               	subwf	i2memset@n^0,w,c
  9713  001722  B0D8               	btfsc	status,0,c
  9714  001724  EF96  F00B         	goto	i2u305_41
  9715  001728  EF98  F00B         	goto	i2u305_40
  9716  00172C                     i2u305_41:
  9717  00172C  EF9A  F00B         	goto	i2l4112
  9718  001730                     i2u305_40:
  9719  001730  EF24  F00C         	goto	i2l1320
  9720  001734                     i2l4112:
  9721  001734  EE20 F001          	lfsr	2,1
  9722  001738  5035               	movf	i2memset@s^0,w,c
  9723  00173A  26D9               	addwf	fsr2l,f,c
  9724  00173C  5036               	movf	(i2memset@s+1)^0,w,c
  9725  00173E  22DA               	addwfc	fsr2h,f,c
  9726  001740  C02D  FFDF         	movff	i2memset@c,indf2
  9727  001744  EE20 F002          	lfsr	2,2
  9728  001748  5035               	movf	i2memset@s^0,w,c
  9729  00174A  26D9               	addwf	fsr2l,f,c
  9730  00174C  5036               	movf	(i2memset@s+1)^0,w,c
  9731  00174E  22DA               	addwfc	fsr2h,f,c
  9732  001750  C02D  FFDF         	movff	i2memset@c,indf2
  9733  001754  502F               	movf	i2memset@n^0,w,c
  9734  001756  2435               	addwf	i2memset@s^0,w,c
  9735  001758  6E31               	movwf	??i2_memset^0,c
  9736  00175A  5030               	movf	(i2memset@n+1)^0,w,c
  9737  00175C  2036               	addwfc	(i2memset@s+1)^0,w,c
  9738  00175E  6E32               	movwf	(??i2_memset+1)^0,c
  9739  001760  0EFE               	movlw	254
  9740  001762  2431               	addwf	??i2_memset^0,w,c
  9741  001764  6ED9               	movwf	fsr2l,c
  9742  001766  0EFF               	movlw	255
  9743  001768  2032               	addwfc	(??i2_memset+1)^0,w,c
  9744  00176A  6EDA               	movwf	fsr2h,c
  9745  00176C  C02D  FFDF         	movff	i2memset@c,indf2
  9746  001770  502F               	movf	i2memset@n^0,w,c
  9747  001772  2435               	addwf	i2memset@s^0,w,c
  9748  001774  6E31               	movwf	??i2_memset^0,c
  9749  001776  5030               	movf	(i2memset@n+1)^0,w,c
  9750  001778  2036               	addwfc	(i2memset@s+1)^0,w,c
  9751  00177A  6E32               	movwf	(??i2_memset+1)^0,c
  9752  00177C  0EFD               	movlw	253
  9753  00177E  2431               	addwf	??i2_memset^0,w,c
  9754  001780  6ED9               	movwf	fsr2l,c
  9755  001782  0EFF               	movlw	255
  9756  001784  2032               	addwfc	(??i2_memset+1)^0,w,c
  9757  001786  6EDA               	movwf	fsr2h,c
  9758  001788  C02D  FFDF         	movff	i2memset@c,indf2
  9759  00178C  5030               	movf	(i2memset@n+1)^0,w,c
  9760  00178E  E107               	bnz	i2u306_41
  9761  001790  0E07               	movlw	7
  9762  001792  5C2F               	subwf	i2memset@n^0,w,c
  9763  001794  B0D8               	btfsc	status,0,c
  9764  001796  EFCF  F00B         	goto	i2u306_41
  9765  00179A  EFD1  F00B         	goto	i2u306_40
  9766  00179E                     i2u306_41:
  9767  00179E  EFD3  F00B         	goto	i2l4118
  9768  0017A2                     i2u306_40:
  9769  0017A2  EF24  F00C         	goto	i2l1320
  9770  0017A6                     i2l4118:
  9771  0017A6  EE20 F003          	lfsr	2,3
  9772  0017AA  5035               	movf	i2memset@s^0,w,c
  9773  0017AC  26D9               	addwf	fsr2l,f,c
  9774  0017AE  5036               	movf	(i2memset@s+1)^0,w,c
  9775  0017B0  22DA               	addwfc	fsr2h,f,c
  9776  0017B2  C02D  FFDF         	movff	i2memset@c,indf2
  9777  0017B6  502F               	movf	i2memset@n^0,w,c
  9778  0017B8  2435               	addwf	i2memset@s^0,w,c
  9779  0017BA  6E31               	movwf	??i2_memset^0,c
  9780  0017BC  5030               	movf	(i2memset@n+1)^0,w,c
  9781  0017BE  2036               	addwfc	(i2memset@s+1)^0,w,c
  9782  0017C0  6E32               	movwf	(??i2_memset+1)^0,c
  9783  0017C2  0EFC               	movlw	252
  9784  0017C4  2431               	addwf	??i2_memset^0,w,c
  9785  0017C6  6ED9               	movwf	fsr2l,c
  9786  0017C8  0EFF               	movlw	255
  9787  0017CA  2032               	addwfc	(??i2_memset+1)^0,w,c
  9788  0017CC  6EDA               	movwf	fsr2h,c
  9789  0017CE  C02D  FFDF         	movff	i2memset@c,indf2
  9790  0017D2  5030               	movf	(i2memset@n+1)^0,w,c
  9791  0017D4  E107               	bnz	i2u307_41
  9792  0017D6  0E09               	movlw	9
  9793  0017D8  5C2F               	subwf	i2memset@n^0,w,c
  9794  0017DA  B0D8               	btfsc	status,0,c
  9795  0017DC  EFF2  F00B         	goto	i2u307_41
  9796  0017E0  EFF4  F00B         	goto	i2u307_40
  9797  0017E4                     i2u307_41:
  9798  0017E4  EFF6  F00B         	goto	i2l4124
  9799  0017E8                     i2u307_40:
  9800  0017E8  EF24  F00C         	goto	i2l1320
  9801  0017EC                     i2l4124:
  9802  0017EC  C035  F031         	movff	i2memset@s,??i2_memset
  9803  0017F0  C036  F032         	movff	i2memset@s+1,??i2_memset+1
  9804  0017F4  1E31               	comf	??i2_memset^0,f,c
  9805  0017F6  1E32               	comf	(??i2_memset+1)^0,f,c
  9806  0017F8  4A31               	infsnz	??i2_memset^0,f,c
  9807  0017FA  2A32               	incf	(??i2_memset+1)^0,f,c
  9808  0017FC  0E03               	movlw	3
  9809  0017FE  1431               	andwf	??i2_memset^0,w,c
  9810  001800  6E33               	movwf	i2memset@k^0,c
  9811  001802  6A34               	clrf	(i2memset@k+1)^0,c
  9812  001804  5033               	movf	i2memset@k^0,w,c
  9813  001806  2635               	addwf	i2memset@s^0,f,c
  9814  001808  5034               	movf	(i2memset@k+1)^0,w,c
  9815  00180A  2236               	addwfc	(i2memset@s+1)^0,f,c
  9816  00180C  5033               	movf	i2memset@k^0,w,c
  9817  00180E  5E2F               	subwf	i2memset@n^0,f,c
  9818  001810  5034               	movf	(i2memset@k+1)^0,w,c
  9819  001812  5A30               	subwfb	(i2memset@n+1)^0,f,c
  9820  001814  0EFC               	movlw	252
  9821  001816  162F               	andwf	i2memset@n^0,f,c
  9822  001818  0EFF               	movlw	255
  9823  00181A  1630               	andwf	(i2memset@n+1)^0,f,c
  9824  00181C  EF1B  F00C         	goto	i2l4132
  9825  001820                     i2l4126:
  9826  001820  C035  FFD9         	movff	i2memset@s,fsr2l
  9827  001824  C036  FFDA         	movff	i2memset@s+1,fsr2h
  9828  001828  C02D  FFDF         	movff	i2memset@c,indf2
  9829  00182C  062F               	decf	i2memset@n^0,f,c
  9830  00182E  A0D8               	btfss	status,0,c
  9831  001830  0630               	decf	(i2memset@n+1)^0,f,c
  9832  001832  4A35               	infsnz	i2memset@s^0,f,c
  9833  001834  2A36               	incf	(i2memset@s+1)^0,f,c
  9834  001836                     i2l4132:
  9835  001836  502F               	movf	i2memset@n^0,w,c
  9836  001838  1030               	iorwf	(i2memset@n+1)^0,w,c
  9837  00183A  A4D8               	btfss	status,2,c
  9838  00183C  EF22  F00C         	goto	i2u308_41
  9839  001840  EF24  F00C         	goto	i2u308_40
  9840  001844                     i2u308_41:
  9841  001844  EF10  F00C         	goto	i2l4126
  9842  001848                     i2u308_40:
  9843  001848                     i2l1320:
  9844  001848  0012               	return		;funcret
  9845  00184A                     __end_ofi2_memset:
  9846                           	opt callstack 0
  9847                           
  9848 ;; *************** function i2_USBStdGetStatusHandler *****************
  9849 ;; Defined at:
  9850 ;;		line 2135 in file "usb_device.c"
  9851 ;; Parameters:    Size  Location     Type
  9852 ;;		None
  9853 ;; Auto vars:     Size  Location     Type
  9854 ;;  USBStdGetSta    2    2[COMRAM] PTR struct __BDT
  9855 ;;		 -> RAM(2047), NULL(0), BDT(48), 
  9856 ;; Return value:  Size  Location     Type
  9857 ;;                  1    wreg      void 
  9858 ;; Registers used:
  9859 ;;		wreg, fsr2l, fsr2h, status,2, status,0, prodl, prodh
  9860 ;; Tracked objects:
  9861 ;;		On entry : 0/0
  9862 ;;		On exit  : 0/0
  9863 ;;		Unchanged: 0/0
  9864 ;; Data sizes:     COMRAM   BANK0   BANK1   BANK2   BANK3  BANK4h  BANK4l   BANK5   BANK6   BANK7
  9865 ;;      Params:         0       0       0       0       0       0       0       0       0       0
  9866 ;;      Locals:         2       0       0       0       0       0       0       0       0       0
  9867 ;;      Temps:          2       0       0       0       0       0       0       0       0       0
  9868 ;;      Totals:         4       0       0       0       0       0       0       0       0       0
  9869 ;;Total ram usage:        4 bytes
  9870 ;; Hardware stack levels used:    1
  9871 ;; This function calls:
  9872 ;;		Nothing
  9873 ;; This function is called by:
  9874 ;;		i2_USBCheckStdRequest
  9875 ;; This function uses a non-reentrant model
  9876 ;;
  9877                           
  9878                           	psect	text52
  9879  002DB6                     __ptext52:
  9880                           	opt callstack 0
  9881  002DB6                     i2_USBStdGetStatusHandler:
  9882                           	opt callstack 15
  9883  002DB6                     
  9884                           ;usb_device.c: 2137:     CtrlTrfData[0] = 0;
  9885  002DB6  0E00               	movlw	0
  9886  002DB8  0104               	movlb	4	; () banked
  9887  002DBA  6F50               	movwf	80,b	;volatile
  9888                           
  9889                           ;usb_device.c: 2138:     CtrlTrfData[1] = 0;
  9890  002DBC  0E00               	movlw	0
  9891  002DBE  6F51               	movwf	81,b	;volatile
  9892                           
  9893                           ;usb_device.c: 2140:     switch(SetupPkt.Recipient)
  9894  002DC0  EF33  F017         	goto	i2l4380
  9895  002DC4                     i2l389:
  9896                           
  9897                           ; BSR set to: 4
  9898                           ;usb_device.c: 2143:             inPipes[0].info.bits.busy = 1;
  9899  002DC4  8E0C               	bsf	(_inPipes+3)^0,7,c	;volatile
  9900  002DC6                     
  9901                           ; BSR set to: 4
  9902                           ;usb_device.c: 2153:             if(RemoteWakeup == 1)
  9903  002DC6  0426               	decf	_RemoteWakeup^0,w,c	;volatile
  9904  002DC8  A4D8               	btfss	status,2,c
  9905  002DCA  EFE9  F016         	goto	i2u336_41
  9906  002DCE  EFEB  F016         	goto	i2u336_40
  9907  002DD2                     i2u336_41:
  9908  002DD2  EF4D  F017         	goto	i2l392
  9909  002DD6                     i2u336_40:
  9910  002DD6                     
  9911                           ; BSR set to: 4
  9912                           ;usb_device.c: 2154:             {;usb_device.c: 2155:                 CtrlTrfData[0]|=0
      +                          x02;
  9913  002DD6  8350               	bsf	80,1,b	;volatile
  9914  002DD8  EF4D  F017         	goto	i2l392
  9915  002DDC                     i2l393:
  9916                           
  9917                           ; BSR set to: 4
  9918                           ;usb_device.c: 2159:             inPipes[0].info.bits.busy = 1;
  9919  002DDC  8E0C               	bsf	(_inPipes+3)^0,7,c	;volatile
  9920                           
  9921                           ;usb_device.c: 2160:             break;
  9922  002DDE  EF4D  F017         	goto	i2l392
  9923  002DE2                     i2l394:
  9924                           
  9925                           ; BSR set to: 4
  9926                           ;usb_device.c: 2162:             inPipes[0].info.bits.busy = 1;
  9927  002DE2  8E0C               	bsf	(_inPipes+3)^0,7,c	;volatile
  9928                           
  9929                           ;usb_device.c: 2166:             {;usb_device.c: 2167:                 BDT_ENTRY *p;;usb
      +                          _device.c: 2169:                 if(SetupPkt.EPDir == 0)
  9930  002DE4  BF34               	btfsc	52,7,b	;volatile
  9931  002DE6  EFF7  F016         	goto	i2u337_41
  9932  002DEA  EFF9  F016         	goto	i2u337_40
  9933  002DEE                     i2u337_41:
  9934  002DEE  EF0A  F017         	goto	i2l4370
  9935  002DF2                     i2u337_40:
  9936  002DF2                     
  9937                           ; BSR set to: 4
  9938                           ;usb_device.c: 2170:                 {;usb_device.c: 2171:                     p = (BDT_
      +                          ENTRY*)pBDTEntryOut[SetupPkt.EPNum];
  9939  002DF2  5134               	movf	52,w,b	;volatile
  9940  002DF4  0B0F               	andlw	15
  9941  002DF6  6E2B               	movwf	??i2_USBStdGetStatusHandler^0,c
  9942  002DF8  502B               	movf	??i2_USBStdGetStatusHandler^0,w,c
  9943  002DFA  0D02               	mullw	2
  9944  002DFC  0EAA               	movlw	low _pBDTEntryOut
  9945  002DFE  24F3               	addwf	243,w,c
  9946  002E00  6ED9               	movwf	fsr2l,c
  9947  002E02  0E00               	movlw	high _pBDTEntryOut
  9948  002E04  20F4               	addwfc	prodh,w,c
  9949  002E06  6EDA               	movwf	fsr2h,c
  9950  002E08  CFDE F02D          	movff	postinc2,i2USBStdGetStatusHandler@p
  9951  002E0C  CFDD F02E          	movff	postdec2,i2USBStdGetStatusHandler@p+1
  9952                           
  9953                           ;usb_device.c: 2172:                 }
  9954  002E10  EF19  F017         	goto	i2l4372
  9955  002E14                     i2l4370:
  9956                           
  9957                           ; BSR set to: 4
  9958                           ;usb_device.c: 2174:                 {;usb_device.c: 2175:                     p = (BDT_
      +                          ENTRY*)pBDTEntryIn[SetupPkt.EPNum];
  9959  002E14  5134               	movf	52,w,b	;volatile
  9960  002E16  0B0F               	andlw	15
  9961  002E18  6E2B               	movwf	??i2_USBStdGetStatusHandler^0,c
  9962  002E1A  502B               	movf	??i2_USBStdGetStatusHandler^0,w,c
  9963  002E1C  0D02               	mullw	2
  9964  002E1E  0E0F               	movlw	low _pBDTEntryIn
  9965  002E20  24F3               	addwf	243,w,c
  9966  002E22  6ED9               	movwf	fsr2l,c
  9967  002E24  0E00               	movlw	high _pBDTEntryIn
  9968  002E26  20F4               	addwfc	prodh,w,c
  9969  002E28  6EDA               	movwf	fsr2h,c
  9970  002E2A  CFDE F02D          	movff	postinc2,i2USBStdGetStatusHandler@p
  9971  002E2E  CFDD F02E          	movff	postdec2,i2USBStdGetStatusHandler@p+1
  9972  002E32                     i2l4372:
  9973                           
  9974                           ; BSR set to: 4
  9975                           ;usb_device.c: 2178:                 if((p->STAT.UOWN == 1) && (p->STAT.BSTALL == 1))
  9976  002E32  C02D  FFD9         	movff	i2USBStdGetStatusHandler@p,fsr2l
  9977  002E36  C02E  FFDA         	movff	i2USBStdGetStatusHandler@p+1,fsr2h
  9978  002E3A  AEDF               	btfss	indf2,7,c
  9979  002E3C  EF22  F017         	goto	i2u338_41
  9980  002E40  EF24  F017         	goto	i2u338_40
  9981  002E44                     i2u338_41:
  9982  002E44  EF4D  F017         	goto	i2l392
  9983  002E48                     i2u338_40:
  9984  002E48                     
  9985                           ; BSR set to: 4
  9986  002E48  C02D  FFD9         	movff	i2USBStdGetStatusHandler@p,fsr2l
  9987  002E4C  C02E  FFDA         	movff	i2USBStdGetStatusHandler@p+1,fsr2h
  9988  002E50  A4DF               	btfss	indf2,2,c
  9989  002E52  EF2D  F017         	goto	i2u339_41
  9990  002E56  EF2F  F017         	goto	i2u339_40
  9991  002E5A                     i2u339_41:
  9992  002E5A  EF4D  F017         	goto	i2l392
  9993  002E5E                     i2u339_40:
  9994  002E5E                     
  9995                           ; BSR set to: 4
  9996                           ;usb_device.c: 2179:                     CtrlTrfData[0]=0x01;
  9997  002E5E  0E01               	movlw	1
  9998  002E60  6F50               	movwf	80,b	;volatile
  9999  002E62  EF4D  F017         	goto	i2l392
 10000  002E66                     i2l4380:
 10001                           
 10002                           ; BSR set to: 4
 10003  002E66  5130               	movf	48,w,b	;volatile
 10004  002E68  0B1F               	andlw	31
 10005  002E6A  6E2B               	movwf	??i2_USBStdGetStatusHandler^0,c
 10006  002E6C  6A2C               	clrf	(??i2_USBStdGetStatusHandler+1)^0,c
 10007                           
 10008                           ; Switch on 2 bytes has been partitioned into a top level switch of size 1, and 1 sub-sw
      +                          itches
 10009                           ; Switch size 1, requested type "simple"
 10010                           ; Number of cases is 1, Range of values is 0 to 0
 10011                           ; switch strategies available:
 10012                           ; Name         Instructions Cycles
 10013                           ; simple_byte            4     3 (average)
 10014                           ;	Chosen strategy is simple_byte
 10015  002E6E  502C               	movf	(??i2_USBStdGetStatusHandler+1)^0,w,c
 10016  002E70  0A00               	xorlw	0	; case 0
 10017  002E72  B4D8               	btfsc	status,2,c
 10018  002E74  EF3E  F017         	goto	i2l7708
 10019  002E78  EF4D  F017         	goto	i2l392
 10020  002E7C                     i2l7708:
 10021                           
 10022                           ; BSR set to: 4
 10023                           ; Switch size 1, requested type "simple"
 10024                           ; Number of cases is 3, Range of values is 0 to 2
 10025                           ; switch strategies available:
 10026                           ; Name         Instructions Cycles
 10027                           ; simple_byte           10     6 (average)
 10028                           ;	Chosen strategy is simple_byte
 10029  002E7C  502B               	movf	??i2_USBStdGetStatusHandler^0,w,c
 10030  002E7E  0A00               	xorlw	0	; case 0
 10031  002E80  B4D8               	btfsc	status,2,c
 10032  002E82  EFE2  F016         	goto	i2l389
 10033  002E86  0A01               	xorlw	1	; case 1
 10034  002E88  B4D8               	btfsc	status,2,c
 10035  002E8A  EFEE  F016         	goto	i2l393
 10036  002E8E  0A03               	xorlw	3	; case 2
 10037  002E90  B4D8               	btfsc	status,2,c
 10038  002E92  EFF1  F016         	goto	i2l394
 10039  002E96  EF4D  F017         	goto	i2l392
 10040  002E9A                     i2l392:
 10041                           
 10042                           ; BSR set to: 4
 10043                           ;usb_device.c: 2184:     if(inPipes[0].info.bits.busy == 1)
 10044  002E9A  AE0C               	btfss	(_inPipes+3)^0,7,c	;volatile
 10045  002E9C  EF52  F017         	goto	i2u340_41
 10046  002EA0  EF54  F017         	goto	i2u340_40
 10047  002EA4                     i2u340_41:
 10048  002EA4  EF5B  F017         	goto	i2l399
 10049  002EA8                     i2u340_40:
 10050  002EA8                     
 10051                           ; BSR set to: 4
 10052                           ;usb_device.c: 2185:     {;usb_device.c: 2186:         inPipes[0].pSrc.bRam = (uint8_t*)
      +                          &CtrlTrfData;
 10053  002EA8  0E50               	movlw	80
 10054  002EAA  6E09               	movwf	_inPipes^0,c	;volatile
 10055  002EAC  0E04               	movlw	4
 10056  002EAE  6E0A               	movwf	(_inPipes+1)^0,c	;volatile
 10057  002EB0                     
 10058                           ; BSR set to: 4
 10059                           ;usb_device.c: 2187:         inPipes[0].info.bits.ctrl_trf_mem = 0x01;
 10060  002EB0  800C               	bsf	(_inPipes+3)^0,0,c	;volatile
 10061  002EB2                     
 10062                           ; BSR set to: 4
 10063                           ;usb_device.c: 2188:         inPipes[0].wCount.v[0] = 2;
 10064  002EB2  0E02               	movlw	2
 10065  002EB4  6E0D               	movwf	(_inPipes+4)^0,c	;volatile
 10066  002EB6                     i2l399:
 10067                           
 10068                           ; BSR set to: 4
 10069  002EB6  0012               	return		;funcret
 10070  002EB8                     __end_ofi2_USBStdGetStatusHandler:
 10071                           	opt callstack 0
 10072                           
 10073 ;; *************** function i2_USBStdGetDscHandler *****************
 10074 ;; Defined at:
 10075 ;;		line 2049 in file "usb_device.c"
 10076 ;; Parameters:    Size  Location     Type
 10077 ;;		None
 10078 ;; Auto vars:     Size  Location     Type
 10079 ;;		None
 10080 ;; Return value:  Size  Location     Type
 10081 ;;                  1    wreg      void 
 10082 ;; Registers used:
 10083 ;;		wreg, fsr1l, fsr1h, status,2, status,0, tblptrl, tblptrh, tblptru, prodl, prodh
 10084 ;; Tracked objects:
 10085 ;;		On entry : 0/0
 10086 ;;		On exit  : 0/0
 10087 ;;		Unchanged: 0/0
 10088 ;; Data sizes:     COMRAM   BANK0   BANK1   BANK2   BANK3  BANK4h  BANK4l   BANK5   BANK6   BANK7
 10089 ;;      Params:         0       0       0       0       0       0       0       0       0       0
 10090 ;;      Locals:         0       0       0       0       0       0       0       0       0       0
 10091 ;;      Temps:          2       0       0       0       0       0       0       0       0       0
 10092 ;;      Totals:         2       0       0       0       0       0       0       0       0       0
 10093 ;;Total ram usage:        2 bytes
 10094 ;; Hardware stack levels used:    1
 10095 ;; This function calls:
 10096 ;;		Nothing
 10097 ;; This function is called by:
 10098 ;;		i2_USBCheckStdRequest
 10099 ;; This function uses a non-reentrant model
 10100 ;;
 10101                           
 10102                           	psect	text53
 10103  0019B6                     __ptext53:
 10104                           	opt callstack 0
 10105  0019B6                     i2_USBStdGetDscHandler:
 10106                           	opt callstack 15
 10107  0019B6                     
 10108                           ;usb_device.c: 2051:     if(SetupPkt.bmRequestType == 0x80)
 10109  0019B6  0E80               	movlw	128
 10110  0019B8  0104               	movlb	4	; () banked
 10111  0019BA  1930               	xorwf	48,w,b	;volatile
 10112  0019BC  A4D8               	btfss	status,2,c
 10113  0019BE  EFE3  F00C         	goto	i2u330_41
 10114  0019C2  EFE5  F00C         	goto	i2u330_40
 10115  0019C6                     i2u330_41:
 10116  0019C6  EF8A  F00D         	goto	i2l385
 10117  0019CA                     i2u330_40:
 10118  0019CA                     
 10119                           ; BSR set to: 4
 10120                           ;usb_device.c: 2052:     {;usb_device.c: 2053:         inPipes[0].info.Val = 0x00 | 0x80
      +                           | 0x40;
 10121  0019CA  0EC0               	movlw	192
 10122  0019CC  6E0C               	movwf	(_inPipes+3)^0,c	;volatile
 10123                           
 10124                           ;usb_device.c: 2055:         switch(SetupPkt.bDescriptorType)
 10125  0019CE  EF71  F00D         	goto	i2l4352
 10126  0019D2                     i2l4326:
 10127                           
 10128                           ; BSR set to: 4
 10129                           ;usb_device.c: 2061:                     inPipes[0].pSrc.bRom = (const uint8_t*)&device_
      +                          dsc;
 10130  0019D2  0E92               	movlw	low _device_dsc
 10131  0019D4  6E09               	movwf	_inPipes^0,c	;volatile
 10132  0019D6  0E08               	movlw	high _device_dsc
 10133  0019D8  6E0A               	movwf	(_inPipes+1)^0,c	;volatile
 10134  0019DA                     
 10135                           ; BSR set to: 4
 10136                           ;usb_device.c: 2063:                 inPipes[0].wCount.Val = sizeof(device_dsc);
 10137  0019DA  0E00               	movlw	0
 10138  0019DC  6E0E               	movwf	(_inPipes+5)^0,c	;volatile
 10139  0019DE  0E12               	movlw	18
 10140  0019E0  6E0D               	movwf	(_inPipes+4)^0,c	;volatile
 10141                           
 10142                           ;usb_device.c: 2064:                 break;
 10143  0019E2  EF8A  F00D         	goto	i2l385
 10144  0019E6                     i2l4330:
 10145                           
 10146                           ; BSR set to: 4
 10147                           ;usb_device.c: 2069:                 if(SetupPkt.bDscIndex < 1)
 10148  0019E6  5132               	movf	50,w,b	;volatile
 10149  0019E8  A4D8               	btfss	status,2,c
 10150  0019EA  EFF9  F00C         	goto	i2u331_41
 10151  0019EE  EFFB  F00C         	goto	i2u331_40
 10152  0019F2                     i2u331_41:
 10153  0019F2  EF39  F00D         	goto	i2l4338
 10154  0019F6                     i2u331_40:
 10155  0019F6                     
 10156                           ; BSR set to: 4
 10157                           ;usb_device.c: 2070:                 {;usb_device.c: 2074:                         inPip
      +                          es[0].pSrc.bRom = *(USB_CD_Ptr+SetupPkt.bDscIndex);
 10158  0019F6  5132               	movf	50,w,b	;volatile
 10159  0019F8  0D02               	mullw	2
 10160  0019FA  0E07               	movlw	low _USB_CD_Ptr
 10161  0019FC  24F3               	addwf	243,w,c
 10162  0019FE  6EF6               	movwf	tblptrl,c
 10163  001A00  0E08               	movlw	high _USB_CD_Ptr
 10164  001A02  20F4               	addwfc	244,w,c
 10165  001A04  6EF7               	movwf	tblptrh,c
 10166  001A06                     	if	0	;There are less than 3 active tblptr bytes
 10167  001A06                     	endif
 10168  001A06  0009               	tblrd		*+
 10169  001A08  CFF5 F009          	movff	tablat,_inPipes	;volatile
 10170  001A0C  000A               	tblrd		*-
 10171  001A0E  CFF5 F00A          	movff	tablat,_inPipes+1	;volatile
 10172  001A12                     
 10173                           ; BSR set to: 4
 10174                           ;usb_device.c: 2080:                     inPipes[0].wCount.byte.LB = *(inPipes[0].pSrc.b
      +                          Rom+2);
 10175  001A12  0E02               	movlw	2
 10176  001A14  2409               	addwf	_inPipes^0,w,c	;volatile
 10177  001A16  6E2B               	movwf	??i2_USBStdGetDscHandler^0,c
 10178  001A18  0E00               	movlw	0
 10179  001A1A  200A               	addwfc	(_inPipes+1)^0,w,c	;volatile
 10180  001A1C  6E2C               	movwf	(??i2_USBStdGetDscHandler+1)^0,c
 10181  001A1E  C02B  FFF6         	movff	??i2_USBStdGetDscHandler,tblptrl
 10182  001A22  C02C  FFF7         	movff	??i2_USBStdGetDscHandler+1,tblptrh
 10183  001A26  6AF8               	clrf	tblptru,c
 10184  001A28  0E07               	movlw	(high __ramtop+-1)
 10185  001A2A  64F7               	cpfsgt	tblptrh,c
 10186  001A2C  D003               	bra	i2u332_47
 10187  001A2E  0008               	tblrd		*
 10188  001A30  50F5               	movf	tablat,w,c
 10189  001A32  D005               	bra	i2u332_40
 10190  001A34                     i2u332_47:
 10191  001A34  CFF6 FFE1          	movff	tblptrl,fsr1l
 10192  001A38  CFF7 FFE2          	movff	tblptrh,fsr1h
 10193  001A3C  50E7               	movf	indf1,w,c
 10194  001A3E                     i2u332_40:
 10195  001A3E  6E0D               	movwf	(_inPipes+4)^0,c	;volatile
 10196  001A40                     
 10197                           ;usb_device.c: 2081:                     inPipes[0].wCount.byte.HB = *(inPipes[0].pSrc.b
      +                          Rom+3);
 10198  001A40  0E03               	movlw	3
 10199  001A42  2409               	addwf	_inPipes^0,w,c	;volatile
 10200  001A44  6E2B               	movwf	??i2_USBStdGetDscHandler^0,c
 10201  001A46  0E00               	movlw	0
 10202  001A48  200A               	addwfc	(_inPipes+1)^0,w,c	;volatile
 10203  001A4A  6E2C               	movwf	(??i2_USBStdGetDscHandler+1)^0,c
 10204  001A4C  C02B  FFF6         	movff	??i2_USBStdGetDscHandler,tblptrl
 10205  001A50  C02C  FFF7         	movff	??i2_USBStdGetDscHandler+1,tblptrh
 10206  001A54  6AF8               	clrf	tblptru,c
 10207  001A56  0E07               	movlw	(high __ramtop+-1)
 10208  001A58  64F7               	cpfsgt	tblptrh,c
 10209  001A5A  D003               	bra	i2u333_47
 10210  001A5C  0008               	tblrd		*
 10211  001A5E  50F5               	movf	tablat,w,c
 10212  001A60  D005               	bra	i2u333_40
 10213  001A62                     i2u333_47:
 10214  001A62  CFF6 FFE1          	movff	tblptrl,fsr1l
 10215  001A66  CFF7 FFE2          	movff	tblptrh,fsr1h
 10216  001A6A  50E7               	movf	indf1,w,c
 10217  001A6C                     i2u333_40:
 10218  001A6C  6E0E               	movwf	(_inPipes+5)^0,c	;volatile
 10219                           
 10220                           ;usb_device.c: 2082:                 }
 10221  001A6E  EF8A  F00D         	goto	i2l385
 10222  001A72                     i2l4338:
 10223                           
 10224                           ; BSR set to: 4
 10225                           ;usb_device.c: 2084:     {;usb_device.c: 2085:      inPipes[0].info.Val = 0;
 10226  001A72  0E00               	movlw	0
 10227  001A74  6E0C               	movwf	(_inPipes+3)^0,c	;volatile
 10228  001A76  EF8A  F00D         	goto	i2l385
 10229  001A7A                     i2l4340:
 10230                           
 10231                           ; BSR set to: 4
 10232                           ;usb_device.c: 2092:                 if(SetupPkt.bDscIndex<3)
 10233  001A7A  0E03               	movlw	3
 10234  001A7C  6132               	cpfslt	50,b	;volatile
 10235  001A7E  EF43  F00D         	goto	i2u334_41
 10236  001A82  EF45  F00D         	goto	i2u334_40
 10237  001A86                     i2u334_41:
 10238  001A86  EF69  F00D         	goto	i2l4346
 10239  001A8A                     i2u334_40:
 10240  001A8A                     
 10241                           ; BSR set to: 4
 10242                           ;usb_device.c: 2093:                 {;usb_device.c: 2095:                     inPipes[0
      +                          ].pSrc.bRom = *(USB_SD_Ptr+SetupPkt.bDscIndex);
 10243  001A8A  5132               	movf	50,w,b	;volatile
 10244  001A8C  0D02               	mullw	2
 10245  001A8E  0E01               	movlw	low _USB_SD_Ptr
 10246  001A90  24F3               	addwf	243,w,c
 10247  001A92  6EF6               	movwf	tblptrl,c
 10248  001A94  0E08               	movlw	high _USB_SD_Ptr
 10249  001A96  20F4               	addwfc	244,w,c
 10250  001A98  6EF7               	movwf	tblptrh,c
 10251  001A9A                     	if	0	;There are less than 3 active tblptr bytes
 10252  001A9A                     	endif
 10253  001A9A  0009               	tblrd		*+
 10254  001A9C  CFF5 F009          	movff	tablat,_inPipes	;volatile
 10255  001AA0  000A               	tblrd		*-
 10256  001AA2  CFF5 F00A          	movff	tablat,_inPipes+1	;volatile
 10257  001AA6                     
 10258                           ; BSR set to: 4
 10259                           ;usb_device.c: 2097:                     inPipes[0].wCount.Val = *inPipes[0].pSrc.bRom;
 10260  001AA6  C009  FFF6         	movff	_inPipes,tblptrl	;volatile
 10261  001AAA  C00A  FFF7         	movff	_inPipes+1,tblptrh	;volatile
 10262  001AAE  6AF8               	clrf	tblptru,c
 10263  001AB0  0E07               	movlw	(high __ramtop+-1)
 10264  001AB2  64F7               	cpfsgt	tblptrh,c
 10265  001AB4  D003               	bra	i2u335_47
 10266  001AB6  0008               	tblrd		*
 10267  001AB8  50F5               	movf	tablat,w,c
 10268  001ABA  D005               	bra	i2u335_40
 10269  001ABC                     i2u335_47:
 10270  001ABC  CFF6 FFE1          	movff	tblptrl,fsr1l
 10271  001AC0  CFF7 FFE2          	movff	tblptrh,fsr1h
 10272  001AC4  50E7               	movf	indf1,w,c
 10273  001AC6                     i2u335_40:
 10274  001AC6  6E2B               	movwf	??i2_USBStdGetDscHandler^0,c
 10275  001AC8  502B               	movf	??i2_USBStdGetDscHandler^0,w,c
 10276  001ACA  6E0D               	movwf	(_inPipes+4)^0,c	;volatile
 10277  001ACC  6A0E               	clrf	(_inPipes+5)^0,c	;volatile
 10278                           
 10279                           ;usb_device.c: 2098:                 }
 10280  001ACE  EF8A  F00D         	goto	i2l385
 10281  001AD2                     i2l4346:
 10282                           
 10283                           ; BSR set to: 4
 10284                           ;usb_device.c: 2109:                 {;usb_device.c: 2110:                     inPipes[0
      +                          ].info.Val = 0;
 10285  001AD2  0E00               	movlw	0
 10286  001AD4  6E0C               	movwf	(_inPipes+3)^0,c	;volatile
 10287  001AD6  EF8A  F00D         	goto	i2l385
 10288  001ADA                     i2l4348:
 10289                           
 10290                           ; BSR set to: 4
 10291                           ;usb_device.c: 2114:                 inPipes[0].info.Val = 0;
 10292  001ADA  0E00               	movlw	0
 10293  001ADC  6E0C               	movwf	(_inPipes+3)^0,c	;volatile
 10294                           
 10295                           ;usb_device.c: 2115:                 break;
 10296  001ADE  EF8A  F00D         	goto	i2l385
 10297  001AE2                     i2l4352:
 10298                           
 10299                           ; BSR set to: 4
 10300  001AE2  5133               	movf	51,w,b	;volatile
 10301  001AE4  6E2B               	movwf	??i2_USBStdGetDscHandler^0,c
 10302  001AE6  6A2C               	clrf	(??i2_USBStdGetDscHandler+1)^0,c
 10303                           
 10304                           ; Switch on 2 bytes has been partitioned into a top level switch of size 1, and 1 sub-sw
      +                          itches
 10305                           ; Switch size 1, requested type "simple"
 10306                           ; Number of cases is 1, Range of values is 0 to 0
 10307                           ; switch strategies available:
 10308                           ; Name         Instructions Cycles
 10309                           ; simple_byte            4     3 (average)
 10310                           ;	Chosen strategy is simple_byte
 10311  001AE8  502C               	movf	(??i2_USBStdGetDscHandler+1)^0,w,c
 10312  001AEA  0A00               	xorlw	0	; case 0
 10313  001AEC  B4D8               	btfsc	status,2,c
 10314  001AEE  EF7B  F00D         	goto	i2l7710
 10315  001AF2  EF6D  F00D         	goto	i2l4348
 10316  001AF6                     i2l7710:
 10317                           
 10318                           ; BSR set to: 4
 10319                           ; Switch size 1, requested type "simple"
 10320                           ; Number of cases is 3, Range of values is 1 to 3
 10321                           ; switch strategies available:
 10322                           ; Name         Instructions Cycles
 10323                           ; simple_byte           10     6 (average)
 10324                           ;	Chosen strategy is simple_byte
 10325  001AF6  502B               	movf	??i2_USBStdGetDscHandler^0,w,c
 10326  001AF8  0A01               	xorlw	1	; case 1
 10327  001AFA  B4D8               	btfsc	status,2,c
 10328  001AFC  EFE9  F00C         	goto	i2l4326
 10329  001B00  0A03               	xorlw	3	; case 2
 10330  001B02  B4D8               	btfsc	status,2,c
 10331  001B04  EFF3  F00C         	goto	i2l4330
 10332  001B08  0A01               	xorlw	1	; case 3
 10333  001B0A  B4D8               	btfsc	status,2,c
 10334  001B0C  EF3D  F00D         	goto	i2l4340
 10335  001B10  EF6D  F00D         	goto	i2l4348
 10336  001B14                     i2l385:
 10337  001B14  0012               	return		;funcret
 10338  001B16                     __end_ofi2_USBStdGetDscHandler:
 10339                           	opt callstack 0
 10340                           
 10341 ;; *************** function i2_USBStdFeatureReqHandler *****************
 10342 ;; Defined at:
 10343 ;;		line 2760 in file "usb_device.c"
 10344 ;; Parameters:    Size  Location     Type
 10345 ;;		None
 10346 ;; Auto vars:     Size  Location     Type
 10347 ;;  USBStdFeatur    2   25[COMRAM] PTR struct __BDT
 10348 ;;		 -> RAM(2047), NULL(0), BDT(48), 
 10349 ;;  USBStdFeatur    2   22[COMRAM] PTR unsigned char 
 10350 ;;		 -> UEP0(1), 
 10351 ;;  USBStdFeatur    1   24[COMRAM] struct .
 10352 ;; Return value:  Size  Location     Type
 10353 ;;                  1    wreg      void 
 10354 ;; Registers used:
 10355 ;;		wreg, fsr2l, fsr2h, status,2, status,0, prodl, prodh, cstack
 10356 ;; Tracked objects:
 10357 ;;		On entry : 0/0
 10358 ;;		On exit  : 0/0
 10359 ;;		Unchanged: 0/0
 10360 ;; Data sizes:     COMRAM   BANK0   BANK1   BANK2   BANK3  BANK4h  BANK4l   BANK5   BANK6   BANK7
 10361 ;;      Params:         0       0       0       0       0       0       0       0       0       0
 10362 ;;      Locals:         5       0       0       0       0       0       0       0       0       0
 10363 ;;      Temps:          2       0       0       0       0       0       0       0       0       0
 10364 ;;      Totals:         7       0       0       0       0       0       0       0       0       0
 10365 ;;Total ram usage:        7 bytes
 10366 ;; Hardware stack levels used:    1
 10367 ;; Hardware stack levels required when called:    4
 10368 ;; This function calls:
 10369 ;;		i2_USER_USB_CALLBACK_EVENT_HANDLER
 10370 ;; This function is called by:
 10371 ;;		i2_USBCheckStdRequest
 10372 ;; This function uses a non-reentrant model
 10373 ;;
 10374                           
 10375                           	psect	text54
 10376  000C20                     __ptext54:
 10377                           	opt callstack 0
 10378  000C20                     i2_USBStdFeatureReqHandler:
 10379                           	opt callstack 11
 10380  000C20                     
 10381                           ;usb_device.c: 2762:     BDT_ENTRY *p;;usb_device.c: 2763:     EP_STATUS current_ep_data
      +                          ;;usb_device.c: 2767:         unsigned char* pUEP;;usb_device.c: 2805:     if((SetupPkt.
      +                          bFeature == 1)&&
 10382  000C20  0104               	movlb	4	; () banked
 10383  000C22  0532               	decf	50,w,b	;volatile
 10384  000C24  A4D8               	btfss	status,2,c
 10385  000C26  EF17  F006         	goto	i2u341_41
 10386  000C2A  EF19  F006         	goto	i2u341_40
 10387  000C2E                     i2u341_41:
 10388  000C2E  EF33  F006         	goto	i2l466
 10389  000C32                     i2u341_40:
 10390  000C32                     
 10391                           ; BSR set to: 4
 10392  000C32  5130               	movf	48,w,b	;volatile
 10393  000C34  0B1F               	andlw	31
 10394  000C36  0900               	iorlw	0
 10395  000C38  A4D8               	btfss	status,2,c
 10396  000C3A  EF21  F006         	goto	i2u342_41
 10397  000C3E  EF23  F006         	goto	i2u342_40
 10398  000C42                     i2u342_41:
 10399  000C42  EF33  F006         	goto	i2l466
 10400  000C46                     i2u342_40:
 10401  000C46                     
 10402                           ; BSR set to: 4
 10403                           ;usb_device.c: 2807:     {;usb_device.c: 2808:         inPipes[0].info.bits.busy = 1;
 10404  000C46  8E0C               	bsf	(_inPipes+3)^0,7,c	;volatile
 10405  000C48                     
 10406                           ; BSR set to: 4
 10407                           ;usb_device.c: 2809:         if(SetupPkt.bRequest == 3)
 10408  000C48  0E03               	movlw	3
 10409  000C4A  1931               	xorwf	49,w,b	;volatile
 10410  000C4C  A4D8               	btfss	status,2,c
 10411  000C4E  EF2B  F006         	goto	i2u343_41
 10412  000C52  EF2D  F006         	goto	i2u343_40
 10413  000C56                     i2u343_41:
 10414  000C56  EF31  F006         	goto	i2l4404
 10415  000C5A                     i2u343_40:
 10416  000C5A                     
 10417                           ; BSR set to: 4
 10418                           ;usb_device.c: 2810:             RemoteWakeup = 1;
 10419  000C5A  0E01               	movlw	1
 10420  000C5C  6E26               	movwf	_RemoteWakeup^0,c	;volatile
 10421  000C5E  EF33  F006         	goto	i2l466
 10422  000C62                     i2l4404:
 10423                           
 10424                           ; BSR set to: 4
 10425                           ;usb_device.c: 2812:             RemoteWakeup = 0;
 10426  000C62  0E00               	movlw	0
 10427  000C64  6E26               	movwf	_RemoteWakeup^0,c	;volatile
 10428  000C66                     i2l466:
 10429                           
 10430                           ; BSR set to: 4
 10431                           ;usb_device.c: 2816:     if((SetupPkt.bFeature == 0)&&
 10432  000C66  5132               	movf	50,w,b	;volatile
 10433  000C68  A4D8               	btfss	status,2,c
 10434  000C6A  EF39  F006         	goto	i2u344_41
 10435  000C6E  EF3B  F006         	goto	i2u344_40
 10436  000C72                     i2u344_41:
 10437  000C72  EFB5  F007         	goto	i2l489
 10438  000C76                     i2u344_40:
 10439  000C76                     
 10440                           ; BSR set to: 4
 10441  000C76  5130               	movf	48,w,b	;volatile
 10442  000C78  0B1F               	andlw	31
 10443  000C7A  0A02               	xorlw	2
 10444  000C7C  A4D8               	btfss	status,2,c
 10445  000C7E  EF43  F006         	goto	i2u345_41
 10446  000C82  EF45  F006         	goto	i2u345_40
 10447  000C86                     i2u345_41:
 10448  000C86  EFB5  F007         	goto	i2l489
 10449  000C8A                     i2u345_40:
 10450  000C8A                     
 10451                           ; BSR set to: 4
 10452  000C8A  5134               	movf	52,w,b	;volatile
 10453  000C8C  0B0F               	andlw	15
 10454  000C8E  0900               	iorlw	0
 10455  000C90  B4D8               	btfsc	status,2,c
 10456  000C92  EF4D  F006         	goto	i2u346_41
 10457  000C96  EF4F  F006         	goto	i2u346_40
 10458  000C9A                     i2u346_41:
 10459  000C9A  EFB5  F007         	goto	i2l489
 10460  000C9E                     i2u346_40:
 10461  000C9E                     
 10462                           ; BSR set to: 4
 10463  000C9E  5134               	movf	52,w,b	;volatile
 10464  000CA0  0B0F               	andlw	15
 10465  000CA2  6E3F               	movwf	??i2_USBStdFeatureReqHandler^0,c
 10466  000CA4  0E03               	movlw	3
 10467  000CA6  603F               	cpfslt	??i2_USBStdFeatureReqHandler^0,c
 10468  000CA8  EF58  F006         	goto	i2u347_41
 10469  000CAC  EF5A  F006         	goto	i2u347_40
 10470  000CB0                     i2u347_41:
 10471  000CB0  EFB5  F007         	goto	i2l489
 10472  000CB4                     i2u347_40:
 10473  000CB4                     
 10474                           ; BSR set to: 4
 10475  000CB4  0E20               	movlw	32
 10476  000CB6  1829               	xorwf	_USBDeviceState^0,w,c	;volatile
 10477  000CB8  A4D8               	btfss	status,2,c
 10478  000CBA  EF61  F006         	goto	i2u348_41
 10479  000CBE  EF63  F006         	goto	i2u348_40
 10480  000CC2                     i2u348_41:
 10481  000CC2  EFB5  F007         	goto	i2l489
 10482  000CC6                     i2u348_40:
 10483  000CC6                     
 10484                           ; BSR set to: 4
 10485                           ;usb_device.c: 2820:     {;usb_device.c: 2823:   inPipes[0].info.bits.busy = 1;
 10486  000CC6  8E0C               	bsf	(_inPipes+3)^0,7,c	;volatile
 10487                           
 10488                           ;usb_device.c: 2826:         if(SetupPkt.EPDir == 0)
 10489  000CC8  BF34               	btfsc	52,7,b	;volatile
 10490  000CCA  EF69  F006         	goto	i2u349_41
 10491  000CCE  EF6B  F006         	goto	i2u349_40
 10492  000CD2                     i2u349_41:
 10493  000CD2  EF88  F006         	goto	i2l4420
 10494  000CD6                     i2u349_40:
 10495  000CD6                     
 10496                           ; BSR set to: 4
 10497                           ;usb_device.c: 2827:         {;usb_device.c: 2828:             p = (BDT_ENTRY*)pBDTEntry
      +                          Out[SetupPkt.EPNum];
 10498  000CD6  5134               	movf	52,w,b	;volatile
 10499  000CD8  0B0F               	andlw	15
 10500  000CDA  6E3F               	movwf	??i2_USBStdFeatureReqHandler^0,c
 10501  000CDC  503F               	movf	??i2_USBStdFeatureReqHandler^0,w,c
 10502  000CDE  0D02               	mullw	2
 10503  000CE0  0EAA               	movlw	low _pBDTEntryOut
 10504  000CE2  24F3               	addwf	243,w,c
 10505  000CE4  6ED9               	movwf	fsr2l,c
 10506  000CE6  0E00               	movlw	high _pBDTEntryOut
 10507  000CE8  20F4               	addwfc	prodh,w,c
 10508  000CEA  6EDA               	movwf	fsr2h,c
 10509  000CEC  CFDE F044          	movff	postinc2,i2USBStdFeatureReqHandler@p
 10510  000CF0  CFDD F045          	movff	postdec2,i2USBStdFeatureReqHandler@p+1
 10511  000CF4                     
 10512                           ; BSR set to: 4
 10513                           ;usb_device.c: 2829:             current_ep_data.Val = ep_data_out[SetupPkt.EPNum].Val;
 10514  000CF4  5134               	movf	52,w,b	;volatile
 10515  000CF6  0B0F               	andlw	15
 10516  000CF8  6E3F               	movwf	??i2_USBStdFeatureReqHandler^0,c
 10517  000CFA  6A40               	clrf	(??i2_USBStdFeatureReqHandler+1)^0,c
 10518  000CFC  0E15               	movlw	low _ep_data_out
 10519  000CFE  243F               	addwf	??i2_USBStdFeatureReqHandler^0,w,c
 10520  000D00  6ED9               	movwf	fsr2l,c
 10521  000D02  0E00               	movlw	high _ep_data_out
 10522  000D04  2040               	addwfc	(??i2_USBStdFeatureReqHandler+1)^0,w,c
 10523  000D06  6EDA               	movwf	fsr2h,c
 10524  000D08  50DF               	movf	indf2,w,c
 10525  000D0A  6E43               	movwf	i2USBStdFeatureReqHandler@current_ep_data^0,c
 10526                           
 10527                           ;usb_device.c: 2830:         }
 10528  000D0C  EFA3  F006         	goto	i2l4424
 10529  000D10                     i2l4420:
 10530                           
 10531                           ; BSR set to: 4
 10532                           ;usb_device.c: 2832:         {;usb_device.c: 2833:             p = (BDT_ENTRY*)pBDTEntry
      +                          In[SetupPkt.EPNum];
 10533  000D10  5134               	movf	52,w,b	;volatile
 10534  000D12  0B0F               	andlw	15
 10535  000D14  6E3F               	movwf	??i2_USBStdFeatureReqHandler^0,c
 10536  000D16  503F               	movf	??i2_USBStdFeatureReqHandler^0,w,c
 10537  000D18  0D02               	mullw	2
 10538  000D1A  0E0F               	movlw	low _pBDTEntryIn
 10539  000D1C  24F3               	addwf	243,w,c
 10540  000D1E  6ED9               	movwf	fsr2l,c
 10541  000D20  0E00               	movlw	high _pBDTEntryIn
 10542  000D22  20F4               	addwfc	prodh,w,c
 10543  000D24  6EDA               	movwf	fsr2h,c
 10544  000D26  CFDE F044          	movff	postinc2,i2USBStdFeatureReqHandler@p
 10545  000D2A  CFDD F045          	movff	postdec2,i2USBStdFeatureReqHandler@p+1
 10546  000D2E                     
 10547                           ; BSR set to: 4
 10548                           ;usb_device.c: 2834:             current_ep_data.Val = ep_data_in[SetupPkt.EPNum].Val;
 10549  000D2E  5134               	movf	52,w,b	;volatile
 10550  000D30  0B0F               	andlw	15
 10551  000D32  6E3F               	movwf	??i2_USBStdFeatureReqHandler^0,c
 10552  000D34  6A40               	clrf	(??i2_USBStdFeatureReqHandler+1)^0,c
 10553  000D36  0E18               	movlw	low _ep_data_in
 10554  000D38  243F               	addwf	??i2_USBStdFeatureReqHandler^0,w,c
 10555  000D3A  6ED9               	movwf	fsr2l,c
 10556  000D3C  0E00               	movlw	high _ep_data_in
 10557  000D3E  2040               	addwfc	(??i2_USBStdFeatureReqHandler+1)^0,w,c
 10558  000D40  6EDA               	movwf	fsr2h,c
 10559  000D42  50DF               	movf	indf2,w,c
 10560  000D44  6E43               	movwf	i2USBStdFeatureReqHandler@current_ep_data^0,c
 10561  000D46                     i2l4424:
 10562                           
 10563                           ; BSR set to: 4
 10564                           ;usb_device.c: 2841:             if(current_ep_data.bits.ping_pong_state == 0)
 10565  000D46  B043               	btfsc	i2USBStdFeatureReqHandler@current_ep_data^0,0,c
 10566  000D48  EFA8  F006         	goto	i2u350_41
 10567  000D4C  EFAA  F006         	goto	i2u350_40
 10568  000D50                     i2u350_41:
 10569  000D50  EFB2  F006         	goto	i2l4428
 10570  000D54                     i2u350_40:
 10571  000D54                     
 10572                           ; BSR set to: 4
 10573                           ;usb_device.c: 2842:             {;usb_device.c: 2843:                 p = (BDT_ENTRY*)(
      +                          ((uint16_t)p) & (~0x0004));
 10574  000D54  0EFB               	movlw	251
 10575  000D56  1444               	andwf	i2USBStdFeatureReqHandler@p^0,w,c
 10576  000D58  6E44               	movwf	i2USBStdFeatureReqHandler@p^0,c
 10577  000D5A  0EFF               	movlw	255
 10578  000D5C  1445               	andwf	(i2USBStdFeatureReqHandler@p+1)^0,w,c
 10579  000D5E  6E45               	movwf	(i2USBStdFeatureReqHandler@p+1)^0,c
 10580                           
 10581                           ;usb_device.c: 2844:             }
 10582  000D60  EFB7  F006         	goto	i2l4430
 10583  000D64                     i2l4428:
 10584                           
 10585                           ; BSR set to: 4
 10586                           ;usb_device.c: 2846:             {;usb_device.c: 2847:                 p = (BDT_ENTRY*)(
      +                          ((uint16_t)p) | 0x0004);
 10587  000D64  0E04               	movlw	4
 10588  000D66  1044               	iorwf	i2USBStdFeatureReqHandler@p^0,w,c
 10589  000D68  6E44               	movwf	i2USBStdFeatureReqHandler@p^0,c
 10590  000D6A  5045               	movf	(i2USBStdFeatureReqHandler@p+1)^0,w,c
 10591  000D6C  6E45               	movwf	(i2USBStdFeatureReqHandler@p+1)^0,c
 10592  000D6E                     i2l4430:
 10593                           
 10594                           ; BSR set to: 4
 10595                           ;usb_device.c: 2853:         if(SetupPkt.EPDir == 0)
 10596  000D6E  BF34               	btfsc	52,7,b	;volatile
 10597  000D70  EFBC  F006         	goto	i2u351_41
 10598  000D74  EFBE  F006         	goto	i2u351_40
 10599  000D78                     i2u351_41:
 10600  000D78  EFCF  F006         	goto	i2l4434
 10601  000D7C                     i2u351_40:
 10602  000D7C                     
 10603                           ; BSR set to: 4
 10604                           ;usb_device.c: 2854:         {;usb_device.c: 2855:             pBDTEntryOut[SetupPkt.EPN
      +                          um] = (volatile BDT_ENTRY *)p;
 10605  000D7C  5134               	movf	52,w,b	;volatile
 10606  000D7E  0B0F               	andlw	15
 10607  000D80  6E3F               	movwf	??i2_USBStdFeatureReqHandler^0,c
 10608  000D82  503F               	movf	??i2_USBStdFeatureReqHandler^0,w,c
 10609  000D84  0D02               	mullw	2
 10610  000D86  0EAA               	movlw	low _pBDTEntryOut
 10611  000D88  24F3               	addwf	243,w,c
 10612  000D8A  6ED9               	movwf	fsr2l,c
 10613  000D8C  0E00               	movlw	high _pBDTEntryOut
 10614  000D8E  20F4               	addwfc	prodh,w,c
 10615  000D90  6EDA               	movwf	fsr2h,c
 10616  000D92  C044  FFDE         	movff	i2USBStdFeatureReqHandler@p,postinc2
 10617  000D96  C045  FFDD         	movff	i2USBStdFeatureReqHandler@p+1,postdec2
 10618                           
 10619                           ;usb_device.c: 2856:         }
 10620  000D9A  EFDE  F006         	goto	i2l4436
 10621  000D9E                     i2l4434:
 10622                           
 10623                           ; BSR set to: 4
 10624                           ;usb_device.c: 2858:         {;usb_device.c: 2859:             pBDTEntryIn[SetupPkt.EPNu
      +                          m] = (volatile BDT_ENTRY *)p;
 10625  000D9E  5134               	movf	52,w,b	;volatile
 10626  000DA0  0B0F               	andlw	15
 10627  000DA2  6E3F               	movwf	??i2_USBStdFeatureReqHandler^0,c
 10628  000DA4  503F               	movf	??i2_USBStdFeatureReqHandler^0,w,c
 10629  000DA6  0D02               	mullw	2
 10630  000DA8  0E0F               	movlw	low _pBDTEntryIn
 10631  000DAA  24F3               	addwf	243,w,c
 10632  000DAC  6ED9               	movwf	fsr2l,c
 10633  000DAE  0E00               	movlw	high _pBDTEntryIn
 10634  000DB0  20F4               	addwfc	prodh,w,c
 10635  000DB2  6EDA               	movwf	fsr2h,c
 10636  000DB4  C044  FFDE         	movff	i2USBStdFeatureReqHandler@p,postinc2
 10637  000DB8  C045  FFDD         	movff	i2USBStdFeatureReqHandler@p+1,postdec2
 10638  000DBC                     i2l4436:
 10639                           
 10640                           ; BSR set to: 4
 10641                           ;usb_device.c: 2863:         if(SetupPkt.bRequest == 3)
 10642  000DBC  0E03               	movlw	3
 10643  000DBE  1931               	xorwf	49,w,b	;volatile
 10644  000DC0  A4D8               	btfss	status,2,c
 10645  000DC2  EFE5  F006         	goto	i2u352_41
 10646  000DC6  EFE7  F006         	goto	i2u352_40
 10647  000DCA                     i2u352_41:
 10648  000DCA  EF1F  F007         	goto	i2l4446
 10649  000DCE                     i2u352_40:
 10650  000DCE                     
 10651                           ; BSR set to: 4
 10652                           ;usb_device.c: 2864:         {;usb_device.c: 2865:             if(p->STAT.UOWN == 1)
 10653  000DCE  C044  FFD9         	movff	i2USBStdFeatureReqHandler@p,fsr2l
 10654  000DD2  C045  FFDA         	movff	i2USBStdFeatureReqHandler@p+1,fsr2h
 10655  000DD6  AEDF               	btfss	indf2,7,c
 10656  000DD8  EFF0  F006         	goto	i2u353_41
 10657  000DDC  EFF2  F006         	goto	i2u353_40
 10658  000DE0                     i2u353_41:
 10659  000DE0  EF11  F007         	goto	i2l477
 10660  000DE4                     i2u353_40:
 10661  000DE4                     
 10662                           ; BSR set to: 4
 10663                           ;usb_device.c: 2866:             {;usb_device.c: 2869:                 if(SetupPkt.EPDir
      +                           == 0)
 10664  000DE4  BF34               	btfsc	52,7,b	;volatile
 10665  000DE6  EFF7  F006         	goto	i2u354_41
 10666  000DEA  EFF9  F006         	goto	i2u354_40
 10667  000DEE                     i2u354_41:
 10668  000DEE  EF06  F007         	goto	i2l4444
 10669  000DF2                     i2u354_40:
 10670  000DF2                     
 10671                           ; BSR set to: 4
 10672                           ;usb_device.c: 2870:                 {;usb_device.c: 2871:                     ep_data_o
      +                          ut[SetupPkt.EPNum].bits.transfer_terminated = 1;
 10673  000DF2  5134               	movf	52,w,b	;volatile
 10674  000DF4  0B0F               	andlw	15
 10675  000DF6  6E3F               	movwf	??i2_USBStdFeatureReqHandler^0,c
 10676  000DF8  6A40               	clrf	(??i2_USBStdFeatureReqHandler+1)^0,c
 10677  000DFA  0E15               	movlw	low _ep_data_out
 10678  000DFC  243F               	addwf	??i2_USBStdFeatureReqHandler^0,w,c
 10679  000DFE  6ED9               	movwf	fsr2l,c
 10680  000E00  0E00               	movlw	high _ep_data_out
 10681  000E02  2040               	addwfc	(??i2_USBStdFeatureReqHandler+1)^0,w,c
 10682  000E04  6EDA               	movwf	fsr2h,c
 10683  000E06  82DF               	bsf	indf2,1,c
 10684                           
 10685                           ;usb_device.c: 2872:                 }
 10686  000E08  EF11  F007         	goto	i2l477
 10687  000E0C                     i2l4444:
 10688                           
 10689                           ; BSR set to: 4
 10690                           ;usb_device.c: 2874:                 {;usb_device.c: 2875:                     ep_data_i
      +                          n[SetupPkt.EPNum].bits.transfer_terminated = 1;
 10691  000E0C  5134               	movf	52,w,b	;volatile
 10692  000E0E  0B0F               	andlw	15
 10693  000E10  6E3F               	movwf	??i2_USBStdFeatureReqHandler^0,c
 10694  000E12  6A40               	clrf	(??i2_USBStdFeatureReqHandler+1)^0,c
 10695  000E14  0E18               	movlw	low _ep_data_in
 10696  000E16  243F               	addwf	??i2_USBStdFeatureReqHandler^0,w,c
 10697  000E18  6ED9               	movwf	fsr2l,c
 10698  000E1A  0E00               	movlw	high _ep_data_in
 10699  000E1C  2040               	addwfc	(??i2_USBStdFeatureReqHandler+1)^0,w,c
 10700  000E1E  6EDA               	movwf	fsr2h,c
 10701  000E20  82DF               	bsf	indf2,1,c
 10702  000E22                     i2l477:
 10703                           
 10704                           ; BSR set to: 4
 10705                           ;usb_device.c: 2880:             p->STAT.Val |= 0x04;
 10706  000E22  C044  FFD9         	movff	i2USBStdFeatureReqHandler@p,fsr2l
 10707  000E26  C045  FFDA         	movff	i2USBStdFeatureReqHandler@p+1,fsr2h
 10708  000E2A  0E00               	movlw	0
 10709  000E2C  84DB               	bsf	plusw2,2,c
 10710                           
 10711                           ;usb_device.c: 2881:             p->STAT.Val |= 0x80;
 10712  000E2E  C044  FFD9         	movff	i2USBStdFeatureReqHandler@p,fsr2l
 10713  000E32  C045  FFDA         	movff	i2USBStdFeatureReqHandler@p+1,fsr2h
 10714  000E36  0E00               	movlw	0
 10715  000E38  8EDB               	bsf	plusw2,7,c
 10716                           
 10717                           ;usb_device.c: 2882:         }
 10718  000E3A  EFB5  F007         	goto	i2l489
 10719  000E3E                     i2l4446:
 10720                           
 10721                           ; BSR set to: 4
 10722                           ;usb_device.c: 2884:         {;usb_device.c: 2888:                 p = (BDT_ENTRY*)(((ui
      +                          nt16_t)p) ^ 0x0004);
 10723  000E3E  0E04               	movlw	4
 10724  000E40  1844               	xorwf	i2USBStdFeatureReqHandler@p^0,w,c
 10725  000E42  6E44               	movwf	i2USBStdFeatureReqHandler@p^0,c
 10726  000E44  5045               	movf	(i2USBStdFeatureReqHandler@p+1)^0,w,c
 10727  000E46  6E45               	movwf	(i2USBStdFeatureReqHandler@p+1)^0,c
 10728  000E48                     
 10729                           ; BSR set to: 4
 10730                           ;usb_device.c: 2890:                 if(p->STAT.UOWN == 1)
 10731  000E48  C044  FFD9         	movff	i2USBStdFeatureReqHandler@p,fsr2l
 10732  000E4C  C045  FFDA         	movff	i2USBStdFeatureReqHandler@p+1,fsr2h
 10733  000E50  AEDF               	btfss	indf2,7,c
 10734  000E52  EF2D  F007         	goto	i2u355_41
 10735  000E56  EF2F  F007         	goto	i2u355_40
 10736  000E5A                     i2u355_41:
 10737  000E5A  EF4B  F007         	goto	i2l4456
 10738  000E5E                     i2u355_40:
 10739  000E5E                     
 10740                           ; BSR set to: 4
 10741                           ;usb_device.c: 2891:                 {;usb_device.c: 2894:                     p->STAT.V
      +                          al &= (~0x80);
 10742  000E5E  C044  FFD9         	movff	i2USBStdFeatureReqHandler@p,fsr2l
 10743  000E62  C045  FFDA         	movff	i2USBStdFeatureReqHandler@p+1,fsr2h
 10744  000E66  0E7F               	movlw	127
 10745  000E68  16DF               	andwf	indf2,f,c
 10746  000E6A                     
 10747                           ; BSR set to: 4
 10748                           ;usb_device.c: 2895:                     p->STAT.Val |= 0x40;
 10749  000E6A  C044  FFD9         	movff	i2USBStdFeatureReqHandler@p,fsr2l
 10750  000E6E  C045  FFDA         	movff	i2USBStdFeatureReqHandler@p+1,fsr2h
 10751  000E72  0E00               	movlw	0
 10752  000E74  8CDB               	bsf	plusw2,6,c
 10753  000E76                     
 10754                           ; BSR set to: 4
 10755                           ;usb_device.c: 2896:                     USER_USB_CALLBACK_EVENT_HANDLER((USB_EVENT)EVEN
      +                          T_TRANSFER_TERMINATED,p,sizeof(p));
 10756  000E76  0E00               	movlw	0
 10757  000E78  6E38               	movwf	(i2USER_USB_CALLBACK_EVENT_HANDLER@event+1)^0,c
 10758  000E7A  0E05               	movlw	5
 10759  000E7C  6E37               	movwf	i2USER_USB_CALLBACK_EVENT_HANDLER@event^0,c
 10760  000E7E  C044  F039         	movff	i2USBStdFeatureReqHandler@p,i2USER_USB_CALLBACK_EVENT_HANDLER@pdata
 10761  000E82  C045  F03A         	movff	i2USBStdFeatureReqHandler@p+1,i2USER_USB_CALLBACK_EVENT_HANDLER@pdata+1
 10762  000E86  0E00               	movlw	0
 10763  000E88  6E3C               	movwf	(i2USER_USB_CALLBACK_EVENT_HANDLER@size+1)^0,c
 10764  000E8A  0E02               	movlw	2
 10765  000E8C  6E3B               	movwf	i2USER_USB_CALLBACK_EVENT_HANDLER@size^0,c
 10766  000E8E  ECA6  F01C         	call	i2_USER_USB_CALLBACK_EVENT_HANDLER	;wreg free
 10767                           
 10768                           ;usb_device.c: 2897:                 }
 10769  000E92  EF51  F007         	goto	i2l4458
 10770  000E96                     i2l4456:
 10771                           
 10772                           ; BSR set to: 4
 10773                           ;usb_device.c: 2899:                 {;usb_device.c: 2901:      p->STAT.Val |= 0x40;
 10774  000E96  C044  FFD9         	movff	i2USBStdFeatureReqHandler@p,fsr2l
 10775  000E9A  C045  FFDA         	movff	i2USBStdFeatureReqHandler@p+1,fsr2h
 10776  000E9E  0E00               	movlw	0
 10777  000EA0  8CDB               	bsf	plusw2,6,c
 10778  000EA2                     i2l4458:
 10779                           
 10780                           ;usb_device.c: 2906:                 p = (BDT_ENTRY*)(((uint16_t)p) ^ 0x0004);
 10781  000EA2  0E04               	movlw	4
 10782  000EA4  1844               	xorwf	i2USBStdFeatureReqHandler@p^0,w,c
 10783  000EA6  6E44               	movwf	i2USBStdFeatureReqHandler@p^0,c
 10784  000EA8  5045               	movf	(i2USBStdFeatureReqHandler@p+1)^0,w,c
 10785  000EAA  6E45               	movwf	(i2USBStdFeatureReqHandler@p+1)^0,c
 10786  000EAC                     
 10787                           ;usb_device.c: 2912:                 if((current_ep_data.bits.transfer_terminated != 0) 
      +                          || (p->STAT.UOWN == 1))
 10788  000EAC  B243               	btfsc	i2USBStdFeatureReqHandler@current_ep_data^0,1,c
 10789  000EAE  EF5B  F007         	goto	i2u356_41
 10790  000EB2  EF5D  F007         	goto	i2u356_40
 10791  000EB6                     i2u356_41:
 10792  000EB6  EF68  F007         	goto	i2l485
 10793  000EBA                     i2u356_40:
 10794  000EBA  C044  FFD9         	movff	i2USBStdFeatureReqHandler@p,fsr2l
 10795  000EBE  C045  FFDA         	movff	i2USBStdFeatureReqHandler@p+1,fsr2h
 10796  000EC2  AEDF               	btfss	indf2,7,c
 10797  000EC4  EF66  F007         	goto	i2u357_41
 10798  000EC8  EF68  F007         	goto	i2u357_40
 10799  000ECC                     i2u357_41:
 10800  000ECC  EF9E  F007         	goto	i2l4472
 10801  000ED0                     i2u357_40:
 10802  000ED0                     i2l485:
 10803                           
 10804                           ;usb_device.c: 2913:                 {;usb_device.c: 2914:                     if(SetupP
      +                          kt.EPDir == 0)
 10805  000ED0  0104               	movlb	4	; () banked
 10806  000ED2  BF34               	btfsc	52,7,b	;volatile
 10807  000ED4  EF6E  F007         	goto	i2u358_41
 10808  000ED8  EF70  F007         	goto	i2u358_40
 10809  000EDC                     i2u358_41:
 10810  000EDC  EF7D  F007         	goto	i2l4466
 10811  000EE0                     i2u358_40:
 10812  000EE0                     
 10813                           ; BSR set to: 4
 10814                           ;usb_device.c: 2915:                     {;usb_device.c: 2916:                         e
      +                          p_data_out[SetupPkt.EPNum].bits.transfer_terminated = 0;
 10815  000EE0  5134               	movf	52,w,b	;volatile
 10816  000EE2  0B0F               	andlw	15
 10817  000EE4  6E3F               	movwf	??i2_USBStdFeatureReqHandler^0,c
 10818  000EE6  6A40               	clrf	(??i2_USBStdFeatureReqHandler+1)^0,c
 10819  000EE8  0E15               	movlw	low _ep_data_out
 10820  000EEA  243F               	addwf	??i2_USBStdFeatureReqHandler^0,w,c
 10821  000EEC  6ED9               	movwf	fsr2l,c
 10822  000EEE  0E00               	movlw	high _ep_data_out
 10823  000EF0  2040               	addwfc	(??i2_USBStdFeatureReqHandler+1)^0,w,c
 10824  000EF2  6EDA               	movwf	fsr2h,c
 10825  000EF4  92DF               	bcf	indf2,1,c
 10826                           
 10827                           ;usb_device.c: 2917:                     }
 10828  000EF6  EF88  F007         	goto	i2l4468
 10829  000EFA                     i2l4466:
 10830                           
 10831                           ; BSR set to: 4
 10832                           ;usb_device.c: 2919:                     {;usb_device.c: 2920:                         e
      +                          p_data_in[SetupPkt.EPNum].bits.transfer_terminated = 0;
 10833  000EFA  5134               	movf	52,w,b	;volatile
 10834  000EFC  0B0F               	andlw	15
 10835  000EFE  6E3F               	movwf	??i2_USBStdFeatureReqHandler^0,c
 10836  000F00  6A40               	clrf	(??i2_USBStdFeatureReqHandler+1)^0,c
 10837  000F02  0E18               	movlw	low _ep_data_in
 10838  000F04  243F               	addwf	??i2_USBStdFeatureReqHandler^0,w,c
 10839  000F06  6ED9               	movwf	fsr2l,c
 10840  000F08  0E00               	movlw	high _ep_data_in
 10841  000F0A  2040               	addwfc	(??i2_USBStdFeatureReqHandler+1)^0,w,c
 10842  000F0C  6EDA               	movwf	fsr2h,c
 10843  000F0E  92DF               	bcf	indf2,1,c
 10844  000F10                     i2l4468:
 10845                           
 10846                           ; BSR set to: 4
 10847                           ;usb_device.c: 2923:                     p->STAT.Val &= ~(0x80 | 0x40 | 0x04);
 10848  000F10  C044  FFD9         	movff	i2USBStdFeatureReqHandler@p,fsr2l
 10849  000F14  C045  FFDA         	movff	i2USBStdFeatureReqHandler@p+1,fsr2h
 10850  000F18  0E3B               	movlw	59
 10851  000F1A  16DF               	andwf	indf2,f,c
 10852  000F1C                     
 10853                           ; BSR set to: 4
 10854                           ;usb_device.c: 2926:                     USER_USB_CALLBACK_EVENT_HANDLER((USB_EVENT)EVEN
      +                          T_TRANSFER_TERMINATED,p,sizeof(p));
 10855  000F1C  0E00               	movlw	0
 10856  000F1E  6E38               	movwf	(i2USER_USB_CALLBACK_EVENT_HANDLER@event+1)^0,c
 10857  000F20  0E05               	movlw	5
 10858  000F22  6E37               	movwf	i2USER_USB_CALLBACK_EVENT_HANDLER@event^0,c
 10859  000F24  C044  F039         	movff	i2USBStdFeatureReqHandler@p,i2USER_USB_CALLBACK_EVENT_HANDLER@pdata
 10860  000F28  C045  F03A         	movff	i2USBStdFeatureReqHandler@p+1,i2USER_USB_CALLBACK_EVENT_HANDLER@pdata+1
 10861  000F2C  0E00               	movlw	0
 10862  000F2E  6E3C               	movwf	(i2USER_USB_CALLBACK_EVENT_HANDLER@size+1)^0,c
 10863  000F30  0E02               	movlw	2
 10864  000F32  6E3B               	movwf	i2USER_USB_CALLBACK_EVENT_HANDLER@size^0,c
 10865  000F34  ECA6  F01C         	call	i2_USER_USB_CALLBACK_EVENT_HANDLER	;wreg free
 10866                           
 10867                           ;usb_device.c: 2927:                 }
 10868  000F38  EFA4  F007         	goto	i2l4474
 10869  000F3C                     i2l4472:
 10870                           
 10871                           ;usb_device.c: 2929:                 {;usb_device.c: 2931:                     p->STAT.V
      +                          al &= ~(0x80 | 0x40 | 0x04);
 10872  000F3C  C044  FFD9         	movff	i2USBStdFeatureReqHandler@p,fsr2l
 10873  000F40  C045  FFDA         	movff	i2USBStdFeatureReqHandler@p+1,fsr2h
 10874  000F44  0E3B               	movlw	59
 10875  000F46  16DF               	andwf	indf2,f,c
 10876  000F48                     i2l4474:
 10877                           
 10878                           ;usb_device.c: 2979:                 pUEP = (unsigned char*)(&UEP0+SetupPkt.EPNum);
 10879  000F48  0104               	movlb	4	; () banked
 10880  000F4A  5134               	movf	52,w,b	;volatile
 10881  000F4C  0B0F               	andlw	15
 10882  000F4E  6E3F               	movwf	??i2_USBStdFeatureReqHandler^0,c
 10883  000F50  6A40               	clrf	(??i2_USBStdFeatureReqHandler+1)^0,c
 10884  000F52  0E70               	movlw	112
 10885  000F54  243F               	addwf	??i2_USBStdFeatureReqHandler^0,w,c
 10886  000F56  6E41               	movwf	i2USBStdFeatureReqHandler@pUEP^0,c
 10887  000F58  0E0F               	movlw	15
 10888  000F5A  2040               	addwfc	(??i2_USBStdFeatureReqHandler+1)^0,w,c
 10889  000F5C  6E42               	movwf	(i2USBStdFeatureReqHandler@pUEP+1)^0,c
 10890  000F5E                     
 10891                           ; BSR set to: 4
 10892                           ;usb_device.c: 2983:             *pUEP &= ~0x0001;
 10893  000F5E  C041  FFD9         	movff	i2USBStdFeatureReqHandler@pUEP,fsr2l
 10894  000F62  C042  FFDA         	movff	i2USBStdFeatureReqHandler@pUEP+1,fsr2h
 10895  000F66  0EFE               	movlw	254
 10896  000F68  16DF               	andwf	indf2,f,c
 10897  000F6A                     i2l489:
 10898                           
 10899                           ; BSR set to: 4
 10900  000F6A  0012               	return		;funcret
 10901  000F6C                     __end_ofi2_USBStdFeatureReqHandler:
 10902                           	opt callstack 0
 10903                           
 10904 ;; *************** function i2_USER_USB_CALLBACK_EVENT_HANDLER *****************
 10905 ;; Defined at:
 10906 ;;		line 49 in file "usb_device_events.c"
 10907 ;; Parameters:    Size  Location     Type
 10908 ;;  event           2   12[COMRAM] enum E44
 10909 ;;  pdata           2   14[COMRAM] PTR void 
 10910 ;;		 -> RAM(2047), USTATcopy(1), USBActiveConfiguration(1), NULL(0), 
 10911 ;;		 -> BDT(48), 
 10912 ;;  size            2   16[COMRAM] unsigned short 
 10913 ;; Auto vars:     Size  Location     Type
 10914 ;;		None
 10915 ;; Return value:  Size  Location     Type
 10916 ;;                  1    wreg      _Bool 
 10917 ;; Registers used:
 10918 ;;		wreg, fsr2l, fsr2h, status,2, status,0, prodl, prodh, cstack
 10919 ;; Tracked objects:
 10920 ;;		On entry : 0/0
 10921 ;;		On exit  : 0/0
 10922 ;;		Unchanged: 0/0
 10923 ;; Data sizes:     COMRAM   BANK0   BANK1   BANK2   BANK3  BANK4h  BANK4l   BANK5   BANK6   BANK7
 10924 ;;      Params:         6       0       0       0       0       0       0       0       0       0
 10925 ;;      Locals:         0       0       0       0       0       0       0       0       0       0
 10926 ;;      Temps:          2       0       0       0       0       0       0       0       0       0
 10927 ;;      Totals:         8       0       0       0       0       0       0       0       0       0
 10928 ;;Total ram usage:        8 bytes
 10929 ;; Hardware stack levels used:    1
 10930 ;; Hardware stack levels required when called:    3
 10931 ;; This function calls:
 10932 ;;		i2_CDCInitEP
 10933 ;;		i2_USBCheckCDCRequest
 10934 ;; This function is called by:
 10935 ;;		i2_USBDeviceTasks
 10936 ;;		i2_USBStdSetCfgHandler
 10937 ;;		i2_USBSuspend
 10938 ;;		i2_USBWakeFromSuspend
 10939 ;;		i2_USBCtrlTrfSetupHandler
 10940 ;;		i2_USBCheckStdRequest
 10941 ;;		i2_USBStdFeatureReqHandler
 10942 ;; This function uses a non-reentrant model
 10943 ;;
 10944                           
 10945                           	psect	text55
 10946  00394C                     __ptext55:
 10947                           	opt callstack 0
 10948  00394C                     i2_USER_USB_CALLBACK_EVENT_HANDLER:
 10949                           	opt callstack 15
 10950  00394C                     
 10951                           ;usb_device_events.c: 49: _Bool USER_USB_CALLBACK_EVENT_HANDLER(USB_EVENT event, void *p
      +                          data, uint16_t size);usb_device_events.c: 50: {;usb_device_events.c: 51:     switch( (in
      +                          t) event )
 10952  00394C  EFB0  F01C         	goto	i2l4092
 10953  003950                     i2l4086:
 10954                           
 10955                           ;usb_device_events.c: 76:             CDCInitEP();
 10956  003950  EC92  F01D         	call	i2_CDCInitEP	;wreg free
 10957                           
 10958                           ;usb_device_events.c: 77:             break;
 10959  003954  EFE9  F01C         	goto	i2l636
 10960  003958                     i2l4088:
 10961                           
 10962                           ;usb_device_events.c: 85:             USBCheckCDCRequest();
 10963  003958  EC5C  F017         	call	i2_USBCheckCDCRequest	;wreg free
 10964                           
 10965                           ;usb_device_events.c: 86:             break;
 10966  00395C  EFE9  F01C         	goto	i2l636
 10967  003960                     i2l4092:
 10968  003960  C037  F03D         	movff	i2USER_USB_CALLBACK_EVENT_HANDLER@event,??i2_USER_USB_CALLBACK_EVENT_HANDLER
 10969  003964  C038  F03E         	movff	i2USER_USB_CALLBACK_EVENT_HANDLER@event+1,??i2_USER_USB_CALLBACK_EVENT_HANDLER+1
 10970                           
 10971                           ; Switch on 2 bytes has been partitioned into a top level switch of size 1, and 2 sub-sw
      +                          itches
 10972                           ; Switch size 1, requested type "simple"
 10973                           ; Number of cases is 2, Range of values is 0 to 127
 10974                           ; switch strategies available:
 10975                           ; Name         Instructions Cycles
 10976                           ; simple_byte            7     4 (average)
 10977                           ;	Chosen strategy is simple_byte
 10978  003968  503E               	movf	(??i2_USER_USB_CALLBACK_EVENT_HANDLER+1)^0,w,c
 10979  00396A  0A00               	xorlw	0	; case 0
 10980  00396C  B4D8               	btfsc	status,2,c
 10981  00396E  EFBF  F01C         	goto	i2l7712
 10982  003972  0A7F               	xorlw	127	; case 127
 10983  003974  B4D8               	btfsc	status,2,c
 10984  003976  EFE2  F01C         	goto	i2l7714
 10985  00397A  EFE9  F01C         	goto	i2l636
 10986  00397E                     i2l7712:
 10987                           
 10988                           ; Switch size 1, requested type "simple"
 10989                           ; Number of cases is 8, Range of values is 1 to 117
 10990                           ; switch strategies available:
 10991                           ; Name         Instructions Cycles
 10992                           ; simple_byte           25    13 (average)
 10993                           ;	Chosen strategy is simple_byte
 10994  00397E  503D               	movf	??i2_USER_USB_CALLBACK_EVENT_HANDLER^0,w,c
 10995  003980  0A01               	xorlw	1	; case 1
 10996  003982  B4D8               	btfsc	status,2,c
 10997  003984  EFA8  F01C         	goto	i2l4086
 10998  003988  0A03               	xorlw	3	; case 2
 10999  00398A  B4D8               	btfsc	status,2,c
 11000  00398C  EFE9  F01C         	goto	i2l636
 11001  003990  0A01               	xorlw	1	; case 3
 11002  003992  B4D8               	btfsc	status,2,c
 11003  003994  EFAC  F01C         	goto	i2l4088
 11004  003998  0A06               	xorlw	6	; case 5
 11005  00399A  B4D8               	btfsc	status,2,c
 11006  00399C  EFE9  F01C         	goto	i2l636
 11007  0039A0  0A77               	xorlw	119	; case 114
 11008  0039A2  B4D8               	btfsc	status,2,c
 11009  0039A4  EFE9  F01C         	goto	i2l636
 11010  0039A8  0A01               	xorlw	1	; case 115
 11011  0039AA  B4D8               	btfsc	status,2,c
 11012  0039AC  EFE9  F01C         	goto	i2l636
 11013  0039B0  0A07               	xorlw	7	; case 116
 11014  0039B2  B4D8               	btfsc	status,2,c
 11015  0039B4  EFE9  F01C         	goto	i2l636
 11016  0039B8  0A01               	xorlw	1	; case 117
 11017  0039BA  B4D8               	btfsc	status,2,c
 11018  0039BC  EFE9  F01C         	goto	i2l636
 11019  0039C0  EFE9  F01C         	goto	i2l636
 11020  0039C4                     i2l7714:
 11021                           
 11022                           ; Switch size 1, requested type "simple"
 11023                           ; Number of cases is 1, Range of values is 255 to 255
 11024                           ; switch strategies available:
 11025                           ; Name         Instructions Cycles
 11026                           ; simple_byte            4     3 (average)
 11027                           ;	Chosen strategy is simple_byte
 11028  0039C4  503D               	movf	??i2_USER_USB_CALLBACK_EVENT_HANDLER^0,w,c
 11029  0039C6  0AFF               	xorlw	255	; case 255
 11030  0039C8  B4D8               	btfsc	status,2,c
 11031  0039CA  EFE9  F01C         	goto	i2l636
 11032  0039CE  EFE9  F01C         	goto	i2l636
 11033  0039D2                     i2l636:
 11034  0039D2  0012               	return		;funcret
 11035  0039D4                     __end_ofi2_USER_USB_CALLBACK_EVENT_HANDLER:
 11036                           	opt callstack 0
 11037                           
 11038 ;; *************** function i2_USBCheckCDCRequest *****************
 11039 ;; Defined at:
 11040 ;;		line 147 in file "usb_device_cdc.c"
 11041 ;; Parameters:    Size  Location     Type
 11042 ;;		None
 11043 ;; Auto vars:     Size  Location     Type
 11044 ;;		None
 11045 ;; Return value:  Size  Location     Type
 11046 ;;                  1    wreg      void 
 11047 ;; Registers used:
 11048 ;;		wreg, status,2, status,0
 11049 ;; Tracked objects:
 11050 ;;		On entry : 0/0
 11051 ;;		On exit  : 0/0
 11052 ;;		Unchanged: 0/0
 11053 ;; Data sizes:     COMRAM   BANK0   BANK1   BANK2   BANK3  BANK4h  BANK4l   BANK5   BANK6   BANK7
 11054 ;;      Params:         0       0       0       0       0       0       0       0       0       0
 11055 ;;      Locals:         0       0       0       0       0       0       0       0       0       0
 11056 ;;      Temps:          2       0       0       0       0       0       0       0       0       0
 11057 ;;      Totals:         2       0       0       0       0       0       0       0       0       0
 11058 ;;Total ram usage:        2 bytes
 11059 ;; Hardware stack levels used:    1
 11060 ;; This function calls:
 11061 ;;		Nothing
 11062 ;; This function is called by:
 11063 ;;		i2_USER_USB_CALLBACK_EVENT_HANDLER
 11064 ;; This function uses a non-reentrant model
 11065 ;;
 11066                           
 11067                           	psect	text56
 11068  002EB8                     __ptext56:
 11069                           	opt callstack 0
 11070  002EB8                     i2_USBCheckCDCRequest:
 11071                           	opt callstack 17
 11072  002EB8                     
 11073                           ;usb_device_cdc.c: 152:     if(SetupPkt.Recipient != (0x01)) return;
 11074  002EB8  0104               	movlb	4	; () banked
 11075  002EBA  5130               	movf	48,w,b	;volatile
 11076  002EBC  0B1F               	andlw	31
 11077  002EBE  06E8               	decf	wreg,f,c
 11078  002EC0  B4D8               	btfsc	status,2,c
 11079  002EC2  EF65  F017         	goto	i2u288_41
 11080  002EC6  EF67  F017         	goto	i2u288_40
 11081  002ECA                     i2u288_41:
 11082  002ECA  EF69  F017         	goto	i2l3928
 11083  002ECE                     i2u288_40:
 11084  002ECE  EFDC  F017         	goto	i2l545
 11085  002ED2                     i2l3928:
 11086                           
 11087                           ; BSR set to: 4
 11088                           ;usb_device_cdc.c: 157:     if(SetupPkt.RequestType != (0x20>>5)) return;
 11089  002ED2  3930               	swapf	48,w,b	;volatile
 11090  002ED4  32E8               	rrcf	wreg,f,c
 11091  002ED6  0B03               	andlw	3
 11092  002ED8  06E8               	decf	wreg,f,c
 11093  002EDA  B4D8               	btfsc	status,2,c
 11094  002EDC  EF72  F017         	goto	i2u289_41
 11095  002EE0  EF74  F017         	goto	i2u289_40
 11096  002EE4                     i2u289_41:
 11097  002EE4  EF76  F017         	goto	i2l3932
 11098  002EE8                     i2u289_40:
 11099  002EE8  EFDC  F017         	goto	i2l545
 11100  002EEC                     i2l3932:
 11101                           
 11102                           ; BSR set to: 4
 11103                           ;usb_device_cdc.c: 163:     if((SetupPkt.bIntfID != 0x0)&&
 11104  002EEC  5134               	movf	52,w,b	;volatile
 11105  002EEE  B4D8               	btfsc	status,2,c
 11106  002EF0  EF7C  F017         	goto	i2u290_41
 11107  002EF4  EF7E  F017         	goto	i2u290_40
 11108  002EF8                     i2u290_41:
 11109  002EF8  EFBB  F017         	goto	i2l3962
 11110  002EFC                     i2u290_40:
 11111  002EFC                     
 11112                           ; BSR set to: 4
 11113  002EFC  0534               	decf	52,w,b	;volatile
 11114  002EFE  B4D8               	btfsc	status,2,c
 11115  002F00  EF84  F017         	goto	i2u291_41
 11116  002F04  EF86  F017         	goto	i2u291_40
 11117  002F08                     i2u291_41:
 11118  002F08  EFBB  F017         	goto	i2l3962
 11119  002F0C                     i2u291_40:
 11120  002F0C  EFDC  F017         	goto	i2l545
 11121  002F10                     i2l3938:
 11122                           
 11123                           ; BSR set to: 4
 11124                           ;usb_device_cdc.c: 171:             inPipes[0].pSrc.bRam = (uint8_t*)&dummy_encapsulated
      +                          _cmd_response;
 11125  002F10  0ECC               	movlw	low _dummy_encapsulated_cmd_response
 11126  002F12  6E09               	movwf	_inPipes^0,c	;volatile
 11127  002F14  0E00               	movlw	high _dummy_encapsulated_cmd_response
 11128  002F16  6E0A               	movwf	(_inPipes+1)^0,c	;volatile
 11129  002F18                     
 11130                           ; BSR set to: 4
 11131                           ;usb_device_cdc.c: 172:             inPipes[0].wCount.Val = 0x08;
 11132  002F18  0E00               	movlw	0
 11133  002F1A  6E0E               	movwf	(_inPipes+5)^0,c	;volatile
 11134  002F1C  0E08               	movlw	8
 11135  002F1E  6E0D               	movwf	(_inPipes+4)^0,c	;volatile
 11136  002F20                     
 11137                           ; BSR set to: 4
 11138                           ;usb_device_cdc.c: 173:             inPipes[0].info.bits.ctrl_trf_mem = 0x01;
 11139  002F20  800C               	bsf	(_inPipes+3)^0,0,c	;volatile
 11140  002F22                     
 11141                           ; BSR set to: 4
 11142                           ;usb_device_cdc.c: 174:             inPipes[0].info.bits.busy = 1;
 11143  002F22  8E0C               	bsf	(_inPipes+3)^0,7,c	;volatile
 11144                           
 11145                           ;usb_device_cdc.c: 175:             break;
 11146  002F24  EFDC  F017         	goto	i2l545
 11147  002F28                     i2l3946:
 11148                           
 11149                           ; BSR set to: 4
 11150                           ;usb_device_cdc.c: 178:             inPipes[0].pSrc.bRam = (uint8_t*)&dummy_encapsulated
      +                          _cmd_response;
 11151  002F28  0ECC               	movlw	low _dummy_encapsulated_cmd_response
 11152  002F2A  6E09               	movwf	_inPipes^0,c	;volatile
 11153  002F2C  0E00               	movlw	high _dummy_encapsulated_cmd_response
 11154  002F2E  6E0A               	movwf	(_inPipes+1)^0,c	;volatile
 11155  002F30                     
 11156                           ; BSR set to: 4
 11157                           ;usb_device_cdc.c: 179:             inPipes[0].info.bits.busy = 1;
 11158  002F30  8E0C               	bsf	(_inPipes+3)^0,7,c	;volatile
 11159                           
 11160                           ;usb_device_cdc.c: 180:             break;
 11161  002F32  EFDC  F017         	goto	i2l545
 11162  002F36                     i2l552:
 11163                           
 11164                           ; BSR set to: 4
 11165                           ;usb_device_cdc.c: 185:             outPipes[0].wCount.Val = SetupPkt.wLength;
 11166  002F36  C436 F005          	movff	1078,_outPipes+4	;volatile
 11167  002F3A  C437 F006          	movff	1079,_outPipes+5	;volatile
 11168  002F3E                     
 11169                           ; BSR set to: 4
 11170                           ;usb_device_cdc.c: 186:             outPipes[0].pDst.bRam = (uint8_t*)&line_coding._byte
      +                          [0];
 11171  002F3E  0ED4               	movlw	low _line_coding
 11172  002F40  6E01               	movwf	_outPipes^0,c	;volatile
 11173  002F42  0E00               	movlw	high _line_coding
 11174  002F44  6E02               	movwf	(_outPipes+1)^0,c	;volatile
 11175                           
 11176                           ;usb_device_cdc.c: 187:             outPipes[0].pFunc = ((void*)0);
 11177  002F46  0E00               	movlw	0
 11178  002F48  6E07               	movwf	(_outPipes+6)^0,c	;volatile
 11179  002F4A  0E00               	movlw	0
 11180  002F4C  6E08               	movwf	(_outPipes+7)^0,c	;volatile
 11181  002F4E                     
 11182                           ; BSR set to: 4
 11183                           ;usb_device_cdc.c: 188:             outPipes[0].info.bits.busy = 1;
 11184  002F4E  8E04               	bsf	(_outPipes+3)^0,7,c	;volatile
 11185                           
 11186                           ;usb_device_cdc.c: 189:             break;
 11187  002F50  EFDC  F017         	goto	i2l545
 11188  002F54                     i2l3954:
 11189                           
 11190                           ; BSR set to: 4
 11191                           ;usb_device_cdc.c: 192:             { inPipes[0].pSrc.bRam = (uint8_t*)&line_coding; inP
      +                          ipes[0].wCount.Val = 0x07; inPipes[0].info.Val = 0x40 | 0x80 | 0x01; };
 11192  002F54  0ED4               	movlw	low _line_coding
 11193  002F56  6E09               	movwf	_inPipes^0,c	;volatile
 11194  002F58  0E00               	movlw	high _line_coding
 11195  002F5A  6E0A               	movwf	(_inPipes+1)^0,c	;volatile
 11196  002F5C                     
 11197                           ; BSR set to: 4
 11198  002F5C  0E00               	movlw	0
 11199  002F5E  6E0E               	movwf	(_inPipes+5)^0,c	;volatile
 11200  002F60  0E07               	movlw	7
 11201  002F62  6E0D               	movwf	(_inPipes+4)^0,c	;volatile
 11202  002F64                     
 11203                           ; BSR set to: 4
 11204  002F64  0EC1               	movlw	193
 11205  002F66  6E0C               	movwf	(_inPipes+3)^0,c	;volatile
 11206                           
 11207                           ;usb_device_cdc.c: 196:             break;
 11208  002F68  EFDC  F017         	goto	i2l545
 11209  002F6C                     i2l554:
 11210                           
 11211                           ; BSR set to: 4
 11212                           ;usb_device_cdc.c: 199:             control_signal_bitmap._byte = (uint8_t)SetupPkt.wVal
      +                          ue;
 11213  002F6C  C432 F0C4          	movff	1074,_control_signal_bitmap	;volatile
 11214                           
 11215                           ;usb_device_cdc.c: 231:             inPipes[0].info.bits.busy = 1;
 11216  002F70  8E0C               	bsf	(_inPipes+3)^0,7,c	;volatile
 11217                           
 11218                           ;usb_device_cdc.c: 232:             break;
 11219  002F72  EFDC  F017         	goto	i2l545
 11220  002F76                     i2l3962:
 11221                           
 11222                           ; BSR set to: 4
 11223  002F76  5131               	movf	49,w,b	;volatile
 11224  002F78  6E2B               	movwf	??i2_USBCheckCDCRequest^0,c
 11225  002F7A  6A2C               	clrf	(??i2_USBCheckCDCRequest+1)^0,c
 11226                           
 11227                           ; Switch on 2 bytes has been partitioned into a top level switch of size 1, and 1 sub-sw
      +                          itches
 11228                           ; Switch size 1, requested type "simple"
 11229                           ; Number of cases is 1, Range of values is 0 to 0
 11230                           ; switch strategies available:
 11231                           ; Name         Instructions Cycles
 11232                           ; simple_byte            4     3 (average)
 11233                           ;	Chosen strategy is simple_byte
 11234  002F7C  502C               	movf	(??i2_USBCheckCDCRequest+1)^0,w,c
 11235  002F7E  0A00               	xorlw	0	; case 0
 11236  002F80  B4D8               	btfsc	status,2,c
 11237  002F82  EFC5  F017         	goto	i2l7716
 11238  002F86  EFDC  F017         	goto	i2l545
 11239  002F8A                     i2l7716:
 11240                           
 11241                           ; BSR set to: 4
 11242                           ; Switch size 1, requested type "simple"
 11243                           ; Number of cases is 5, Range of values is 0 to 34
 11244                           ; switch strategies available:
 11245                           ; Name         Instructions Cycles
 11246                           ; simple_byte           16     9 (average)
 11247                           ;	Chosen strategy is simple_byte
 11248  002F8A  502B               	movf	??i2_USBCheckCDCRequest^0,w,c
 11249  002F8C  0A00               	xorlw	0	; case 0
 11250  002F8E  B4D8               	btfsc	status,2,c
 11251  002F90  EF88  F017         	goto	i2l3938
 11252  002F94  0A01               	xorlw	1	; case 1
 11253  002F96  B4D8               	btfsc	status,2,c
 11254  002F98  EF94  F017         	goto	i2l3946
 11255  002F9C  0A21               	xorlw	33	; case 32
 11256  002F9E  B4D8               	btfsc	status,2,c
 11257  002FA0  EF9B  F017         	goto	i2l552
 11258  002FA4  0A01               	xorlw	1	; case 33
 11259  002FA6  B4D8               	btfsc	status,2,c
 11260  002FA8  EFAA  F017         	goto	i2l3954
 11261  002FAC  0A03               	xorlw	3	; case 34
 11262  002FAE  B4D8               	btfsc	status,2,c
 11263  002FB0  EFB6  F017         	goto	i2l554
 11264  002FB4  EFDC  F017         	goto	i2l545
 11265  002FB8                     i2l545:
 11266                           
 11267                           ; BSR set to: 4
 11268  002FB8  0012               	return		;funcret
 11269  002FBA                     __end_ofi2_USBCheckCDCRequest:
 11270                           	opt callstack 0
 11271                           
 11272 ;; *************** function i2_CDCInitEP *****************
 11273 ;; Defined at:
 11274 ;;		line 294 in file "usb_device_cdc.c"
 11275 ;; Parameters:    Size  Location     Type
 11276 ;;		None
 11277 ;; Auto vars:     Size  Location     Type
 11278 ;;		None
 11279 ;; Return value:  Size  Location     Type
 11280 ;;                  1    wreg      void 
 11281 ;; Registers used:
 11282 ;;		wreg, fsr2l, fsr2h, status,2, status,0, prodl, prodh, cstack
 11283 ;; Tracked objects:
 11284 ;;		On entry : 0/0
 11285 ;;		On exit  : 0/0
 11286 ;;		Unchanged: 0/0
 11287 ;; Data sizes:     COMRAM   BANK0   BANK1   BANK2   BANK3  BANK4h  BANK4l   BANK5   BANK6   BANK7
 11288 ;;      Params:         0       0       0       0       0       0       0       0       0       0
 11289 ;;      Locals:         0       0       0       0       0       0       0       0       0       0
 11290 ;;      Temps:          0       0       0       0       0       0       0       0       0       0
 11291 ;;      Totals:         0       0       0       0       0       0       0       0       0       0
 11292 ;;Total ram usage:        0 bytes
 11293 ;; Hardware stack levels used:    1
 11294 ;; Hardware stack levels required when called:    2
 11295 ;; This function calls:
 11296 ;;		i2_USBEnableEndpoint
 11297 ;;		i2_USBTransferOnePacket
 11298 ;; This function is called by:
 11299 ;;		i2_USER_USB_CALLBACK_EVENT_HANDLER
 11300 ;; This function uses a non-reentrant model
 11301 ;;
 11302                           
 11303                           	psect	text57
 11304  003B24                     __ptext57:
 11305                           	opt callstack 0
 11306  003B24                     i2_CDCInitEP:
 11307                           	opt callstack 15
 11308  003B24                     
 11309                           ;usb_device_cdc.c: 297:     line_coding.dwDTERate = 19200;
 11310  003B24  0E00               	movlw	0
 11311  003B26  0100               	movlb	0	; () banked
 11312  003B28  6FD4               	movwf	_line_coding& (0+255),b
 11313  003B2A  0E4B               	movlw	75
 11314  003B2C  6FD5               	movwf	(_line_coding+1)& (0+255),b
 11315  003B2E  0E00               	movlw	0
 11316  003B30  6FD6               	movwf	(_line_coding+2)& (0+255),b
 11317  003B32  0E00               	movlw	0
 11318  003B34  6FD7               	movwf	(_line_coding+3)& (0+255),b
 11319                           
 11320                           ;usb_device_cdc.c: 298:     line_coding.bCharFormat = 0x00;
 11321  003B36  0E00               	movlw	0
 11322  003B38  6FD8               	movwf	(_line_coding+4)& (0+255),b
 11323                           
 11324                           ;usb_device_cdc.c: 299:     line_coding.bParityType = 0x00;
 11325  003B3A  0E00               	movlw	0
 11326  003B3C  6FD9               	movwf	(_line_coding+5)& (0+255),b
 11327                           
 11328                           ;usb_device_cdc.c: 300:     line_coding.bDataBits = 0x08;
 11329  003B3E  0E08               	movlw	8
 11330  003B40  6FDA               	movwf	(_line_coding+6)& (0+255),b
 11331                           
 11332                           ;usb_device_cdc.c: 302:     cdc_rx_len = 0;
 11333  003B42  0E00               	movlw	0
 11334  003B44  6FC7               	movwf	_cdc_rx_len& (0+255),b
 11335  003B46                     
 11336                           ; BSR set to: 0
 11337                           ;usb_device_cdc.c: 315:     USBEnableEndpoint(1,0x02|0x10|0x08);
 11338  003B46  0E1A               	movlw	26
 11339  003B48  6E33               	movwf	i2USBEnableEndpoint@options^0,c
 11340  003B4A  0E01               	movlw	1
 11341  003B4C  EC27  F01F         	call	i2_USBEnableEndpoint
 11342  003B50                     
 11343                           ;usb_device_cdc.c: 316:     USBEnableEndpoint(2,0x02|0x04|0x10|0x08);
 11344  003B50  0E1E               	movlw	30
 11345  003B52  6E33               	movwf	i2USBEnableEndpoint@options^0,c
 11346  003B54  0E02               	movlw	2
 11347  003B56  EC27  F01F         	call	i2_USBEnableEndpoint
 11348  003B5A                     
 11349                           ;usb_device_cdc.c: 318:     CDCDataOutHandle = USBTransferOnePacket(2,0,(uint8_t*)&cdc_d
      +                          ata_rx,sizeof(cdc_data_rx));
 11350  003B5A  0E00               	movlw	0
 11351  003B5C  6E2B               	movwf	i2USBTransferOnePacket@dir^0,c
 11352  003B5E  0E40               	movlw	64
 11353  003B60  6E2C               	movwf	i2USBTransferOnePacket@data^0,c
 11354  003B62  0E05               	movlw	5
 11355  003B64  6E2D               	movwf	(i2USBTransferOnePacket@data+1)^0,c
 11356  003B66  0E40               	movlw	64
 11357  003B68  6E2E               	movwf	i2USBTransferOnePacket@len^0,c
 11358  003B6A  0E02               	movlw	2
 11359  003B6C  ECFD  F011         	call	i2_USBTransferOnePacket
 11360  003B70  C02B  F0C0         	movff	?i2_USBTransferOnePacket,_CDCDataOutHandle
 11361  003B74  C02C  F0C1         	movff	?i2_USBTransferOnePacket+1,_CDCDataOutHandle+1
 11362  003B78                     
 11363                           ;usb_device_cdc.c: 319:     CDCDataInHandle = ((void*)0);
 11364  003B78  0E00               	movlw	0
 11365  003B7A  0100               	movlb	0	; () banked
 11366  003B7C  6FBE               	movwf	_CDCDataInHandle& (0+255),b
 11367  003B7E  0E00               	movlw	0
 11368  003B80  6FBF               	movwf	(_CDCDataInHandle+1)& (0+255),b
 11369  003B82                     
 11370                           ; BSR set to: 0
 11371                           ;usb_device_cdc.c: 346:     cdc_trf_state = 0;
 11372  003B82  0E00               	movlw	0
 11373  003B84  6E1F               	movwf	_cdc_trf_state^0,c
 11374  003B86                     
 11375                           ; BSR set to: 0
 11376  003B86  0012               	return		;funcret
 11377  003B88                     __end_ofi2_CDCInitEP:
 11378                           	opt callstack 0
 11379                           
 11380 ;; *************** function i2_USBTransferOnePacket *****************
 11381 ;; Defined at:
 11382 ;;		line 1001 in file "usb_device.c"
 11383 ;; Parameters:    Size  Location     Type
 11384 ;;  ep              1    wreg     unsigned char 
 11385 ;;  dir             1    0[COMRAM] unsigned char 
 11386 ;;  data            2    1[COMRAM] PTR unsigned char 
 11387 ;;		 -> cdc_data_tx(64), cdc_data_rx(64), NULL(0), 
 11388 ;;  len             1    3[COMRAM] unsigned char 
 11389 ;; Auto vars:     Size  Location     Type
 11390 ;;  ep              1    8[COMRAM] unsigned char 
 11391 ;;  USBTransferO    2    9[COMRAM] PTR volatile struct __BD
 11392 ;;		 -> RAM(2047), NULL(0), BDT(48), 
 11393 ;; Return value:  Size  Location     Type
 11394 ;;                  2    0[COMRAM] PTR void 
 11395 ;; Registers used:
 11396 ;;		wreg, fsr2l, fsr2h, status,2, status,0, prodl, prodh
 11397 ;; Tracked objects:
 11398 ;;		On entry : 0/0
 11399 ;;		On exit  : 0/0
 11400 ;;		Unchanged: 0/0
 11401 ;; Data sizes:     COMRAM   BANK0   BANK1   BANK2   BANK3  BANK4h  BANK4l   BANK5   BANK6   BANK7
 11402 ;;      Params:         4       0       0       0       0       0       0       0       0       0
 11403 ;;      Locals:         3       0       0       0       0       0       0       0       0       0
 11404 ;;      Temps:          4       0       0       0       0       0       0       0       0       0
 11405 ;;      Totals:        11       0       0       0       0       0       0       0       0       0
 11406 ;;Total ram usage:       11 bytes
 11407 ;; Hardware stack levels used:    1
 11408 ;; This function calls:
 11409 ;;		Nothing
 11410 ;; This function is called by:
 11411 ;;		i2_CDCInitEP
 11412 ;; This function uses a non-reentrant model
 11413 ;;
 11414                           
 11415                           	psect	text58
 11416  0023FA                     __ptext58:
 11417                           	opt callstack 0
 11418  0023FA                     i2_USBTransferOnePacket:
 11419                           	opt callstack 16
 11420                           
 11421                           ; BSR set to: 0
 11422                           ;incstack = 0
 11423                           ;i2USBTransferOnePacket@ep stored from wreg
 11424  0023FA  6E33               	movwf	i2USBTransferOnePacket@ep^0,c
 11425  0023FC                     
 11426                           ;usb_device.c: 1001: void* USBTransferOnePacket(uint8_t ep,uint8_t dir,uint8_t* data,uin
      +                          t8_t len);usb_device.c: 1002: {;usb_device.c: 1003:     volatile BDT_ENTRY* handle;;usb_
      +                          device.c: 1006:     if(dir != 0)
 11427  0023FC  502B               	movf	i2USBTransferOnePacket@dir^0,w,c
 11428  0023FE  B4D8               	btfsc	status,2,c
 11429  002400  EF04  F012         	goto	i2u280_41
 11430  002404  EF06  F012         	goto	i2u280_40
 11431  002408                     i2u280_41:
 11432  002408  EF14  F012         	goto	i2l3856
 11433  00240C                     i2u280_40:
 11434  00240C                     
 11435                           ;usb_device.c: 1007:     {;usb_device.c: 1009:         handle = pBDTEntryIn[ep];
 11436  00240C  5033               	movf	i2USBTransferOnePacket@ep^0,w,c
 11437  00240E  0D02               	mullw	2
 11438  002410  0E0F               	movlw	low _pBDTEntryIn
 11439  002412  24F3               	addwf	243,w,c
 11440  002414  6ED9               	movwf	fsr2l,c
 11441  002416  0E00               	movlw	high _pBDTEntryIn
 11442  002418  20F4               	addwfc	prodh,w,c
 11443  00241A  6EDA               	movwf	fsr2h,c
 11444  00241C  CFDE F034          	movff	postinc2,i2USBTransferOnePacket@handle
 11445  002420  CFDD F035          	movff	postdec2,i2USBTransferOnePacket@handle+1
 11446                           
 11447                           ;usb_device.c: 1010:     }
 11448  002424  EF20  F012         	goto	i2l3858
 11449  002428                     i2l3856:
 11450                           
 11451                           ;usb_device.c: 1012:     {;usb_device.c: 1014:         handle = pBDTEntryOut[ep];
 11452  002428  5033               	movf	i2USBTransferOnePacket@ep^0,w,c
 11453  00242A  0D02               	mullw	2
 11454  00242C  0EAA               	movlw	low _pBDTEntryOut
 11455  00242E  24F3               	addwf	243,w,c
 11456  002430  6ED9               	movwf	fsr2l,c
 11457  002432  0E00               	movlw	high _pBDTEntryOut
 11458  002434  20F4               	addwfc	prodh,w,c
 11459  002436  6EDA               	movwf	fsr2h,c
 11460  002438  CFDE F034          	movff	postinc2,i2USBTransferOnePacket@handle
 11461  00243C  CFDD F035          	movff	postdec2,i2USBTransferOnePacket@handle+1
 11462  002440                     i2l3858:
 11463                           
 11464                           ;usb_device.c: 1019:     if(handle == 0)
 11465  002440  5034               	movf	i2USBTransferOnePacket@handle^0,w,c
 11466  002442  1035               	iorwf	(i2USBTransferOnePacket@handle+1)^0,w,c
 11467  002444  A4D8               	btfss	status,2,c
 11468  002446  EF27  F012         	goto	i2u281_41
 11469  00244A  EF29  F012         	goto	i2u281_40
 11470  00244E                     i2u281_41:
 11471  00244E  EF2F  F012         	goto	i2l3864
 11472  002452                     i2u281_40:
 11473  002452                     
 11474                           ;usb_device.c: 1020:     {;usb_device.c: 1021:         return 0;
 11475  002452  0E00               	movlw	0
 11476  002454  6E2B               	movwf	?i2_USBTransferOnePacket^0,c
 11477  002456  0E00               	movlw	0
 11478  002458  6E2C               	movwf	(?i2_USBTransferOnePacket+1)^0,c
 11479  00245A  EF9B  F012         	goto	i2l282
 11480  00245E                     i2l3864:
 11481                           
 11482                           ;usb_device.c: 1035:     handle->ADR = ((uint16_t)(data));
 11483  00245E  EE20 F002          	lfsr	2,2
 11484  002462  5034               	movf	i2USBTransferOnePacket@handle^0,w,c
 11485  002464  26D9               	addwf	fsr2l,f,c
 11486  002466  5035               	movf	(i2USBTransferOnePacket@handle+1)^0,w,c
 11487  002468  22DA               	addwfc	fsr2h,f,c
 11488  00246A  C02C  FFDE         	movff	i2USBTransferOnePacket@data,postinc2
 11489  00246E  C02D  FFDD         	movff	i2USBTransferOnePacket@data+1,postdec2
 11490                           
 11491                           ;usb_device.c: 1036:     handle->CNT = len;
 11492  002472  EE20 F001          	lfsr	2,1
 11493  002476  5034               	movf	i2USBTransferOnePacket@handle^0,w,c
 11494  002478  26D9               	addwf	fsr2l,f,c
 11495  00247A  5035               	movf	(i2USBTransferOnePacket@handle+1)^0,w,c
 11496  00247C  22DA               	addwfc	fsr2h,f,c
 11497  00247E  C02E  FFDF         	movff	i2USBTransferOnePacket@len,indf2
 11498  002482                     
 11499                           ;usb_device.c: 1037:     handle->STAT.Val &= 0x40;
 11500  002482  C034  FFD9         	movff	i2USBTransferOnePacket@handle,fsr2l
 11501  002486  C035  FFDA         	movff	i2USBTransferOnePacket@handle+1,fsr2h
 11502  00248A  0E40               	movlw	64
 11503  00248C  16DF               	andwf	indf2,f,c
 11504  00248E                     
 11505                           ;usb_device.c: 1038:     handle->STAT.Val |= (0x08 & 0x08);
 11506  00248E  C034  FFD9         	movff	i2USBTransferOnePacket@handle,fsr2l
 11507  002492  C035  FFDA         	movff	i2USBTransferOnePacket@handle+1,fsr2h
 11508  002496  0E00               	movlw	0
 11509  002498  86DB               	bsf	plusw2,3,c
 11510  00249A                     
 11511                           ;usb_device.c: 1039:     handle->STAT.Val |= 0x80;
 11512  00249A  C034  FFD9         	movff	i2USBTransferOnePacket@handle,fsr2l
 11513  00249E  C035  FFDA         	movff	i2USBTransferOnePacket@handle+1,fsr2h
 11514  0024A2  0E00               	movlw	0
 11515  0024A4  8EDB               	bsf	plusw2,7,c
 11516  0024A6                     
 11517                           ;usb_device.c: 1042:     if(dir != 0)
 11518  0024A6  502B               	movf	i2USBTransferOnePacket@dir^0,w,c
 11519  0024A8  B4D8               	btfsc	status,2,c
 11520  0024AA  EF59  F012         	goto	i2u282_41
 11521  0024AE  EF5B  F012         	goto	i2u282_40
 11522  0024B2                     i2u282_41:
 11523  0024B2  EF7A  F012         	goto	i2l3876
 11524  0024B6                     i2u282_40:
 11525  0024B6                     
 11526                           ;usb_device.c: 1043:     {;usb_device.c: 1045:         pBDTEntryIn[ep] = (BDT_ENTRY*)(((
      +                          uint16_t)pBDTEntryIn[ep]) ^ 0x0004);
 11527  0024B6  5033               	movf	i2USBTransferOnePacket@ep^0,w,c
 11528  0024B8  0D02               	mullw	2
 11529  0024BA  0E0F               	movlw	low _pBDTEntryIn
 11530  0024BC  24F3               	addwf	243,w,c
 11531  0024BE  6ED9               	movwf	fsr2l,c
 11532  0024C0  0E00               	movlw	high _pBDTEntryIn
 11533  0024C2  20F4               	addwfc	prodh,w,c
 11534  0024C4  6EDA               	movwf	fsr2h,c
 11535  0024C6  CFDE F02F          	movff	postinc2,??i2_USBTransferOnePacket
 11536  0024CA  CFDD F030          	movff	postdec2,??i2_USBTransferOnePacket+1
 11537  0024CE  0E04               	movlw	4
 11538  0024D0  182F               	xorwf	??i2_USBTransferOnePacket^0,w,c
 11539  0024D2  6E31               	movwf	(??i2_USBTransferOnePacket+2)^0,c
 11540  0024D4  5030               	movf	(??i2_USBTransferOnePacket+1)^0,w,c
 11541  0024D6  6E32               	movwf	(??i2_USBTransferOnePacket+3)^0,c
 11542  0024D8  5033               	movf	i2USBTransferOnePacket@ep^0,w,c
 11543  0024DA  0D02               	mullw	2
 11544  0024DC  0E0F               	movlw	low _pBDTEntryIn
 11545  0024DE  24F3               	addwf	243,w,c
 11546  0024E0  6ED9               	movwf	fsr2l,c
 11547  0024E2  0E00               	movlw	high _pBDTEntryIn
 11548  0024E4  20F4               	addwfc	prodh,w,c
 11549  0024E6  6EDA               	movwf	fsr2h,c
 11550  0024E8  C031  FFDE         	movff	??i2_USBTransferOnePacket+2,postinc2
 11551  0024EC  C032  FFDD         	movff	??i2_USBTransferOnePacket+3,postdec2
 11552                           
 11553                           ;usb_device.c: 1046:     }
 11554  0024F0  EF97  F012         	goto	i2l3878
 11555  0024F4                     i2l3876:
 11556                           
 11557                           ;usb_device.c: 1048:     {;usb_device.c: 1050:         pBDTEntryOut[ep] = (BDT_ENTRY*)((
      +                          (uint16_t)pBDTEntryOut[ep]) ^ 0x0004);
 11558  0024F4  5033               	movf	i2USBTransferOnePacket@ep^0,w,c
 11559  0024F6  0D02               	mullw	2
 11560  0024F8  0EAA               	movlw	low _pBDTEntryOut
 11561  0024FA  24F3               	addwf	243,w,c
 11562  0024FC  6ED9               	movwf	fsr2l,c
 11563  0024FE  0E00               	movlw	high _pBDTEntryOut
 11564  002500  20F4               	addwfc	prodh,w,c
 11565  002502  6EDA               	movwf	fsr2h,c
 11566  002504  CFDE F02F          	movff	postinc2,??i2_USBTransferOnePacket
 11567  002508  CFDD F030          	movff	postdec2,??i2_USBTransferOnePacket+1
 11568  00250C  0E04               	movlw	4
 11569  00250E  182F               	xorwf	??i2_USBTransferOnePacket^0,w,c
 11570  002510  6E31               	movwf	(??i2_USBTransferOnePacket+2)^0,c
 11571  002512  5030               	movf	(??i2_USBTransferOnePacket+1)^0,w,c
 11572  002514  6E32               	movwf	(??i2_USBTransferOnePacket+3)^0,c
 11573  002516  5033               	movf	i2USBTransferOnePacket@ep^0,w,c
 11574  002518  0D02               	mullw	2
 11575  00251A  0EAA               	movlw	low _pBDTEntryOut
 11576  00251C  24F3               	addwf	243,w,c
 11577  00251E  6ED9               	movwf	fsr2l,c
 11578  002520  0E00               	movlw	high _pBDTEntryOut
 11579  002522  20F4               	addwfc	prodh,w,c
 11580  002524  6EDA               	movwf	fsr2h,c
 11581  002526  C031  FFDE         	movff	??i2_USBTransferOnePacket+2,postinc2
 11582  00252A  C032  FFDD         	movff	??i2_USBTransferOnePacket+3,postdec2
 11583  00252E                     i2l3878:
 11584                           
 11585                           ;usb_device.c: 1052:     return (void*)handle;
 11586  00252E  C034  F02B         	movff	i2USBTransferOnePacket@handle,?i2_USBTransferOnePacket
 11587  002532  C035  F02C         	movff	i2USBTransferOnePacket@handle+1,?i2_USBTransferOnePacket+1
 11588  002536                     i2l282:
 11589  002536  0012               	return		;funcret
 11590  002538                     __end_ofi2_USBTransferOnePacket:
 11591                           	opt callstack 0
 11592                           
 11593 ;; *************** function i2_USBEnableEndpoint *****************
 11594 ;; Defined at:
 11595 ;;		line 884 in file "usb_device.c"
 11596 ;; Parameters:    Size  Location     Type
 11597 ;;  ep              1    wreg     unsigned char 
 11598 ;;  options         1    8[COMRAM] unsigned char 
 11599 ;; Auto vars:     Size  Location     Type
 11600 ;;  ep              1   11[COMRAM] unsigned char 
 11601 ;;  USBEnableEnd    2    9[COMRAM] PTR unsigned char 
 11602 ;;		 -> UEP0(1), 
 11603 ;; Return value:  Size  Location     Type
 11604 ;;                  1    wreg      void 
 11605 ;; Registers used:
 11606 ;;		wreg, fsr2l, fsr2h, status,2, status,0, prodl, prodh, cstack
 11607 ;; Tracked objects:
 11608 ;;		On entry : 0/0
 11609 ;;		On exit  : 0/0
 11610 ;;		Unchanged: 0/0
 11611 ;; Data sizes:     COMRAM   BANK0   BANK1   BANK2   BANK3  BANK4h  BANK4l   BANK5   BANK6   BANK7
 11612 ;;      Params:         1       0       0       0       0       0       0       0       0       0
 11613 ;;      Locals:         3       0       0       0       0       0       0       0       0       0
 11614 ;;      Temps:          0       0       0       0       0       0       0       0       0       0
 11615 ;;      Totals:         4       0       0       0       0       0       0       0       0       0
 11616 ;;Total ram usage:        4 bytes
 11617 ;; Hardware stack levels used:    1
 11618 ;; Hardware stack levels required when called:    1
 11619 ;; This function calls:
 11620 ;;		i2_USBConfigureEndpoint
 11621 ;; This function is called by:
 11622 ;;		i2_CDCInitEP
 11623 ;; This function uses a non-reentrant model
 11624 ;;
 11625                           
 11626                           	psect	text59
 11627  003E4E                     __ptext59:
 11628                           	opt callstack 0
 11629  003E4E                     i2_USBEnableEndpoint:
 11630                           	opt callstack 15
 11631                           
 11632                           ;incstack = 0
 11633                           ;i2USBEnableEndpoint@ep stored from wreg
 11634  003E4E  6E36               	movwf	i2USBEnableEndpoint@ep^0,c
 11635  003E50                     
 11636                           ;usb_device.c: 884: void USBEnableEndpoint(uint8_t ep, uint8_t options);usb_device.c: 88
      +                          5: {;usb_device.c: 886:     unsigned char* p;;usb_device.c: 890:     if(options & 0x04)
 11637  003E50  A433               	btfss	i2USBEnableEndpoint@options^0,2,c
 11638  003E52  EF2D  F01F         	goto	i2u278_41
 11639  003E56  EF2F  F01F         	goto	i2u278_40
 11640  003E5A                     i2u278_41:
 11641  003E5A  EF34  F01F         	goto	i2l3844
 11642  003E5E                     i2u278_40:
 11643  003E5E                     
 11644                           ;usb_device.c: 891:     {;usb_device.c: 892:         USBConfigureEndpoint(ep, 0);
 11645  003E5E  0E00               	movlw	0
 11646  003E60  6E2B               	movwf	i2USBConfigureEndpoint@direction^0,c
 11647  003E62  5036               	movf	i2USBEnableEndpoint@ep^0,w,c
 11648  003E64  EC7A  F01B         	call	i2_USBConfigureEndpoint
 11649  003E68                     i2l3844:
 11650                           
 11651                           ;usb_device.c: 894:     if(options & 0x02)
 11652  003E68  A233               	btfss	i2USBEnableEndpoint@options^0,1,c
 11653  003E6A  EF39  F01F         	goto	i2u279_41
 11654  003E6E  EF3B  F01F         	goto	i2u279_40
 11655  003E72                     i2u279_41:
 11656  003E72  EF40  F01F         	goto	i2l3848
 11657  003E76                     i2u279_40:
 11658  003E76                     
 11659                           ;usb_device.c: 895:     {;usb_device.c: 896:         USBConfigureEndpoint(ep, 1);
 11660  003E76  0E01               	movlw	1
 11661  003E78  6E2B               	movwf	i2USBConfigureEndpoint@direction^0,c
 11662  003E7A  5036               	movf	i2USBEnableEndpoint@ep^0,w,c
 11663  003E7C  EC7A  F01B         	call	i2_USBConfigureEndpoint
 11664  003E80                     i2l3848:
 11665                           
 11666                           ;usb_device.c: 905:         p = (unsigned char*)(&UEP0+ep);
 11667  003E80  0E70               	movlw	112
 11668  003E82  2436               	addwf	i2USBEnableEndpoint@ep^0,w,c
 11669  003E84  6E34               	movwf	i2USBEnableEndpoint@p^0,c
 11670  003E86  6A35               	clrf	(i2USBEnableEndpoint@p+1)^0,c
 11671  003E88  0E0F               	movlw	15
 11672  003E8A  2235               	addwfc	(i2USBEnableEndpoint@p+1)^0,f,c
 11673  003E8C                     
 11674                           ;usb_device.c: 907:     *p = options;
 11675  003E8C  C034  FFD9         	movff	i2USBEnableEndpoint@p,fsr2l
 11676  003E90  C035  FFDA         	movff	i2USBEnableEndpoint@p+1,fsr2h
 11677  003E94  C033  FFDF         	movff	i2USBEnableEndpoint@options,indf2
 11678  003E98  0012               	return		;funcret
 11679  003E9A                     __end_ofi2_USBEnableEndpoint:
 11680                           	opt callstack 0
 11681                           
 11682 ;; *************** function i2_USBConfigureEndpoint *****************
 11683 ;; Defined at:
 11684 ;;		line 1549 in file "usb_device.c"
 11685 ;; Parameters:    Size  Location     Type
 11686 ;;  EPNum           1    wreg     unsigned char 
 11687 ;;  direction       1    0[COMRAM] unsigned char 
 11688 ;; Auto vars:     Size  Location     Type
 11689 ;;  EPNum           1    5[COMRAM] unsigned char 
 11690 ;;  USBConfigure    2    6[COMRAM] PTR volatile struct __BD
 11691 ;;		 -> BDT(48), 
 11692 ;; Return value:  Size  Location     Type
 11693 ;;                  1    wreg      void 
 11694 ;; Registers used:
 11695 ;;		wreg, fsr2l, fsr2h, status,2, status,0, prodl, prodh
 11696 ;; Tracked objects:
 11697 ;;		On entry : 0/0
 11698 ;;		On exit  : 0/0
 11699 ;;		Unchanged: 0/0
 11700 ;; Data sizes:     COMRAM   BANK0   BANK1   BANK2   BANK3  BANK4h  BANK4l   BANK5   BANK6   BANK7
 11701 ;;      Params:         1       0       0       0       0       0       0       0       0       0
 11702 ;;      Locals:         3       0       0       0       0       0       0       0       0       0
 11703 ;;      Temps:          4       0       0       0       0       0       0       0       0       0
 11704 ;;      Totals:         8       0       0       0       0       0       0       0       0       0
 11705 ;;Total ram usage:        8 bytes
 11706 ;; Hardware stack levels used:    1
 11707 ;; This function calls:
 11708 ;;		Nothing
 11709 ;; This function is called by:
 11710 ;;		i2_USBEnableEndpoint
 11711 ;; This function uses a non-reentrant model
 11712 ;;
 11713                           
 11714                           	psect	text60
 11715  0036F4                     __ptext60:
 11716                           	opt callstack 0
 11717  0036F4                     i2_USBConfigureEndpoint:
 11718                           	opt callstack 15
 11719                           
 11720                           ;incstack = 0
 11721                           ;i2USBConfigureEndpoint@EPNum stored from wreg
 11722  0036F4  6E30               	movwf	i2USBConfigureEndpoint@EPNum^0,c
 11723  0036F6                     
 11724                           ;usb_device.c: 1549: static void USBConfigureEndpoint(uint8_t EPNum, uint8_t direction);
      +                          usb_device.c: 1550: {;usb_device.c: 1551:     volatile BDT_ENTRY* handle;;usb_device.c: 
      +                          1555:     handle = (volatile BDT_ENTRY*)&BDT[0];
 11725  0036F6  0E00               	movlw	0
 11726  0036F8  6E31               	movwf	i2USBConfigureEndpoint@handle^0,c
 11727  0036FA  0E04               	movlw	4
 11728  0036FC  6E32               	movwf	(i2USBConfigureEndpoint@handle+1)^0,c
 11729  0036FE                     
 11730                           ;usb_device.c: 1556:     handle += (4*EPNum+2*direction+0u);
 11731  0036FE  502B               	movf	i2USBConfigureEndpoint@direction^0,w,c
 11732  003700  6E2C               	movwf	??i2_USBConfigureEndpoint^0,c
 11733  003702  6A2D               	clrf	(??i2_USBConfigureEndpoint+1)^0,c
 11734  003704  90D8               	bcf	status,0,c
 11735  003706  362C               	rlcf	??i2_USBConfigureEndpoint^0,f,c
 11736  003708  362D               	rlcf	(??i2_USBConfigureEndpoint+1)^0,f,c
 11737  00370A  5030               	movf	i2USBConfigureEndpoint@EPNum^0,w,c
 11738  00370C  6E2E               	movwf	(??i2_USBConfigureEndpoint+2)^0,c
 11739  00370E  6A2F               	clrf	(??i2_USBConfigureEndpoint+3)^0,c
 11740  003710  90D8               	bcf	status,0,c
 11741  003712  362E               	rlcf	(??i2_USBConfigureEndpoint+2)^0,f,c
 11742  003714  362F               	rlcf	(??i2_USBConfigureEndpoint+3)^0,f,c
 11743  003716  90D8               	bcf	status,0,c
 11744  003718  362E               	rlcf	(??i2_USBConfigureEndpoint+2)^0,f,c
 11745  00371A  362F               	rlcf	(??i2_USBConfigureEndpoint+3)^0,f,c
 11746  00371C  502C               	movf	??i2_USBConfigureEndpoint^0,w,c
 11747  00371E  262E               	addwf	(??i2_USBConfigureEndpoint+2)^0,f,c
 11748  003720  502D               	movf	(??i2_USBConfigureEndpoint+1)^0,w,c
 11749  003722  222F               	addwfc	(??i2_USBConfigureEndpoint+3)^0,f,c
 11750  003724  90D8               	bcf	status,0,c
 11751  003726  362E               	rlcf	(??i2_USBConfigureEndpoint+2)^0,f,c
 11752  003728  362F               	rlcf	(??i2_USBConfigureEndpoint+3)^0,f,c
 11753  00372A  90D8               	bcf	status,0,c
 11754  00372C  362E               	rlcf	(??i2_USBConfigureEndpoint+2)^0,f,c
 11755  00372E  362F               	rlcf	(??i2_USBConfigureEndpoint+3)^0,f,c
 11756  003730  502E               	movf	(??i2_USBConfigureEndpoint+2)^0,w,c
 11757  003732  2631               	addwf	i2USBConfigureEndpoint@handle^0,f,c
 11758  003734  502F               	movf	(??i2_USBConfigureEndpoint+3)^0,w,c
 11759  003736  2232               	addwfc	(i2USBConfigureEndpoint@handle+1)^0,f,c
 11760  003738                     
 11761                           ;usb_device.c: 1558:     handle->STAT.UOWN = 0;
 11762  003738  C031  FFD9         	movff	i2USBConfigureEndpoint@handle,fsr2l
 11763  00373C  C032  FFDA         	movff	i2USBConfigureEndpoint@handle+1,fsr2h
 11764  003740  9EDF               	bcf	indf2,7,c
 11765  003742                     
 11766                           ;usb_device.c: 1563:     if(direction == 0)
 11767  003742  502B               	movf	i2USBConfigureEndpoint@direction^0,w,c
 11768  003744  A4D8               	btfss	status,2,c
 11769  003746  EFA7  F01B         	goto	i2u276_41
 11770  00374A  EFA9  F01B         	goto	i2u276_40
 11771  00374E                     i2u276_41:
 11772  00374E  EFB7  F01B         	goto	i2l3818
 11773  003752                     i2u276_40:
 11774  003752                     
 11775                           ;usb_device.c: 1564:     {;usb_device.c: 1565:         pBDTEntryOut[EPNum] = handle;
 11776  003752  5030               	movf	i2USBConfigureEndpoint@EPNum^0,w,c
 11777  003754  0D02               	mullw	2
 11778  003756  0EAA               	movlw	low _pBDTEntryOut
 11779  003758  24F3               	addwf	243,w,c
 11780  00375A  6ED9               	movwf	fsr2l,c
 11781  00375C  0E00               	movlw	high _pBDTEntryOut
 11782  00375E  20F4               	addwfc	prodh,w,c
 11783  003760  6EDA               	movwf	fsr2h,c
 11784  003762  C031  FFDE         	movff	i2USBConfigureEndpoint@handle,postinc2
 11785  003766  C032  FFDD         	movff	i2USBConfigureEndpoint@handle+1,postdec2
 11786                           
 11787                           ;usb_device.c: 1566:     }
 11788  00376A  EFC3  F01B         	goto	i2l3820
 11789  00376E                     i2l3818:
 11790                           
 11791                           ;usb_device.c: 1568:     {;usb_device.c: 1569:         pBDTEntryIn[EPNum] = handle;
 11792  00376E  5030               	movf	i2USBConfigureEndpoint@EPNum^0,w,c
 11793  003770  0D02               	mullw	2
 11794  003772  0E0F               	movlw	low _pBDTEntryIn
 11795  003774  24F3               	addwf	243,w,c
 11796  003776  6ED9               	movwf	fsr2l,c
 11797  003778  0E00               	movlw	high _pBDTEntryIn
 11798  00377A  20F4               	addwfc	prodh,w,c
 11799  00377C  6EDA               	movwf	fsr2h,c
 11800  00377E  C031  FFDE         	movff	i2USBConfigureEndpoint@handle,postinc2
 11801  003782  C032  FFDD         	movff	i2USBConfigureEndpoint@handle+1,postdec2
 11802  003786                     i2l3820:
 11803                           
 11804                           ;usb_device.c: 1573:         handle->STAT.DTS = 0;
 11805  003786  C031  FFD9         	movff	i2USBConfigureEndpoint@handle,fsr2l
 11806  00378A  C032  FFDA         	movff	i2USBConfigureEndpoint@handle+1,fsr2h
 11807  00378E  9CDF               	bcf	indf2,6,c
 11808  003790                     
 11809                           ;usb_device.c: 1574:         (handle+1)->STAT.DTS = 1;
 11810  003790  EE20 F004          	lfsr	2,4
 11811  003794  5031               	movf	i2USBConfigureEndpoint@handle^0,w,c
 11812  003796  26D9               	addwf	fsr2l,f,c
 11813  003798  5032               	movf	(i2USBConfigureEndpoint@handle+1)^0,w,c
 11814  00379A  22DA               	addwfc	fsr2h,f,c
 11815  00379C  8CDF               	bsf	indf2,6,c
 11816  00379E  0012               	return		;funcret
 11817  0037A0                     __end_ofi2_USBConfigureEndpoint:
 11818                           	opt callstack 0
 11819                           
 11820 ;; *************** function i2_USBCtrlTrfOutHandler *****************
 11821 ;; Defined at:
 11822 ;;		line 2544 in file "usb_device.c"
 11823 ;; Parameters:    Size  Location     Type
 11824 ;;		None
 11825 ;; Auto vars:     Size  Location     Type
 11826 ;;		None
 11827 ;; Return value:  Size  Location     Type
 11828 ;;                  1    wreg      void 
 11829 ;; Registers used:
 11830 ;;		wreg, fsr1l, fsr1h, fsr2l, fsr2h, status,2, status,0, cstack
 11831 ;; Tracked objects:
 11832 ;;		On entry : 0/0
 11833 ;;		On exit  : 0/0
 11834 ;;		Unchanged: 0/0
 11835 ;; Data sizes:     COMRAM   BANK0   BANK1   BANK2   BANK3  BANK4h  BANK4l   BANK5   BANK6   BANK7
 11836 ;;      Params:         0       0       0       0       0       0       0       0       0       0
 11837 ;;      Locals:         0       0       0       0       0       0       0       0       0       0
 11838 ;;      Temps:          0       0       0       0       0       0       0       0       0       0
 11839 ;;      Totals:         0       0       0       0       0       0       0       0       0       0
 11840 ;;Total ram usage:        0 bytes
 11841 ;; Hardware stack levels used:    1
 11842 ;; Hardware stack levels required when called:    2
 11843 ;; This function calls:
 11844 ;;		i2_USBCtrlTrfRxService
 11845 ;; This function is called by:
 11846 ;;		i2_USBCtrlEPService
 11847 ;; This function uses a non-reentrant model
 11848 ;;
 11849                           
 11850                           	psect	text61
 11851  003A48                     __ptext61:
 11852                           	opt callstack 0
 11853  003A48                     i2_USBCtrlTrfOutHandler:
 11854                           	opt callstack 15
 11855  003A48                     
 11856                           ;usb_device.c: 2546:     if(controlTransferState == 2)
 11857  003A48  0E02               	movlw	2
 11858  003A4A  1827               	xorwf	_controlTransferState^0,w,c	;volatile
 11859  003A4C  A4D8               	btfss	status,2,c
 11860  003A4E  EF2B  F01D         	goto	i2u422_41
 11861  003A52  EF2D  F01D         	goto	i2u422_40
 11862  003A56                     i2u422_41:
 11863  003A56  EF31  F01D         	goto	i2l5034
 11864  003A5A                     i2u422_40:
 11865  003A5A                     
 11866                           ;usb_device.c: 2547:     {;usb_device.c: 2548:         USBCtrlTrfRxService();
 11867  003A5A  EC5C  F011         	call	i2_USBCtrlTrfRxService	;wreg free
 11868                           
 11869                           ;usb_device.c: 2549:     }
 11870  003A5E  EF5D  F01D         	goto	i2l431
 11871  003A62                     i2l5034:
 11872                           
 11873                           ;usb_device.c: 2551:     {;usb_device.c: 2554:         controlTransferState = 0;
 11874  003A62  0E00               	movlw	0
 11875  003A64  6E27               	movwf	_controlTransferState^0,c	;volatile
 11876                           
 11877                           ;usb_device.c: 2561:         if(BothEP0OutUOWNsSet == 0)
 11878  003A66  5024               	movf	_BothEP0OutUOWNsSet^0,w,c	;volatile
 11879  003A68  A4D8               	btfss	status,2,c
 11880  003A6A  EF39  F01D         	goto	i2u423_41
 11881  003A6E  EF3B  F01D         	goto	i2u423_40
 11882  003A72                     i2u423_41:
 11883  003A72  EF5B  F01D         	goto	i2l5042
 11884  003A76                     i2u423_40:
 11885  003A76                     
 11886                           ;usb_device.c: 2562:         {;usb_device.c: 2563:             pBDTEntryEP0OutNext->CNT 
      +                          = 32;
 11887  003A76  EE20 F001          	lfsr	2,1
 11888  003A7A  501B               	movf	_pBDTEntryEP0OutNext^0,w,c
 11889  003A7C  26D9               	addwf	fsr2l,f,c
 11890  003A7E  501C               	movf	(_pBDTEntryEP0OutNext+1)^0,w,c
 11891  003A80  22DA               	addwfc	fsr2h,f,c
 11892  003A82  0E20               	movlw	32
 11893  003A84  6EDF               	movwf	indf2,c
 11894                           
 11895                           ;usb_device.c: 2564:             pBDTEntryEP0OutNext->ADR = ((uint16_t)(&SetupPkt));
 11896  003A86  EE20 F002          	lfsr	2,2
 11897  003A8A  501B               	movf	_pBDTEntryEP0OutNext^0,w,c
 11898  003A8C  26D9               	addwf	fsr2l,f,c
 11899  003A8E  501C               	movf	(_pBDTEntryEP0OutNext+1)^0,w,c
 11900  003A90  22DA               	addwfc	fsr2h,f,c
 11901  003A92  0E30               	movlw	48
 11902  003A94  6EDE               	movwf	postinc2,c
 11903  003A96  0E04               	movlw	4
 11904  003A98  6EDD               	movwf	postdec2,c
 11905  003A9A                     
 11906                           ;usb_device.c: 2565:             pBDTEntryEP0OutNext->STAT.Val = 0x00|(0x08 & 0x08)|0x04
      +                          ;
 11907  003A9A  C01B  FFD9         	movff	_pBDTEntryEP0OutNext,fsr2l
 11908  003A9E  C01C  FFDA         	movff	_pBDTEntryEP0OutNext+1,fsr2h
 11909  003AA2  0E0C               	movlw	12
 11910  003AA4  6EDF               	movwf	indf2,c
 11911  003AA6                     
 11912                           ;usb_device.c: 2566:             pBDTEntryEP0OutNext->STAT.Val |= 0x80;
 11913  003AA6  C01B  FFD9         	movff	_pBDTEntryEP0OutNext,fsr2l
 11914  003AAA  C01C  FFDA         	movff	_pBDTEntryEP0OutNext+1,fsr2h
 11915  003AAE  0E00               	movlw	0
 11916  003AB0  8EDB               	bsf	plusw2,7,c
 11917                           
 11918                           ;usb_device.c: 2567:         }
 11919  003AB2  EF5D  F01D         	goto	i2l431
 11920  003AB6                     i2l5042:
 11921                           
 11922                           ;usb_device.c: 2569:         {;usb_device.c: 2570:                 BothEP0OutUOWNsSet = 
      +                          0;
 11923  003AB6  0E00               	movlw	0
 11924  003AB8  6E24               	movwf	_BothEP0OutUOWNsSet^0,c	;volatile
 11925  003ABA                     i2l431:
 11926  003ABA  0012               	return		;funcret
 11927  003ABC                     __end_ofi2_USBCtrlTrfOutHandler:
 11928                           	opt callstack 0
 11929                           
 11930 ;; *************** function i2_USBCtrlTrfRxService *****************
 11931 ;; Defined at:
 11932 ;;		line 1858 in file "usb_device.c"
 11933 ;; Parameters:    Size  Location     Type
 11934 ;;		None
 11935 ;; Auto vars:     Size  Location     Type
 11936 ;;  USBCtrlTrfRx    1    1[COMRAM] unsigned char 
 11937 ;;  USBCtrlTrfRx    1    0[COMRAM] unsigned char 
 11938 ;; Return value:  Size  Location     Type
 11939 ;;                  1    wreg      void 
 11940 ;; Registers used:
 11941 ;;		wreg, fsr1l, fsr1h, fsr2l, fsr2h, status,2, status,0, cstack
 11942 ;; Tracked objects:
 11943 ;;		On entry : 0/0
 11944 ;;		On exit  : 0/0
 11945 ;;		Unchanged: 0/0
 11946 ;; Data sizes:     COMRAM   BANK0   BANK1   BANK2   BANK3  BANK4h  BANK4l   BANK5   BANK6   BANK7
 11947 ;;      Params:         0       0       0       0       0       0       0       0       0       0
 11948 ;;      Locals:         2       0       0       0       0       0       0       0       0       0
 11949 ;;      Temps:          0       0       0       0       0       0       0       0       0       0
 11950 ;;      Totals:         2       0       0       0       0       0       0       0       0       0
 11951 ;;Total ram usage:        2 bytes
 11952 ;; Hardware stack levels used:    1
 11953 ;; Hardware stack levels required when called:    1
 11954 ;; This function calls:
 11955 ;;		i2_USBCtrlEPAllowStatusStage
 11956 ;; This function is called by:
 11957 ;;		i2_USBCtrlTrfOutHandler
 11958 ;; This function uses a non-reentrant model
 11959 ;;
 11960                           
 11961                           	psect	text62
 11962  0022B8                     __ptext62:
 11963                           	opt callstack 0
 11964  0022B8                     i2_USBCtrlTrfRxService:
 11965                           	opt callstack 15
 11966  0022B8                     
 11967                           ;usb_device.c: 1860:     uint8_t byteToRead;;usb_device.c: 1861:     uint8_t i;;usb_devi
      +                          ce.c: 1865:     byteToRead = pBDTEntryEP0OutCurrent->CNT;
 11968  0022B8  EE20 F001          	lfsr	2,1
 11969  0022BC  501D               	movf	_pBDTEntryEP0OutCurrent^0,w,c
 11970  0022BE  26D9               	addwf	fsr2l,f,c
 11971  0022C0  501E               	movf	(_pBDTEntryEP0OutCurrent+1)^0,w,c
 11972  0022C2  22DA               	addwfc	fsr2h,f,c
 11973  0022C4  50DF               	movf	indf2,w,c
 11974  0022C6  6E2C               	movwf	i2USBCtrlTrfRxService@byteToRead^0,c
 11975  0022C8                     
 11976                           ;usb_device.c: 1871:     if(byteToRead > outPipes[0].wCount.Val)
 11977  0022C8  502C               	movf	i2USBCtrlTrfRxService@byteToRead^0,w,c
 11978  0022CA  5C05               	subwf	(_outPipes+4)^0,w,c	;volatile
 11979  0022CC  0E00               	movlw	0
 11980  0022CE  5806               	subwfb	(_outPipes+5)^0,w,c	;volatile
 11981  0022D0  B0D8               	btfsc	status,0,c
 11982  0022D2  EF6D  F011         	goto	i2u403_41
 11983  0022D6  EF6F  F011         	goto	i2u403_40
 11984  0022DA                     i2u403_41:
 11985  0022DA  EF71  F011         	goto	i2l4784
 11986  0022DE                     i2u403_40:
 11987  0022DE                     
 11988                           ;usb_device.c: 1872:     {;usb_device.c: 1873:         byteToRead = outPipes[0].wCount.V
      +                          al;
 11989  0022DE  C005  F02C         	movff	_outPipes+4,i2USBCtrlTrfRxService@byteToRead	;volatile
 11990  0022E2                     i2l4784:
 11991                           
 11992                           ;usb_device.c: 1876:     outPipes[0].wCount.Val -= byteToRead;
 11993  0022E2  502C               	movf	i2USBCtrlTrfRxService@byteToRead^0,w,c
 11994  0022E4  5E05               	subwf	(_outPipes+4)^0,f,c	;volatile
 11995  0022E6  0E00               	movlw	0
 11996  0022E8  5A06               	subwfb	(_outPipes+5)^0,f,c	;volatile
 11997  0022EA                     
 11998                           ;usb_device.c: 1880:     for(i=0;i<byteToRead;i++)
 11999  0022EA  0E00               	movlw	0
 12000  0022EC  6E2B               	movwf	i2USBCtrlTrfRxService@i^0,c
 12001  0022EE  EF88  F011         	goto	i2l4794
 12002  0022F2                     i2l4788:
 12003                           
 12004                           ;usb_device.c: 1881:     {;usb_device.c: 1882:         *outPipes[0].pDst.bRam++ = CtrlTr
      +                          fData[i];
 12005  0022F2  0E50               	movlw	80
 12006  0022F4  242B               	addwf	i2USBCtrlTrfRxService@i^0,w,c
 12007  0022F6  6ED9               	movwf	fsr2l,c
 12008  0022F8  6ADA               	clrf	fsr2h,c
 12009  0022FA  0E04               	movlw	4
 12010  0022FC  22DA               	addwfc	fsr2h,f,c
 12011  0022FE  C001  FFE1         	movff	_outPipes,fsr1l	;volatile
 12012  002302  C002  FFE2         	movff	_outPipes+1,fsr1h	;volatile
 12013  002306  CFDF FFE7          	movff	indf2,indf1
 12014  00230A  4A01               	infsnz	_outPipes^0,f,c	;volatile
 12015  00230C  2A02               	incf	(_outPipes+1)^0,f,c	;volatile
 12016  00230E                     
 12017                           ;usb_device.c: 1883:     }
 12018  00230E  2A2B               	incf	i2USBCtrlTrfRxService@i^0,f,c
 12019  002310                     i2l4794:
 12020  002310  502C               	movf	i2USBCtrlTrfRxService@byteToRead^0,w,c
 12021  002312  5C2B               	subwf	i2USBCtrlTrfRxService@i^0,w,c
 12022  002314  A0D8               	btfss	status,0,c
 12023  002316  EF8F  F011         	goto	i2u404_41
 12024  00231A  EF91  F011         	goto	i2u404_40
 12025  00231E                     i2u404_41:
 12026  00231E  EF79  F011         	goto	i2l4788
 12027  002322                     i2u404_40:
 12028  002322                     
 12029                           ;usb_device.c: 1887:     if(outPipes[0].wCount.Val > 0)
 12030  002322  5005               	movf	(_outPipes+4)^0,w,c	;volatile
 12031  002324  1006               	iorwf	(_outPipes+5)^0,w,c	;volatile
 12032  002326  B4D8               	btfsc	status,2,c
 12033  002328  EF98  F011         	goto	i2u405_41
 12034  00232C  EF9A  F011         	goto	i2u405_40
 12035  002330                     i2u405_41:
 12036  002330  EFD3  F011         	goto	i2l4810
 12037  002334                     i2u405_40:
 12038  002334                     
 12039                           ;usb_device.c: 1888:     {;usb_device.c: 1889:         pBDTEntryEP0OutNext->CNT = 32;
 12040  002334  EE20 F001          	lfsr	2,1
 12041  002338  501B               	movf	_pBDTEntryEP0OutNext^0,w,c
 12042  00233A  26D9               	addwf	fsr2l,f,c
 12043  00233C  501C               	movf	(_pBDTEntryEP0OutNext+1)^0,w,c
 12044  00233E  22DA               	addwfc	fsr2h,f,c
 12045  002340  0E20               	movlw	32
 12046  002342  6EDF               	movwf	indf2,c
 12047                           
 12048                           ;usb_device.c: 1890:         pBDTEntryEP0OutNext->ADR = ((uint16_t)(&CtrlTrfData));
 12049  002344  EE20 F002          	lfsr	2,2
 12050  002348  501B               	movf	_pBDTEntryEP0OutNext^0,w,c
 12051  00234A  26D9               	addwf	fsr2l,f,c
 12052  00234C  501C               	movf	(_pBDTEntryEP0OutNext+1)^0,w,c
 12053  00234E  22DA               	addwfc	fsr2h,f,c
 12054  002350  0E50               	movlw	80
 12055  002352  6EDE               	movwf	postinc2,c
 12056  002354  0E04               	movlw	4
 12057  002356  6EDD               	movwf	postdec2,c
 12058  002358                     
 12059                           ;usb_device.c: 1891:         if(pBDTEntryEP0OutCurrent->STAT.DTS == 0)
 12060  002358  C01D  FFD9         	movff	_pBDTEntryEP0OutCurrent,fsr2l
 12061  00235C  C01E  FFDA         	movff	_pBDTEntryEP0OutCurrent+1,fsr2h
 12062  002360  BCDF               	btfsc	indf2,6,c
 12063  002362  EFB5  F011         	goto	i2u406_41
 12064  002366  EFB7  F011         	goto	i2u406_40
 12065  00236A                     i2u406_41:
 12066  00236A  EFC5  F011         	goto	i2l4806
 12067  00236E                     i2u406_40:
 12068  00236E                     
 12069                           ;usb_device.c: 1892:         {;usb_device.c: 1893:             pBDTEntryEP0OutNext->STAT
      +                          .Val = 0x40|(0x08 & 0x08);
 12070  00236E  C01B  FFD9         	movff	_pBDTEntryEP0OutNext,fsr2l
 12071  002372  C01C  FFDA         	movff	_pBDTEntryEP0OutNext+1,fsr2h
 12072  002376  0E48               	movlw	72
 12073  002378  6EDF               	movwf	indf2,c
 12074  00237A                     
 12075                           ;usb_device.c: 1894:             pBDTEntryEP0OutNext->STAT.Val |= 0x80;
 12076  00237A  C01B  FFD9         	movff	_pBDTEntryEP0OutNext,fsr2l
 12077  00237E  C01C  FFDA         	movff	_pBDTEntryEP0OutNext+1,fsr2h
 12078  002382  0E00               	movlw	0
 12079  002384  8EDB               	bsf	plusw2,7,c
 12080                           
 12081                           ;usb_device.c: 1895:         }
 12082  002386  EFFC  F011         	goto	i2l364
 12083  00238A                     i2l4806:
 12084                           
 12085                           ;usb_device.c: 1897:         {;usb_device.c: 1898:             pBDTEntryEP0OutNext->STAT
      +                          .Val = 0x00|(0x08 & 0x08);
 12086  00238A  C01B  FFD9         	movff	_pBDTEntryEP0OutNext,fsr2l
 12087  00238E  C01C  FFDA         	movff	_pBDTEntryEP0OutNext+1,fsr2h
 12088  002392  0E08               	movlw	8
 12089  002394  6EDF               	movwf	indf2,c
 12090  002396                     
 12091                           ;usb_device.c: 1899:             pBDTEntryEP0OutNext->STAT.Val |= 0x80;
 12092  002396  C01B  FFD9         	movff	_pBDTEntryEP0OutNext,fsr2l
 12093  00239A  C01C  FFDA         	movff	_pBDTEntryEP0OutNext+1,fsr2h
 12094  00239E  0E00               	movlw	0
 12095  0023A0  8EDB               	bsf	plusw2,7,c
 12096  0023A2  EFFC  F011         	goto	i2l364
 12097  0023A6                     i2l4810:
 12098                           
 12099                           ;usb_device.c: 1903:     {;usb_device.c: 1907:         pBDTEntryEP0OutNext->CNT = 32;
 12100  0023A6  EE20 F001          	lfsr	2,1
 12101  0023AA  501B               	movf	_pBDTEntryEP0OutNext^0,w,c
 12102  0023AC  26D9               	addwf	fsr2l,f,c
 12103  0023AE  501C               	movf	(_pBDTEntryEP0OutNext+1)^0,w,c
 12104  0023B0  22DA               	addwfc	fsr2h,f,c
 12105  0023B2  0E20               	movlw	32
 12106  0023B4  6EDF               	movwf	indf2,c
 12107                           
 12108                           ;usb_device.c: 1908:         pBDTEntryEP0OutNext->ADR = ((uint16_t)(&SetupPkt));
 12109  0023B6  EE20 F002          	lfsr	2,2
 12110  0023BA  501B               	movf	_pBDTEntryEP0OutNext^0,w,c
 12111  0023BC  26D9               	addwf	fsr2l,f,c
 12112  0023BE  501C               	movf	(_pBDTEntryEP0OutNext+1)^0,w,c
 12113  0023C0  22DA               	addwfc	fsr2h,f,c
 12114  0023C2  0E30               	movlw	48
 12115  0023C4  6EDE               	movwf	postinc2,c
 12116  0023C6  0E04               	movlw	4
 12117  0023C8  6EDD               	movwf	postdec2,c
 12118  0023CA                     
 12119                           ;usb_device.c: 1912:         pBDTEntryEP0OutNext->STAT.Val = 0x04;
 12120  0023CA  C01B  FFD9         	movff	_pBDTEntryEP0OutNext,fsr2l
 12121  0023CE  C01C  FFDA         	movff	_pBDTEntryEP0OutNext+1,fsr2h
 12122  0023D2  0E04               	movlw	4
 12123  0023D4  6EDF               	movwf	indf2,c
 12124  0023D6                     
 12125                           ;usb_device.c: 1913:         pBDTEntryEP0OutNext->STAT.Val |= 0x80;
 12126  0023D6  C01B  FFD9         	movff	_pBDTEntryEP0OutNext,fsr2l
 12127  0023DA  C01C  FFDA         	movff	_pBDTEntryEP0OutNext+1,fsr2h
 12128  0023DE  0E00               	movlw	0
 12129  0023E0  8EDB               	bsf	plusw2,7,c
 12130  0023E2  9E04               	bcf	(_outPipes+3)^0,7,c	;volatile
 12131  0023E4                     
 12132                           ;usb_device.c: 1947:         if(USBDeferStatusStagePacket == 0)
 12133  0023E4  5023               	movf	_USBDeferStatusStagePacket^0,w,c	;volatile
 12134  0023E6  A4D8               	btfss	status,2,c
 12135  0023E8  EFF8  F011         	goto	i2u407_41
 12136  0023EC  EFFA  F011         	goto	i2u407_40
 12137  0023F0                     i2u407_41:
 12138  0023F0  EFFC  F011         	goto	i2l364
 12139  0023F4                     i2u407_40:
 12140  0023F4                     
 12141                           ;usb_device.c: 1948:         {;usb_device.c: 1949:             USBCtrlEPAllowStatusStage
      +                          ();
 12142  0023F4  EC55  F018         	call	i2_USBCtrlEPAllowStatusStage	;wreg free
 12143  0023F8                     i2l364:
 12144  0023F8  0012               	return		;funcret
 12145  0023FA                     __end_ofi2_USBCtrlTrfRxService:
 12146                           	opt callstack 0
 12147                           
 12148 ;; *************** function i2_USBCtrlEPAllowStatusStage *****************
 12149 ;; Defined at:
 12150 ;;		line 1422 in file "usb_device.c"
 12151 ;; Parameters:    Size  Location     Type
 12152 ;;		None
 12153 ;; Auto vars:     Size  Location     Type
 12154 ;;		None
 12155 ;; Return value:  Size  Location     Type
 12156 ;;                  1    wreg      void 
 12157 ;; Registers used:
 12158 ;;		wreg, fsr2l, fsr2h, status,2, status,0
 12159 ;; Tracked objects:
 12160 ;;		On entry : 0/0
 12161 ;;		On exit  : 0/0
 12162 ;;		Unchanged: 0/0
 12163 ;; Data sizes:     COMRAM   BANK0   BANK1   BANK2   BANK3  BANK4h  BANK4l   BANK5   BANK6   BANK7
 12164 ;;      Params:         0       0       0       0       0       0       0       0       0       0
 12165 ;;      Locals:         0       0       0       0       0       0       0       0       0       0
 12166 ;;      Temps:          0       0       0       0       0       0       0       0       0       0
 12167 ;;      Totals:         0       0       0       0       0       0       0       0       0       0
 12168 ;;Total ram usage:        0 bytes
 12169 ;; Hardware stack levels used:    1
 12170 ;; This function calls:
 12171 ;;		Nothing
 12172 ;; This function is called by:
 12173 ;;		i2_USBDeviceTasks
 12174 ;;		i2_USBCtrlEPServiceComplete
 12175 ;;		i2_USBCtrlTrfRxService
 12176 ;; This function uses a non-reentrant model
 12177 ;;
 12178                           
 12179                           	psect	text63
 12180  0030AA                     __ptext63:
 12181                           	opt callstack 0
 12182  0030AA                     i2_USBCtrlEPAllowStatusStage:
 12183                           	opt callstack 15
 12184  0030AA                     
 12185                           ;usb_device.c: 1429:     if(USBStatusStageEnabledFlag1 == 0)
 12186  0030AA  5022               	movf	_USBStatusStageEnabledFlag1^0,w,c	;volatile
 12187  0030AC  A4D8               	btfss	status,2,c
 12188  0030AE  EF5B  F018         	goto	i2u322_41
 12189  0030B2  EF5D  F018         	goto	i2u322_40
 12190  0030B6                     i2u322_41:
 12191  0030B6  EFCC  F018         	goto	i2l312
 12192  0030BA                     i2u322_40:
 12193  0030BA                     
 12194                           ;usb_device.c: 1430:     {;usb_device.c: 1431:         USBStatusStageEnabledFlag1 = 1;
 12195  0030BA  0E01               	movlw	1
 12196  0030BC  6E22               	movwf	_USBStatusStageEnabledFlag1^0,c	;volatile
 12197                           
 12198                           ;usb_device.c: 1432:         if(USBStatusStageEnabledFlag2 == 0)
 12199  0030BE  5021               	movf	_USBStatusStageEnabledFlag2^0,w,c	;volatile
 12200  0030C0  A4D8               	btfss	status,2,c
 12201  0030C2  EF65  F018         	goto	i2u323_41
 12202  0030C6  EF67  F018         	goto	i2u323_40
 12203  0030CA                     i2u323_41:
 12204  0030CA  EFCC  F018         	goto	i2l312
 12205  0030CE                     i2u323_40:
 12206  0030CE                     
 12207                           ;usb_device.c: 1433:         {;usb_device.c: 1434:             USBStatusStageEnabledFlag
      +                          2 = 1;
 12208  0030CE  0E01               	movlw	1
 12209  0030D0  6E21               	movwf	_USBStatusStageEnabledFlag2^0,c	;volatile
 12210  0030D2                     
 12211                           ;usb_device.c: 1438:             if(controlTransferState == 2)
 12212  0030D2  0E02               	movlw	2
 12213  0030D4  1827               	xorwf	_controlTransferState^0,w,c	;volatile
 12214  0030D6  A4D8               	btfss	status,2,c
 12215  0030D8  EF70  F018         	goto	i2u324_41
 12216  0030DC  EF72  F018         	goto	i2u324_40
 12217  0030E0                     i2u324_41:
 12218  0030E0  EF88  F018         	goto	i2l4242
 12219  0030E4                     i2u324_40:
 12220  0030E4                     
 12221                           ;usb_device.c: 1439:             {;usb_device.c: 1440:                 pBDTEntryIn[0]->C
      +                          NT = 0;
 12222  0030E4  EE20 F001          	lfsr	2,1
 12223  0030E8  500F               	movf	_pBDTEntryIn^0,w,c
 12224  0030EA  26D9               	addwf	fsr2l,f,c
 12225  0030EC  5010               	movf	(_pBDTEntryIn+1)^0,w,c
 12226  0030EE  22DA               	addwfc	fsr2h,f,c
 12227  0030F0  0E00               	movlw	0
 12228  0030F2  6EDF               	movwf	indf2,c
 12229  0030F4                     
 12230                           ;usb_device.c: 1441:                 pBDTEntryIn[0]->STAT.Val = 0x40|(0x08 & 0x08);
 12231  0030F4  C00F  FFD9         	movff	_pBDTEntryIn,fsr2l
 12232  0030F8  C010  FFDA         	movff	_pBDTEntryIn+1,fsr2h
 12233  0030FC  0E48               	movlw	72
 12234  0030FE  6EDF               	movwf	indf2,c
 12235  003100                     
 12236                           ;usb_device.c: 1442:                 pBDTEntryIn[0]->STAT.Val |= 0x80;
 12237  003100  C00F  FFD9         	movff	_pBDTEntryIn,fsr2l
 12238  003104  C010  FFDA         	movff	_pBDTEntryIn+1,fsr2h
 12239  003108  0E00               	movlw	0
 12240  00310A  8EDB               	bsf	plusw2,7,c
 12241                           
 12242                           ;usb_device.c: 1443:             }
 12243  00310C  EFCC  F018         	goto	i2l312
 12244  003110                     i2l4242:
 12245  003110  0427               	decf	_controlTransferState^0,w,c	;volatile
 12246  003112  A4D8               	btfss	status,2,c
 12247  003114  EF8E  F018         	goto	i2u325_41
 12248  003118  EF90  F018         	goto	i2u325_40
 12249  00311C                     i2u325_41:
 12250  00311C  EFCC  F018         	goto	i2l308
 12251  003120                     i2u325_40:
 12252  003120                     
 12253                           ;usb_device.c: 1445:             {;usb_device.c: 1446:                 BothEP0OutUOWNsSe
      +                          t = 0;
 12254  003120  0E00               	movlw	0
 12255  003122  6E24               	movwf	_BothEP0OutUOWNsSet^0,c	;volatile
 12256  003124                     
 12257                           ;usb_device.c: 1451:                     pBDTEntryEP0OutCurrent->CNT = 32;
 12258  003124  EE20 F001          	lfsr	2,1
 12259  003128  501D               	movf	_pBDTEntryEP0OutCurrent^0,w,c
 12260  00312A  26D9               	addwf	fsr2l,f,c
 12261  00312C  501E               	movf	(_pBDTEntryEP0OutCurrent+1)^0,w,c
 12262  00312E  22DA               	addwfc	fsr2h,f,c
 12263  003130  0E20               	movlw	32
 12264  003132  6EDF               	movwf	indf2,c
 12265  003134                     
 12266                           ;usb_device.c: 1452:                     pBDTEntryEP0OutCurrent->ADR = ((uint16_t)(&Setu
      +                          pPkt));
 12267  003134  EE20 F002          	lfsr	2,2
 12268  003138  501D               	movf	_pBDTEntryEP0OutCurrent^0,w,c
 12269  00313A  26D9               	addwf	fsr2l,f,c
 12270  00313C  501E               	movf	(_pBDTEntryEP0OutCurrent+1)^0,w,c
 12271  00313E  22DA               	addwfc	fsr2h,f,c
 12272  003140  0E30               	movlw	48
 12273  003142  6EDE               	movwf	postinc2,c
 12274  003144  0E04               	movlw	4
 12275  003146  6EDD               	movwf	postdec2,c
 12276  003148                     
 12277                           ;usb_device.c: 1453:                     pBDTEntryEP0OutCurrent->STAT.Val = 0x04;
 12278  003148  C01D  FFD9         	movff	_pBDTEntryEP0OutCurrent,fsr2l
 12279  00314C  C01E  FFDA         	movff	_pBDTEntryEP0OutCurrent+1,fsr2h
 12280  003150  0E04               	movlw	4
 12281  003152  6EDF               	movwf	indf2,c
 12282  003154                     
 12283                           ;usb_device.c: 1454:                     pBDTEntryEP0OutCurrent->STAT.Val |= 0x80;
 12284  003154  C01D  FFD9         	movff	_pBDTEntryEP0OutCurrent,fsr2l
 12285  003158  C01E  FFDA         	movff	_pBDTEntryEP0OutCurrent+1,fsr2h
 12286  00315C  0E00               	movlw	0
 12287  00315E  8EDB               	bsf	plusw2,7,c
 12288  003160                     
 12289                           ;usb_device.c: 1455:                     BothEP0OutUOWNsSet = 1;
 12290  003160  0E01               	movlw	1
 12291  003162  6E24               	movwf	_BothEP0OutUOWNsSet^0,c	;volatile
 12292  003164                     
 12293                           ;usb_device.c: 1459:                 pBDTEntryEP0OutNext->CNT = 32;
 12294  003164  EE20 F001          	lfsr	2,1
 12295  003168  501B               	movf	_pBDTEntryEP0OutNext^0,w,c
 12296  00316A  26D9               	addwf	fsr2l,f,c
 12297  00316C  501C               	movf	(_pBDTEntryEP0OutNext+1)^0,w,c
 12298  00316E  22DA               	addwfc	fsr2h,f,c
 12299  003170  0E20               	movlw	32
 12300  003172  6EDF               	movwf	indf2,c
 12301  003174                     
 12302                           ;usb_device.c: 1460:                 pBDTEntryEP0OutNext->ADR = ((uint16_t)(&SetupPkt));
 12303  003174  EE20 F002          	lfsr	2,2
 12304  003178  501B               	movf	_pBDTEntryEP0OutNext^0,w,c
 12305  00317A  26D9               	addwf	fsr2l,f,c
 12306  00317C  501C               	movf	(_pBDTEntryEP0OutNext+1)^0,w,c
 12307  00317E  22DA               	addwfc	fsr2h,f,c
 12308  003180  0E30               	movlw	48
 12309  003182  6EDE               	movwf	postinc2,c
 12310  003184  0E04               	movlw	4
 12311  003186  6EDD               	movwf	postdec2,c
 12312  003188                     
 12313                           ;usb_device.c: 1461:                 pBDTEntryEP0OutNext->STAT.Val = 0x80;
 12314  003188  C01B  FFD9         	movff	_pBDTEntryEP0OutNext,fsr2l
 12315  00318C  C01C  FFDA         	movff	_pBDTEntryEP0OutNext+1,fsr2h
 12316  003190  0E80               	movlw	128
 12317  003192  6EDF               	movwf	indf2,c
 12318  003194  EFCC  F018         	goto	i2l312
 12319  003198                     i2l308:
 12320  003198                     i2l312:
 12321  003198  0012               	return		;funcret
 12322  00319A                     __end_ofi2_USBCtrlEPAllowStatusStage:
 12323                           	opt callstack 0
 12324                           
 12325 ;; *************** function i2_USBCtrlTrfInHandler *****************
 12326 ;; Defined at:
 12327 ;;		line 2598 in file "usb_device.c"
 12328 ;; Parameters:    Size  Location     Type
 12329 ;;		None
 12330 ;; Auto vars:     Size  Location     Type
 12331 ;;  USBCtrlTrfIn    1    1[COMRAM] unsigned char 
 12332 ;; Return value:  Size  Location     Type
 12333 ;;                  1    wreg      void 
 12334 ;; Registers used:
 12335 ;;		wreg, fsr1l, fsr1h, fsr2l, fsr2h, status,2, status,0, tblptrl, tblptrh, tblptru, cstack
 12336 ;; Tracked objects:
 12337 ;;		On entry : 0/0
 12338 ;;		On exit  : 0/0
 12339 ;;		Unchanged: 0/0
 12340 ;; Data sizes:     COMRAM   BANK0   BANK1   BANK2   BANK3  BANK4h  BANK4l   BANK5   BANK6   BANK7
 12341 ;;      Params:         0       0       0       0       0       0       0       0       0       0
 12342 ;;      Locals:         1       0       0       0       0       0       0       0       0       0
 12343 ;;      Temps:          0       0       0       0       0       0       0       0       0       0
 12344 ;;      Totals:         1       0       0       0       0       0       0       0       0       0
 12345 ;;Total ram usage:        1 bytes
 12346 ;; Hardware stack levels used:    1
 12347 ;; Hardware stack levels required when called:    1
 12348 ;; This function calls:
 12349 ;;		i2_USBCtrlTrfTxService
 12350 ;; This function is called by:
 12351 ;;		i2_USBCtrlEPService
 12352 ;; This function uses a non-reentrant model
 12353 ;;
 12354                           
 12355                           	psect	text64
 12356  002CB2                     __ptext64:
 12357                           	opt callstack 0
 12358  002CB2                     i2_USBCtrlTrfInHandler:
 12359                           	opt callstack 16
 12360  002CB2                     
 12361                           ;usb_device.c: 2600:     uint8_t lastDTS;;usb_device.c: 2602:     lastDTS = pBDTEntryIn[
      +                          0]->STAT.DTS;
 12362  002CB2  C00F  FFD9         	movff	_pBDTEntryIn,fsr2l
 12363  002CB6  C010  FFDA         	movff	_pBDTEntryIn+1,fsr2h
 12364  002CBA  0E00               	movlw	0
 12365  002CBC  BCDF               	btfsc	indf2,6,c
 12366  002CBE  0E01               	movlw	1
 12367  002CC0  6E2C               	movwf	i2USBCtrlTrfInHandler@lastDTS^0,c
 12368  002CC2                     
 12369                           ;usb_device.c: 2605:     pBDTEntryIn[0] = (volatile BDT_ENTRY*)(((uint16_t)pBDTEntryIn[0
      +                          ]) ^ 0x0004);
 12370  002CC2  0E04               	movlw	4
 12371  002CC4  180F               	xorwf	_pBDTEntryIn^0,w,c
 12372  002CC6  6E0F               	movwf	_pBDTEntryIn^0,c
 12373  002CC8  5010               	movf	(_pBDTEntryIn+1)^0,w,c
 12374  002CCA  6E10               	movwf	(_pBDTEntryIn+1)^0,c
 12375  002CCC                     
 12376                           ;usb_device.c: 2610:     if(USBDeviceState == ADR_PENDING_STATE)
 12377  002CCC  0E08               	movlw	8
 12378  002CCE  1829               	xorwf	_USBDeviceState^0,w,c	;volatile
 12379  002CD0  A4D8               	btfss	status,2,c
 12380  002CD2  EF6D  F016         	goto	i2u424_41
 12381  002CD6  EF6F  F016         	goto	i2u424_40
 12382  002CDA                     i2u424_41:
 12383  002CDA  EF81  F016         	goto	i2l5058
 12384  002CDE                     i2u424_40:
 12385  002CDE                     
 12386                           ;usb_device.c: 2611:     {;usb_device.c: 2612:         UADDR = (SetupPkt.bDevADR & 0x7F)
      +                          ;
 12387  002CDE  0104               	movlb	4	; () banked
 12388  002CE0  5132               	movf	50,w,b	;volatile
 12389  002CE2  0B7F               	andlw	127
 12390  002CE4  6E6E               	movwf	110,c	;volatile
 12391  002CE6                     
 12392                           ; BSR set to: 4
 12393                           ;usb_device.c: 2613:         if(UADDR != 0u)
 12394  002CE6  506E               	movf	110,w,c	;volatile
 12395  002CE8  B4D8               	btfsc	status,2,c
 12396  002CEA  EF79  F016         	goto	i2u425_41
 12397  002CEE  EF7B  F016         	goto	i2u425_40
 12398  002CF2                     i2u425_41:
 12399  002CF2  EF7F  F016         	goto	i2l5056
 12400  002CF6                     i2u425_40:
 12401  002CF6                     
 12402                           ; BSR set to: 4
 12403                           ;usb_device.c: 2614:         {;usb_device.c: 2615:             USBDeviceState=ADDRESS_ST
      +                          ATE;
 12404  002CF6  0E10               	movlw	16
 12405  002CF8  6E29               	movwf	_USBDeviceState^0,c	;volatile
 12406                           
 12407                           ;usb_device.c: 2616:         }
 12408  002CFA  EF81  F016         	goto	i2l5058
 12409  002CFE                     i2l5056:
 12410                           
 12411                           ; BSR set to: 4
 12412                           ;usb_device.c: 2618:         {;usb_device.c: 2619:             USBDeviceState=DEFAULT_ST
      +                          ATE;
 12413  002CFE  0E04               	movlw	4
 12414  002D00  6E29               	movwf	_USBDeviceState^0,c	;volatile
 12415  002D02                     i2l5058:
 12416                           
 12417                           ;usb_device.c: 2624:     if(controlTransferState == 1)
 12418  002D02  0427               	decf	_controlTransferState^0,w,c	;volatile
 12419  002D04  A4D8               	btfss	status,2,c
 12420  002D06  EF87  F016         	goto	i2u426_41
 12421  002D0A  EF89  F016         	goto	i2u426_40
 12422  002D0E                     i2u426_41:
 12423  002D0E  EFD0  F016         	goto	i2l437
 12424  002D12                     i2u426_40:
 12425  002D12                     
 12426                           ;usb_device.c: 2625:     {;usb_device.c: 2626:         pBDTEntryIn[0]->ADR = ((uint16_t)
      +                          (CtrlTrfData));
 12427  002D12  EE20 F002          	lfsr	2,2
 12428  002D16  500F               	movf	_pBDTEntryIn^0,w,c
 12429  002D18  26D9               	addwf	fsr2l,f,c
 12430  002D1A  5010               	movf	(_pBDTEntryIn+1)^0,w,c
 12431  002D1C  22DA               	addwfc	fsr2h,f,c
 12432  002D1E  0E50               	movlw	80
 12433  002D20  6EDE               	movwf	postinc2,c
 12434  002D22  0E04               	movlw	4
 12435  002D24  6EDD               	movwf	postdec2,c
 12436  002D26                     
 12437                           ;usb_device.c: 2627:         USBCtrlTrfTxService();
 12438  002D26  EC44  F014         	call	i2_USBCtrlTrfTxService	;wreg free
 12439  002D2A                     
 12440                           ;usb_device.c: 2633:         if(shortPacketStatus == 2)
 12441  002D2A  0E02               	movlw	2
 12442  002D2C  1828               	xorwf	_shortPacketStatus^0,w,c	;volatile
 12443  002D2E  A4D8               	btfss	status,2,c
 12444  002D30  EF9C  F016         	goto	i2u427_41
 12445  002D34  EF9E  F016         	goto	i2u427_40
 12446  002D38                     i2u427_41:
 12447  002D38  EFAC  F016         	goto	i2l5070
 12448  002D3C                     i2u427_40:
 12449  002D3C                     
 12450                           ;usb_device.c: 2634:         {;usb_device.c: 2637:             pBDTEntryIn[0]->STAT.Val 
      +                          = 0x04;
 12451  002D3C  C00F  FFD9         	movff	_pBDTEntryIn,fsr2l
 12452  002D40  C010  FFDA         	movff	_pBDTEntryIn+1,fsr2h
 12453  002D44  0E04               	movlw	4
 12454  002D46  6EDF               	movwf	indf2,c
 12455  002D48                     
 12456                           ;usb_device.c: 2638:             pBDTEntryIn[0]->STAT.Val |= 0x80;
 12457  002D48  C00F  FFD9         	movff	_pBDTEntryIn,fsr2l
 12458  002D4C  C010  FFDA         	movff	_pBDTEntryIn+1,fsr2h
 12459  002D50  0E00               	movlw	0
 12460  002D52  8EDB               	bsf	plusw2,7,c
 12461                           
 12462                           ;usb_device.c: 2639:         }
 12463  002D54  EFDA  F016         	goto	i2l445
 12464  002D58                     i2l5070:
 12465                           
 12466                           ;usb_device.c: 2641:         {;usb_device.c: 2642:             if(lastDTS == 0)
 12467  002D58  502C               	movf	i2USBCtrlTrfInHandler@lastDTS^0,w,c
 12468  002D5A  A4D8               	btfss	status,2,c
 12469  002D5C  EFB2  F016         	goto	i2u428_41
 12470  002D60  EFB4  F016         	goto	i2u428_40
 12471  002D64                     i2u428_41:
 12472  002D64  EFC2  F016         	goto	i2l5076
 12473  002D68                     i2u428_40:
 12474  002D68                     
 12475                           ;usb_device.c: 2643:             {;usb_device.c: 2644:                 pBDTEntryIn[0]->S
      +                          TAT.Val = 0x40|(0x08 & 0x08);
 12476  002D68  C00F  FFD9         	movff	_pBDTEntryIn,fsr2l
 12477  002D6C  C010  FFDA         	movff	_pBDTEntryIn+1,fsr2h
 12478  002D70  0E48               	movlw	72
 12479  002D72  6EDF               	movwf	indf2,c
 12480  002D74                     
 12481                           ;usb_device.c: 2645:                 pBDTEntryIn[0]->STAT.Val |= 0x80;
 12482  002D74  C00F  FFD9         	movff	_pBDTEntryIn,fsr2l
 12483  002D78  C010  FFDA         	movff	_pBDTEntryIn+1,fsr2h
 12484  002D7C  0E00               	movlw	0
 12485  002D7E  8EDB               	bsf	plusw2,7,c
 12486                           
 12487                           ;usb_device.c: 2646:             }
 12488  002D80  EFDA  F016         	goto	i2l445
 12489  002D84                     i2l5076:
 12490                           
 12491                           ;usb_device.c: 2648:             {;usb_device.c: 2649:                 pBDTEntryIn[0]->S
      +                          TAT.Val = 0x00|(0x08 & 0x08);
 12492  002D84  C00F  FFD9         	movff	_pBDTEntryIn,fsr2l
 12493  002D88  C010  FFDA         	movff	_pBDTEntryIn+1,fsr2h
 12494  002D8C  0E08               	movlw	8
 12495  002D8E  6EDF               	movwf	indf2,c
 12496  002D90                     
 12497                           ;usb_device.c: 2650:                 pBDTEntryIn[0]->STAT.Val |= 0x80;
 12498  002D90  C00F  FFD9         	movff	_pBDTEntryIn,fsr2l
 12499  002D94  C010  FFDA         	movff	_pBDTEntryIn+1,fsr2h
 12500  002D98  0E00               	movlw	0
 12501  002D9A  8EDB               	bsf	plusw2,7,c
 12502  002D9C  EFDA  F016         	goto	i2l445
 12503  002DA0                     i2l437:
 12504                           
 12505                           ;usb_device.c: 2655:  {;usb_device.c: 2659:         if(outPipes[0].info.bits.busy == 1)
 12506  002DA0  AE04               	btfss	(_outPipes+3)^0,7,c	;volatile
 12507  002DA2  EFD5  F016         	goto	i2u429_41
 12508  002DA6  EFD7  F016         	goto	i2u429_40
 12509  002DAA                     i2u429_41:
 12510  002DAA  EFD8  F016         	goto	i2l5082
 12511  002DAE                     i2u429_40:
 12512  002DAE                     
 12513                           ;usb_device.c: 2665:             outPipes[0].info.bits.busy = 0;
 12514  002DAE  9E04               	bcf	(_outPipes+3)^0,7,c	;volatile
 12515  002DB0                     i2l5082:
 12516                           
 12517                           ;usb_device.c: 2668:         controlTransferState = 0;
 12518  002DB0  0E00               	movlw	0
 12519  002DB2  6E27               	movwf	_controlTransferState^0,c	;volatile
 12520  002DB4                     i2l445:
 12521  002DB4  0012               	return		;funcret
 12522  002DB6                     __end_ofi2_USBCtrlTrfInHandler:
 12523                           	opt callstack 0
 12524                           
 12525 ;; *************** function i2_USBCtrlTrfTxService *****************
 12526 ;; Defined at:
 12527 ;;		line 1777 in file "usb_device.c"
 12528 ;; Parameters:    Size  Location     Type
 12529 ;;		None
 12530 ;; Auto vars:     Size  Location     Type
 12531 ;;  USBCtrlTrfTx    1    0[COMRAM] unsigned char 
 12532 ;; Return value:  Size  Location     Type
 12533 ;;                  1    wreg      void 
 12534 ;; Registers used:
 12535 ;;		wreg, fsr1l, fsr1h, fsr2l, fsr2h, status,2, status,0, tblptrl, tblptrh, tblptru
 12536 ;; Tracked objects:
 12537 ;;		On entry : 0/0
 12538 ;;		On exit  : 0/0
 12539 ;;		Unchanged: 0/0
 12540 ;; Data sizes:     COMRAM   BANK0   BANK1   BANK2   BANK3  BANK4h  BANK4l   BANK5   BANK6   BANK7
 12541 ;;      Params:         0       0       0       0       0       0       0       0       0       0
 12542 ;;      Locals:         1       0       0       0       0       0       0       0       0       0
 12543 ;;      Temps:          0       0       0       0       0       0       0       0       0       0
 12544 ;;      Totals:         1       0       0       0       0       0       0       0       0       0
 12545 ;;Total ram usage:        1 bytes
 12546 ;; Hardware stack levels used:    1
 12547 ;; This function calls:
 12548 ;;		Nothing
 12549 ;; This function is called by:
 12550 ;;		i2_USBCtrlEPAllowDataStage
 12551 ;;		i2_USBCtrlTrfInHandler
 12552 ;; This function uses a non-reentrant model
 12553 ;;
 12554                           
 12555                           	psect	text65
 12556  002888                     __ptext65:
 12557                           	opt callstack 0
 12558  002888                     i2_USBCtrlTrfTxService:
 12559                           	opt callstack 14
 12560  002888                     
 12561                           ;usb_device.c: 1779:     uint8_t byteToSend;;usb_device.c: 1783:     byteToSend = 32;
 12562  002888  0E20               	movlw	32
 12563  00288A  6E2B               	movwf	i2USBCtrlTrfTxService@byteToSend^0,c
 12564  00288C                     
 12565                           ;usb_device.c: 1784:     if(inPipes[0].wCount.Val < (uint8_t)32)
 12566  00288C  500E               	movf	(_inPipes+5)^0,w,c	;volatile
 12567  00288E  E107               	bnz	i2u296_41
 12568  002890  0E20               	movlw	32
 12569  002892  5C0D               	subwf	(_inPipes+4)^0,w,c	;volatile
 12570  002894  B0D8               	btfsc	status,0,c
 12571  002896  EF4F  F014         	goto	i2u296_41
 12572  00289A  EF51  F014         	goto	i2u296_40
 12573  00289E                     i2u296_41:
 12574  00289E  EF69  F014         	goto	i2l4054
 12575  0028A2                     i2u296_40:
 12576  0028A2                     
 12577                           ;usb_device.c: 1785:     {;usb_device.c: 1786:         byteToSend = inPipes[0].wCount.Va
      +                          l;
 12578  0028A2  C00D  F02B         	movff	_inPipes+4,i2USBCtrlTrfTxService@byteToSend	;volatile
 12579  0028A6                     
 12580                           ;usb_device.c: 1793:         if(shortPacketStatus == 0)
 12581  0028A6  5028               	movf	_shortPacketStatus^0,w,c	;volatile
 12582  0028A8  A4D8               	btfss	status,2,c
 12583  0028AA  EF59  F014         	goto	i2u297_41
 12584  0028AE  EF5B  F014         	goto	i2u297_40
 12585  0028B2                     i2u297_41:
 12586  0028B2  EF5F  F014         	goto	i2l4050
 12587  0028B6                     i2u297_40:
 12588  0028B6                     
 12589                           ;usb_device.c: 1794:         {;usb_device.c: 1795:             shortPacketStatus = 1;
 12590  0028B6  0E01               	movlw	1
 12591  0028B8  6E28               	movwf	_shortPacketStatus^0,c	;volatile
 12592                           
 12593                           ;usb_device.c: 1796:         }
 12594  0028BA  EF69  F014         	goto	i2l4054
 12595  0028BE                     i2l4050:
 12596  0028BE  0428               	decf	_shortPacketStatus^0,w,c	;volatile
 12597  0028C0  A4D8               	btfss	status,2,c
 12598  0028C2  EF65  F014         	goto	i2u298_41
 12599  0028C6  EF67  F014         	goto	i2u298_40
 12600  0028CA                     i2u298_41:
 12601  0028CA  EF69  F014         	goto	i2l4054
 12602  0028CE                     i2u298_40:
 12603  0028CE                     
 12604                           ;usb_device.c: 1798:         {;usb_device.c: 1799:             shortPacketStatus = 2;
 12605  0028CE  0E02               	movlw	2
 12606  0028D0  6E28               	movwf	_shortPacketStatus^0,c	;volatile
 12607  0028D2                     i2l4054:
 12608                           
 12609                           ;usb_device.c: 1805:     inPipes[0].wCount.Val -= byteToSend;
 12610  0028D2  502B               	movf	i2USBCtrlTrfTxService@byteToSend^0,w,c
 12611  0028D4  5E0D               	subwf	(_inPipes+4)^0,f,c	;volatile
 12612  0028D6  0E00               	movlw	0
 12613  0028D8  5A0E               	subwfb	(_inPipes+5)^0,f,c	;volatile
 12614  0028DA                     
 12615                           ;usb_device.c: 1810:     pBDTEntryIn[0]->CNT = byteToSend;
 12616  0028DA  EE20 F001          	lfsr	2,1
 12617  0028DE  500F               	movf	_pBDTEntryIn^0,w,c
 12618  0028E0  26D9               	addwf	fsr2l,f,c
 12619  0028E2  5010               	movf	(_pBDTEntryIn+1)^0,w,c
 12620  0028E4  22DA               	addwfc	fsr2h,f,c
 12621  0028E6  C02B  FFDF         	movff	i2USBCtrlTrfTxService@byteToSend,indf2
 12622  0028EA                     
 12623                           ;usb_device.c: 1814:     pDst = (volatile uint8_t*)CtrlTrfData;
 12624  0028EA  0E50               	movlw	80
 12625  0028EC  0100               	movlb	0	; () banked
 12626  0028EE  6FC2               	movwf	_pDst& (0+255),b
 12627  0028F0  0E04               	movlw	4
 12628  0028F2  6FC3               	movwf	(_pDst+1)& (0+255),b
 12629  0028F4                     
 12630                           ; BSR set to: 0
 12631                           ;usb_device.c: 1815:     if(inPipes[0].info.bits.ctrl_trf_mem == 0x00)
 12632  0028F4  B00C               	btfsc	(_inPipes+3)^0,0,c	;volatile
 12633  0028F6  EF7F  F014         	goto	i2u299_41
 12634  0028FA  EF81  F014         	goto	i2u299_40
 12635  0028FE                     i2u299_41:
 12636  0028FE  EFC3  F014         	goto	i2l4082
 12637  002902                     i2u299_40:
 12638  002902  EF9E  F014         	goto	i2l4072
 12639  002906                     i2l4064:
 12640                           
 12641                           ; BSR set to: 0
 12642                           ;usb_device.c: 1818:         {;usb_device.c: 1819:             *pDst++ = *inPipes[0].pSr
      +                          c.bRom++;
 12643  002906  C009  FFF6         	movff	_inPipes,tblptrl	;volatile
 12644  00290A  C00A  FFF7         	movff	_inPipes+1,tblptrh	;volatile
 12645  00290E  6AF8               	clrf	tblptru,c
 12646  002910  C0C2  FFD9         	movff	_pDst,fsr2l
 12647  002914  C0C3  FFDA         	movff	_pDst+1,fsr2h
 12648  002918  0E07               	movlw	(high __ramtop+-1)
 12649  00291A  64F7               	cpfsgt	tblptrh,c
 12650  00291C  D003               	bra	i2u300_47
 12651  00291E  0008               	tblrd		*
 12652  002920  50F5               	movf	tablat,w,c
 12653  002922  D005               	bra	i2u300_40
 12654  002924                     i2u300_47:
 12655  002924  CFF6 FFE1          	movff	tblptrl,fsr1l
 12656  002928  CFF7 FFE2          	movff	tblptrh,fsr1h
 12657  00292C  50E7               	movf	indf1,w,c
 12658  00292E                     i2u300_40:
 12659  00292E  6EDF               	movwf	indf2,c
 12660  002930  4A09               	infsnz	_inPipes^0,f,c	;volatile
 12661  002932  2A0A               	incf	(_inPipes+1)^0,f,c	;volatile
 12662  002934  0100               	movlb	0	; () banked
 12663  002936  4BC2               	infsnz	_pDst& (0+255),f,b
 12664  002938  2BC3               	incf	(_pDst+1)& (0+255),f,b
 12665  00293A                     
 12666                           ; BSR set to: 0
 12667                           ;usb_device.c: 1820:             byteToSend--;
 12668  00293A  062B               	decf	i2USBCtrlTrfTxService@byteToSend^0,f,c
 12669  00293C                     i2l4072:
 12670                           
 12671                           ; BSR set to: 0
 12672                           ;usb_device.c: 1817:         while(byteToSend)
 12673  00293C  502B               	movf	i2USBCtrlTrfTxService@byteToSend^0,w,c
 12674  00293E  A4D8               	btfss	status,2,c
 12675  002940  EFA4  F014         	goto	i2u301_41
 12676  002944  EFA6  F014         	goto	i2u301_40
 12677  002948                     i2u301_41:
 12678  002948  EF83  F014         	goto	i2l4064
 12679  00294C                     i2u301_40:
 12680  00294C  EFCB  F014         	goto	i2l351
 12681  002950                     i2l4074:
 12682                           
 12683                           ; BSR set to: 0
 12684                           ;usb_device.c: 1826:         {;usb_device.c: 1827:             *pDst++ = *inPipes[0].pSr
      +                          c.bRam++;
 12685  002950  C009  FFF6         	movff	_inPipes,tblptrl	;volatile
 12686  002954  C00A  FFF7         	movff	_inPipes+1,tblptrh	;volatile
 12687  002958  6AF8               	clrf	tblptru,c
 12688  00295A  C0C2  FFD9         	movff	_pDst,fsr2l
 12689  00295E  C0C3  FFDA         	movff	_pDst+1,fsr2h
 12690  002962  0E07               	movlw	(high __ramtop+-1)
 12691  002964  64F7               	cpfsgt	tblptrh,c
 12692  002966  D003               	bra	i2u302_47
 12693  002968  0008               	tblrd		*
 12694  00296A  50F5               	movf	tablat,w,c
 12695  00296C  D005               	bra	i2u302_40
 12696  00296E                     i2u302_47:
 12697  00296E  CFF6 FFE1          	movff	tblptrl,fsr1l
 12698  002972  CFF7 FFE2          	movff	tblptrh,fsr1h
 12699  002976  50E7               	movf	indf1,w,c
 12700  002978                     i2u302_40:
 12701  002978  6EDF               	movwf	indf2,c
 12702  00297A  4A09               	infsnz	_inPipes^0,f,c	;volatile
 12703  00297C  2A0A               	incf	(_inPipes+1)^0,f,c	;volatile
 12704  00297E  0100               	movlb	0	; () banked
 12705  002980  4BC2               	infsnz	_pDst& (0+255),f,b
 12706  002982  2BC3               	incf	(_pDst+1)& (0+255),f,b
 12707  002984                     
 12708                           ; BSR set to: 0
 12709                           ;usb_device.c: 1828:             byteToSend--;
 12710  002984  062B               	decf	i2USBCtrlTrfTxService@byteToSend^0,f,c
 12711  002986                     i2l4082:
 12712                           
 12713                           ; BSR set to: 0
 12714                           ;usb_device.c: 1825:         while(byteToSend)
 12715  002986  502B               	movf	i2USBCtrlTrfTxService@byteToSend^0,w,c
 12716  002988  A4D8               	btfss	status,2,c
 12717  00298A  EFC9  F014         	goto	i2u303_41
 12718  00298E  EFCB  F014         	goto	i2u303_40
 12719  002992                     i2u303_41:
 12720  002992  EFA8  F014         	goto	i2l4074
 12721  002996                     i2u303_40:
 12722  002996                     i2l351:
 12723                           
 12724                           ; BSR set to: 0
 12725  002996  0012               	return		;funcret
 12726  002998                     __end_ofi2_USBCtrlTrfTxService:
 12727                           	opt callstack 0
 12728                           
 12729                           	psect	rparam
 12730  0000                     
 12731                           	psect	temp
 12732  000054                     btemp:
 12733                           	opt callstack 0
 12734  000054                     	ds	1
 12735  0000                     int$flags	set	btemp
 12736  0000                     wtemp8	set	btemp+1
 12737  0000                     ttemp5	set	btemp+1
 12738  0000                     ttemp6	set	btemp+4
 12739  0000                     ttemp7	set	btemp+8
 12740                           tosu	equ	0xFFF
 12741                           tosh	equ	0xFFE
 12742                           tosl	equ	0xFFD
 12743                           stkptr	equ	0xFFC
 12744                           pclatu	equ	0xFFB
 12745                           pclath	equ	0xFFA
 12746                           pcl	equ	0xFF9
 12747                           tblptru	equ	0xFF8
 12748                           tblptrh	equ	0xFF7
 12749                           tblptrl	equ	0xFF6
 12750                           tablat	equ	0xFF5
 12751                           prodh	equ	0xFF4
 12752                           prodl	equ	0xFF3
 12753                           indf0	equ	0xFEF
 12754                           postinc0	equ	0xFEE
 12755                           postdec0	equ	0xFED
 12756                           preinc0	equ	0xFEC
 12757                           plusw0	equ	0xFEB
 12758                           fsr0h	equ	0xFEA
 12759                           fsr0l	equ	0xFE9
 12760                           wreg	equ	0xFE8
 12761                           indf1	equ	0xFE7
 12762                           postinc1	equ	0xFE6
 12763                           postdec1	equ	0xFE5
 12764                           preinc1	equ	0xFE4
 12765                           plusw1	equ	0xFE3
 12766                           fsr1h	equ	0xFE2
 12767                           fsr1l	equ	0xFE1
 12768                           bsr	equ	0xFE0
 12769                           indf2	equ	0xFDF
 12770                           postinc2	equ	0xFDE
 12771                           postdec2	equ	0xFDD
 12772                           preinc2	equ	0xFDC
 12773                           plusw2	equ	0xFDB
 12774                           fsr2h	equ	0xFDA
 12775                           fsr2l	equ	0xFD9
 12776                           status	equ	0xFD8


Data Sizes:
    Strings     0
    Constant    167
    Data        7
    BSS         168
    Persistent  0
    Stack       0

Auto Spaces:
    Space          Size  Autos    Used
    COMRAM           94     41      83
    BANK0           160     27     160
    BANK1           256      4       4
    BANK2           256      0       0
    BANK3           256      0       0
    BANK4h          144      0       0
    BANK4l           24      0       0
    BANK5           128      0       0
    BANK6           256      0       0
    BANK7           256      0       0

Pointer List with Targets:

    USER_USB_CALLBACK_EVENT_HANDLER@pdata	PTR void  size(2) Largest target is 2047
		 -> RAM(DATA[2047]), USTATcopy(BANK0[1]), USBActiveConfiguration(COMRAM[1]), NULL(NULL[0]), 
		 -> BDT(BIGRAMl[48]), 

    memset@dest	PTR void  size(2) Largest target is 48
		 -> USBAlternateInterface(BANK0[2]), BDT(BIGRAMl[48]), UEP1(SFR[1]), 

    memset@s	PTR unsigned char  size(2) Largest target is 48
		 -> USBAlternateInterface(BANK0[2]), BDT(BIGRAMl[48]), UEP1(SFR[1]), 

    memcpy@d1	PTR void  size(2) Largest target is 8
		 -> SetupPkt(BIGRAMhl[8]), 

    memcpy@d	PTR unsigned char  size(2) Largest target is 8
		 -> SetupPkt(BIGRAMhl[8]), 

    memcpy@s1	PTR const void  size(2) Largest target is 2047
		 -> CtrlTrfData(BIGRAMhl[32]), RAM(DATA[2047]), SetupPkt(BIGRAMhl[8]), 

    memcpy@s	PTR const unsigned char  size(2) Largest target is 2047
		 -> CtrlTrfData(BIGRAMhl[32]), RAM(DATA[2047]), SetupPkt(BIGRAMhl[8]), 

    putUSBUSART@data	PTR unsigned char  size(2) Largest target is 7
		 -> sendFlap@msg(BANK0[7]), 

    CDCDataInHandle	PTR void  size(2) Largest target is 2047
		 -> RAM(DATA[2047]), NULL(NULL[0]), BDT(BIGRAMl[48]), 

    CDCDataOutHandle	PTR void  size(2) Largest target is 2047
		 -> RAM(DATA[2047]), NULL(NULL[0]), BDT(BIGRAMl[48]), 

    pCDCDst.wRom	PTR const unsigned short  size(2) Largest target is 0

    pCDCDst.bRom	PTR const unsigned char  size(2) Largest target is 0

    pCDCDst.wRam	PTR unsigned short  size(2) Largest target is 0

    pCDCDst.bRam	PTR unsigned char  size(2) Largest target is 0

    S2066_POINTER$wRom	PTR const unsigned short  size(2) Largest target is 0

    pCDCSrc.wRom	PTR const unsigned short  size(2) Largest target is 0

    S2066_POINTER$bRom	PTR const unsigned char  size(2) Largest target is 0

    pCDCSrc.bRom	PTR const unsigned char  size(2) Largest target is 0

    S2066_POINTER$wRam	PTR unsigned short  size(2) Largest target is 0

    pCDCSrc.wRam	PTR unsigned short  size(2) Largest target is 0

    S2066_POINTER$bRam	PTR unsigned char  size(2) Largest target is 0

    pCDCSrc.bRam	PTR unsigned char  size(2) Largest target is 0

    USBStdFeatureReqHandler@pUEP	PTR unsigned char  size(2) Largest target is 1
		 -> UEP0(SFR[1]), 

    USBStdFeatureReqHandler@p	PTR struct __BDT size(2) Largest target is 2047
		 -> RAM(DATA[2047]), NULL(NULL[0]), BDT(BIGRAMl[48]), 

    sp__memcpy	PTR void  size(2) Largest target is 8
		 -> SetupPkt(BIGRAMhl[8]), 

    USBStdGetStatusHandler@p	PTR struct __BDT size(2) Largest target is 2047
		 -> RAM(DATA[2047]), NULL(NULL[0]), BDT(BIGRAMl[48]), 

    pDst	PTR volatile unsigned char  size(2) Largest target is 32
		 -> CtrlTrfData(BIGRAMhl[32]), NULL(NULL[0]), 

    USBConfigureEndpoint@handle	PTR volatile struct __BDT size(2) Largest target is 48
		 -> BDT(BIGRAMl[48]), 

    pBDTEntryEP0OutCurrent	PTR volatile struct __BDT size(2) Largest target is 48
		 -> NULL(NULL[0]), BDT(BIGRAMl[48]), 

    pBDTEntryEP0OutNext	PTR volatile struct __BDT size(2) Largest target is 2047
		 -> RAM(DATA[2047]), NULL(NULL[0]), BDT(BIGRAMl[48]), 

    USBTransferOnePacket@data	PTR unsigned char  size(2) Largest target is 64
		 -> cdc_data_tx(BIGRAMhhl[64]), cdc_data_rx(BIGRAMhhh[64]), NULL(NULL[0]), 

    sp__USBTransferOnePacket	PTR void  size(2) Largest target is 2047
		 -> RAM(DATA[2047]), NULL(NULL[0]), BDT(BIGRAMl[48]), 

    USBTransferOnePacket@handle	PTR volatile struct __BDT size(2) Largest target is 2047
		 -> RAM(DATA[2047]), NULL(NULL[0]), BDT(BIGRAMl[48]), 

    USBEnableEndpoint@p	PTR unsigned char  size(2) Largest target is 1
		 -> UEP0(SFR[1]), 

    pBDTEntryOut	PTR volatile struct __BDT[3] size(2) Largest target is 2047
		 -> RAM(DATA[2047]), NULL(NULL[0]), BDT(BIGRAMl[48]), 

    pBDTEntryIn	PTR volatile struct __BDT[3] size(2) Largest target is 2047
		 -> RAM(DATA[2047]), NULL(NULL[0]), BDT(BIGRAMl[48]), 

    S560$pFunc	PTR FTN()void  size(2) Largest target is 0
		 -> NULL(NULL[0]), 

    outPipes.pFunc	PTR FTN()void  size(2) Largest target is 0
		 -> NULL(NULL[0]), 

    S550$wRam	PTR unsigned short  size(2) Largest target is 0

    outPipes.pDst.wRam	PTR unsigned short  size(2) Largest target is 0

    S550$bRam	PTR unsigned char  size(2) Largest target is 0

    outPipes.pDst.bRam	PTR unsigned char  size(2) Largest target is 0

    S526$wRom	PTR const unsigned short  size(2) Largest target is 0

    inPipes.pSrc.wRom	PTR const unsigned short  size(2) Largest target is 0

    S526$wRam	PTR unsigned short  size(2) Largest target is 0

    inPipes.pSrc.wRam	PTR unsigned short  size(2) Largest target is 0

    S526$bRom	PTR const unsigned char  size(2) Largest target is 0

    inPipes.pSrc.bRom	PTR const unsigned char  size(2) Largest target is 0

    S526$bRam	PTR unsigned char  size(2) Largest target is 0

    inPipes.pSrc.bRam	PTR unsigned char  size(2) Largest target is 0

    sp__memset	PTR void  size(2) Largest target is 48
		 -> USBAlternateInterface(BANK0[2]), BDT(BIGRAMl[48]), UEP1(SFR[1]), 

    USB_SD_Ptr	const PTR const unsigned char [3] size(2) Largest target is 38
		 -> sd002(CODE[32]), sd001(CODE[38]), sd000(CODE[4]), 

    USB_CD_Ptr	const PTR const unsigned char [1] size(2) Largest target is 67
		 -> configDescriptor1(CODE[67]), 


Critical Paths under _main in COMRAM

    None.

Critical Paths under _mainISR in COMRAM

    _processUSBTasks->i2_USBDeviceTasks
    i2_USBDeviceTasks->i2_USBCtrlEPService
    i2_USBWakeFromSuspend->i2_USER_USB_CALLBACK_EVENT_HANDLER
    i2_USBSuspend->i2_USER_USB_CALLBACK_EVENT_HANDLER
    i2_USBDeviceInit->i2_memset
    i2_USBCtrlTrfSetupHandler->i2_USBCheckStdRequest
    i2_USBCtrlEPAllowDataStage->i2_USBCtrlTrfTxService
    i2_USBCheckStdRequest->i2_USBStdFeatureReqHandler
    i2_USBStdSetCfgHandler->i2_USER_USB_CALLBACK_EVENT_HANDLER
    i2_USBStdFeatureReqHandler->i2_USER_USB_CALLBACK_EVENT_HANDLER
    i2_CDCInitEP->i2_USBEnableEndpoint
    i2_USBEnableEndpoint->i2_USBConfigureEndpoint
    i2_USBCtrlTrfOutHandler->i2_USBCtrlTrfRxService
    i2_USBCtrlTrfInHandler->i2_USBCtrlTrfTxService

Critical Paths under _main in BANK0

    _sendFlap->_CDCTxService
    _CDCTxService->_USBTransferOnePacket
    _initUSBLib->_USBDeviceInit
    _USBWakeFromSuspend->_USER_USB_CALLBACK_EVENT_HANDLER
    _USBSuspend->_USER_USB_CALLBACK_EVENT_HANDLER
    _USBDeviceInit->_memset
    _USBCtrlEPAllowDataStage->_USBCtrlTrfTxService
    _USBCheckStdRequest->_USBStdFeatureReqHandler
    _USBStdSetCfgHandler->_USER_USB_CALLBACK_EVENT_HANDLER
    _USBStdFeatureReqHandler->_USER_USB_CALLBACK_EVENT_HANDLER
    _CDCInitEP->_USBEnableEndpoint
    _USBEnableEndpoint->_USBConfigureEndpoint
    _USBCtrlTrfOutHandler->_USBCtrlTrfRxService
    _USBCtrlTrfInHandler->_USBCtrlTrfTxService

Critical Paths under _mainISR in BANK0

    None.

Critical Paths under _main in BANK1

    _main->_USBDeviceTasks
    _USBDeviceTasks->_USBCtrlEPService
    _USBCtrlTrfSetupHandler->_USBCheckStdRequest

Critical Paths under _mainISR in BANK1

    None.

Critical Paths under _main in BANK2

    None.

Critical Paths under _mainISR in BANK2

    None.

Critical Paths under _main in BANK3

    None.

Critical Paths under _mainISR in BANK3

    None.

Critical Paths under _main in BANK4h

    None.

Critical Paths under _mainISR in BANK4h

    None.

Critical Paths under _main in BANK4l

    None.

Critical Paths under _mainISR in BANK4l

    None.

Critical Paths under _main in BANK5

    None.

Critical Paths under _mainISR in BANK5

    None.

Critical Paths under _main in BANK6

    None.

Critical Paths under _mainISR in BANK6

    None.

Critical Paths under _main in BANK7

    None.

Critical Paths under _mainISR in BANK7

    None.

Call Graph Tables:

 ---------------------------------------------------------------------------------
 (Depth) Function   	        Calls       Base Space   Used Autos Params    Refs
 ---------------------------------------------------------------------------------
 (0) _main                                                 0     0      0   55419
                     _USBDeviceTasks
                      _debounceDelay
                         _initUSBLib
                         _isUSBReady
                           _sendFlap
 ---------------------------------------------------------------------------------
 (1) _sendFlap                                             7     7      0    2604
                                             13 BANK0      7     7      0
                       _CDCTxService
                        _putUSBUSART
 ---------------------------------------------------------------------------------
 (2) _putUSBUSART                                          3     0      3     270
                                              0 BANK0      3     0      3
 ---------------------------------------------------------------------------------
 (2) _CDCTxService                                         2     2      0    2294
                                             11 BANK0      2     2      0
               _USBTransferOnePacket
 ---------------------------------------------------------------------------------
 (1) _isUSBReady                                           2     2      0      37
                                              0 BANK0      2     2      0
 ---------------------------------------------------------------------------------
 (1) _initUSBLib                                           0     0      0    2556
                    _USBDeviceAttach
                      _USBDeviceInit
 ---------------------------------------------------------------------------------
 (2) _USBDeviceAttach                                      0     0      0       0
 ---------------------------------------------------------------------------------
 (1) _debounceDelay                                        4     4      0      92
                                              0 BANK0      4     4      0
 ---------------------------------------------------------------------------------
 (1) _USBDeviceTasks                                       1     1      0   50130
                                              3 BANK1      1     1      0
          _USBCtrlEPAllowStatusStage
                   _USBCtrlEPService
                      _USBDeviceInit
      _USBIncrement1msInternalTimers
                    _USBStallHandler
                         _USBSuspend
                 _USBWakeFromSuspend
    _USER_USB_CALLBACK_EVENT_HANDLER
 ---------------------------------------------------------------------------------
 (2) _USBWakeFromSuspend                                   0     0      0    6196
    _USER_USB_CALLBACK_EVENT_HANDLER
 ---------------------------------------------------------------------------------
 (2) _USBSuspend                                           0     0      0    6196
    _USER_USB_CALLBACK_EVENT_HANDLER
 ---------------------------------------------------------------------------------
 (2) _USBStallHandler                                      1     1      0       0
                                              0 BANK0      1     1      0
 ---------------------------------------------------------------------------------
 (2) _USBIncrement1msInternalTimers                        0     0      0       0
 ---------------------------------------------------------------------------------
 (2) _USBDeviceInit                                        1     1      0    2556
                                             12 BANK0      1     1      0
                             _memset
 ---------------------------------------------------------------------------------
 (2) _USBCtrlEPService                                     1     1      0   28918
                                              2 BANK1      1     1      0
                _USBCtrlTrfInHandler
               _USBCtrlTrfOutHandler
             _USBCtrlTrfSetupHandler
                             _memcpy
 ---------------------------------------------------------------------------------
 (3) _memcpy                                              11     5      6     520
                                              0 BANK0     11     5      6
 ---------------------------------------------------------------------------------
 (3) _USBCtrlTrfSetupHandler                               0     0      0   28061
                 _USBCheckStdRequest
           _USBCtrlEPServiceComplete
    _USER_USB_CALLBACK_EVENT_HANDLER
 ---------------------------------------------------------------------------------
 (4) _USBCtrlEPServiceComplete                             0     0      0     136
            _USBCtrlEPAllowDataStage
          _USBCtrlEPAllowStatusStage
 ---------------------------------------------------------------------------------
 (5) _USBCtrlEPAllowDataStage                              0     0      0     136
                _USBCtrlTrfTxService
 ---------------------------------------------------------------------------------
 (4) _USBCheckStdRequest                                   2     2      0   21729
                                              0 BANK1      2     2      0
            _USBStdFeatureReqHandler
                _USBStdGetDscHandler
             _USBStdGetStatusHandler
                _USBStdSetCfgHandler
    _USER_USB_CALLBACK_EVENT_HANDLER
 ---------------------------------------------------------------------------------
 (5) _USBStdSetCfgHandler                                  1     1      0    8591
                                             20 BANK0      1     1      0
    _USER_USB_CALLBACK_EVENT_HANDLER
                             _memset
 ---------------------------------------------------------------------------------
 (3) _memset                                              12     6      6    2265
                                              0 BANK0     12     6      6
 ---------------------------------------------------------------------------------
 (5) _USBStdGetStatusHandler                               4     4      0      68
                                              0 BANK0      4     4      0
 ---------------------------------------------------------------------------------
 (5) _USBStdGetDscHandler                                  2     2      0       0
                                              0 BANK0      2     2      0
 ---------------------------------------------------------------------------------
 (5) _USBStdFeatureReqHandler                              7     7      0    6874
                                             20 BANK0      7     7      0
    _USER_USB_CALLBACK_EVENT_HANDLER
 ---------------------------------------------------------------------------------
 (2) _USER_USB_CALLBACK_EVENT_HANDLER                      8     2      6    6196
                                             12 BANK0      8     2      6
                          _CDCInitEP
                 _USBCheckCDCRequest
 ---------------------------------------------------------------------------------
 (3) _USBCheckCDCRequest                                   2     2      0       0
                                              0 BANK0      2     2      0
 ---------------------------------------------------------------------------------
 (3) _CDCInitEP                                            0     0      0    3045
                  _USBEnableEndpoint
               _USBTransferOnePacket
 ---------------------------------------------------------------------------------
 (3) _USBTransferOnePacket                                11     7      4    2093
                                              0 BANK0     11     7      4
 ---------------------------------------------------------------------------------
 (4) _USBEnableEndpoint                                    4     3      1     952
                                              8 BANK0      4     3      1
               _USBConfigureEndpoint
 ---------------------------------------------------------------------------------
 (5) _USBConfigureEndpoint                                 8     7      1     524
                                              0 BANK0      8     7      1
 ---------------------------------------------------------------------------------
 (3) _USBCtrlTrfOutHandler                                 0     0      0     167
                _USBCtrlTrfRxService
 ---------------------------------------------------------------------------------
 (4) _USBCtrlTrfRxService                                  2     2      0     167
                                              0 BANK0      2     2      0
          _USBCtrlEPAllowStatusStage
 ---------------------------------------------------------------------------------
 (5) _USBCtrlEPAllowStatusStage                            0     0      0       0
 ---------------------------------------------------------------------------------
 (3) _USBCtrlTrfInHandler                                  1     1      0     170
                                              1 BANK0      1     1      0
                _USBCtrlTrfTxService
 ---------------------------------------------------------------------------------
 (6) _USBCtrlTrfTxService                                  1     1      0     136
                                              0 BANK0      1     1      0
 ---------------------------------------------------------------------------------
 Estimated maximum stack depth 6
 ---------------------------------------------------------------------------------
 (Depth) Function   	        Calls       Base Space   Used Autos Params    Refs
 ---------------------------------------------------------------------------------
 (10) _mainISR                                            10    10      0   15618
                                             31 COMRAM    10    10      0
                    _processUSBTasks
 ---------------------------------------------------------------------------------
 (11) _processUSBTasks                                     0     0      0   15618
                   i2_USBDeviceTasks
 ---------------------------------------------------------------------------------
 (12) i2_USBDeviceTasks                                    1     1      0   15618
                                             30 COMRAM     1     1      0
        i2_USBCtrlEPAllowStatusStage
                 i2_USBCtrlEPService
                    i2_USBDeviceInit
    i2_USBIncrement1msInternalTimers
                  i2_USBStallHandler
                       i2_USBSuspend
               i2_USBWakeFromSuspend
  i2_USER_USB_CALLBACK_EVENT_HANDLER
 ---------------------------------------------------------------------------------
 (13) i2_USBWakeFromSuspend                                0     0      0    1737
  i2_USER_USB_CALLBACK_EVENT_HANDLER
 ---------------------------------------------------------------------------------
 (13) i2_USBSuspend                                        0     0      0    1737
  i2_USER_USB_CALLBACK_EVENT_HANDLER
 ---------------------------------------------------------------------------------
 (13) i2_USBStallHandler                                   1     1      0       0
                                              0 COMRAM     1     1      0
 ---------------------------------------------------------------------------------
 (13) i2_USBIncrement1msInternalTimers                     0     0      0       0
 ---------------------------------------------------------------------------------
 (13) i2_USBDeviceInit                                     1     1      0    1233
                                             12 COMRAM     1     1      0
                           i2_memset
 ---------------------------------------------------------------------------------
 (13) i2_USBCtrlEPService                                  1     1      0    9128
                                             29 COMRAM     1     1      0
              i2_USBCtrlTrfInHandler
             i2_USBCtrlTrfOutHandler
           i2_USBCtrlTrfSetupHandler
                           i2_memcpy
 ---------------------------------------------------------------------------------
 (14) i2_memcpy                                           11     5      6     221
                                              0 COMRAM    11     5      6
 ---------------------------------------------------------------------------------
 (14) i2_USBCtrlTrfSetupHandler                            0     0      0    8678
               i2_USBCheckStdRequest
         i2_USBCtrlEPServiceComplete
  i2_USER_USB_CALLBACK_EVENT_HANDLER
 ---------------------------------------------------------------------------------
 (15) i2_USBCtrlEPServiceComplete                          0     0      0      92
          i2_USBCtrlEPAllowDataStage
        i2_USBCtrlEPAllowStatusStage
 ---------------------------------------------------------------------------------
 (16) i2_USBCtrlEPAllowDataStage                           0     0      0      92
              i2_USBCtrlTrfTxService
 ---------------------------------------------------------------------------------
 (15) i2_USBCheckStdRequest                                2     2      0    6849
                                             27 COMRAM     2     2      0
          i2_USBStdFeatureReqHandler
              i2_USBStdGetDscHandler
           i2_USBStdGetStatusHandler
              i2_USBStdSetCfgHandler
  i2_USER_USB_CALLBACK_EVENT_HANDLER
 ---------------------------------------------------------------------------------
 (16) i2_USBStdSetCfgHandler                               1     1      0    2858
                                             20 COMRAM     1     1      0
  i2_USER_USB_CALLBACK_EVENT_HANDLER
                           i2_memset
 ---------------------------------------------------------------------------------
 (14) i2_memset                                           12     6      6    1031
                                              0 COMRAM    12     6      6
 ---------------------------------------------------------------------------------
 (16) i2_USBStdGetStatusHandler                            4     4      0      46
                                              0 COMRAM     4     4      0
 ---------------------------------------------------------------------------------
 (16) i2_USBStdGetDscHandler                               2     2      0       0
                                              0 COMRAM     2     2      0
 ---------------------------------------------------------------------------------
 (16) i2_USBStdFeatureReqHandler                           7     7      0    2208
                                             20 COMRAM     7     7      0
  i2_USER_USB_CALLBACK_EVENT_HANDLER
 ---------------------------------------------------------------------------------
 (13) i2_USER_USB_CALLBACK_EVENT_HANDLER                   8     2      6    1737
                                             12 COMRAM     8     2      6
                        i2_CDCInitEP
               i2_USBCheckCDCRequest
 ---------------------------------------------------------------------------------
 (14) i2_USBCheckCDCRequest                                2     2      0       0
                                              0 COMRAM     2     2      0
 ---------------------------------------------------------------------------------
 (14) i2_CDCInitEP                                         0     0      0     935
                i2_USBEnableEndpoint
             i2_USBTransferOnePacket
 ---------------------------------------------------------------------------------
 (15) i2_USBTransferOnePacket                             11     7      4     454
                                              0 COMRAM    11     7      4
 ---------------------------------------------------------------------------------
 (15) i2_USBEnableEndpoint                                 4     3      1     481
                                              8 COMRAM     4     3      1
             i2_USBConfigureEndpoint
 ---------------------------------------------------------------------------------
 (16) i2_USBConfigureEndpoint                              8     7      1     274
                                              0 COMRAM     8     7      1
 ---------------------------------------------------------------------------------
 (14) i2_USBCtrlTrfOutHandler                              0     0      0     114
              i2_USBCtrlTrfRxService
 ---------------------------------------------------------------------------------
 (15) i2_USBCtrlTrfRxService                               2     2      0     114
                                              0 COMRAM     2     2      0
        i2_USBCtrlEPAllowStatusStage
 ---------------------------------------------------------------------------------
 (16) i2_USBCtrlEPAllowStatusStage                         0     0      0       0
 ---------------------------------------------------------------------------------
 (14) i2_USBCtrlTrfInHandler                               1     1      0     115
                                              1 COMRAM     1     1      0
              i2_USBCtrlTrfTxService
 ---------------------------------------------------------------------------------
 (17) i2_USBCtrlTrfTxService                               1     1      0      92
                                              0 COMRAM     1     1      0
 ---------------------------------------------------------------------------------
 Estimated maximum stack depth 17
 ---------------------------------------------------------------------------------

 Call Graph Graphs:

 _main (ROOT)
   _USBDeviceTasks
     _USBCtrlEPAllowStatusStage
     _USBCtrlEPService
       _USBCtrlTrfInHandler
         _USBCtrlTrfTxService
       _USBCtrlTrfOutHandler
         _USBCtrlTrfRxService
           _USBCtrlEPAllowStatusStage
       _USBCtrlTrfSetupHandler
         _USBCheckStdRequest
           _USBStdFeatureReqHandler
             _USER_USB_CALLBACK_EVENT_HANDLER
               _CDCInitEP
                 _USBEnableEndpoint
                   _USBConfigureEndpoint
                 _USBTransferOnePacket
               _USBCheckCDCRequest
           _USBStdGetDscHandler
           _USBStdGetStatusHandler
           _USBStdSetCfgHandler
             _USER_USB_CALLBACK_EVENT_HANDLER
               _CDCInitEP
                 _USBEnableEndpoint
                   _USBConfigureEndpoint
                 _USBTransferOnePacket
               _USBCheckCDCRequest
             _memset
           _USER_USB_CALLBACK_EVENT_HANDLER
             _CDCInitEP
               _USBEnableEndpoint
                 _USBConfigureEndpoint
               _USBTransferOnePacket
             _USBCheckCDCRequest
         _USBCtrlEPServiceComplete
           _USBCtrlEPAllowDataStage
             _USBCtrlTrfTxService
           _USBCtrlEPAllowStatusStage
         _USER_USB_CALLBACK_EVENT_HANDLER
           _CDCInitEP
             _USBEnableEndpoint
               _USBConfigureEndpoint
             _USBTransferOnePacket
           _USBCheckCDCRequest
       _memcpy
     _USBDeviceInit
       _memset
     _USBIncrement1msInternalTimers
     _USBStallHandler
     _USBSuspend
       _USER_USB_CALLBACK_EVENT_HANDLER
         _CDCInitEP
           _USBEnableEndpoint
             _USBConfigureEndpoint
           _USBTransferOnePacket
         _USBCheckCDCRequest
     _USBWakeFromSuspend
       _USER_USB_CALLBACK_EVENT_HANDLER
         _CDCInitEP
           _USBEnableEndpoint
             _USBConfigureEndpoint
           _USBTransferOnePacket
         _USBCheckCDCRequest
     _USER_USB_CALLBACK_EVENT_HANDLER
       _CDCInitEP
         _USBEnableEndpoint
           _USBConfigureEndpoint
         _USBTransferOnePacket
       _USBCheckCDCRequest
   _debounceDelay
   _initUSBLib
     _USBDeviceAttach
     _USBDeviceInit
       _memset
   _isUSBReady
   _sendFlap
     _CDCTxService
       _USBTransferOnePacket
     _putUSBUSART

 _mainISR (ROOT)
   _processUSBTasks
     i2_USBDeviceTasks
       i2_USBCtrlEPAllowStatusStage
       i2_USBCtrlEPService
         i2_USBCtrlTrfInHandler
           i2_USBCtrlTrfTxService
         i2_USBCtrlTrfOutHandler
           i2_USBCtrlTrfRxService
             i2_USBCtrlEPAllowStatusStage
         i2_USBCtrlTrfSetupHandler
           i2_USBCheckStdRequest
             i2_USBStdFeatureReqHandler
               i2_USER_USB_CALLBACK_EVENT_HANDLER
                 i2_CDCInitEP
                   i2_USBEnableEndpoint
                     i2_USBConfigureEndpoint
                   i2_USBTransferOnePacket
                 i2_USBCheckCDCRequest
             i2_USBStdGetDscHandler
             i2_USBStdGetStatusHandler
             i2_USBStdSetCfgHandler
               i2_USER_USB_CALLBACK_EVENT_HANDLER
                 i2_CDCInitEP
                   i2_USBEnableEndpoint
                     i2_USBConfigureEndpoint
                   i2_USBTransferOnePacket
                 i2_USBCheckCDCRequest
               i2_memset
             i2_USER_USB_CALLBACK_EVENT_HANDLER
               i2_CDCInitEP
                 i2_USBEnableEndpoint
                   i2_USBConfigureEndpoint
                 i2_USBTransferOnePacket
               i2_USBCheckCDCRequest
           i2_USBCtrlEPServiceComplete
             i2_USBCtrlEPAllowDataStage
               i2_USBCtrlTrfTxService
             i2_USBCtrlEPAllowStatusStage
           i2_USER_USB_CALLBACK_EVENT_HANDLER
             i2_CDCInitEP
               i2_USBEnableEndpoint
                 i2_USBConfigureEndpoint
               i2_USBTransferOnePacket
             i2_USBCheckCDCRequest
         i2_memcpy
       i2_USBDeviceInit
         i2_memset
       i2_USBIncrement1msInternalTimers
       i2_USBStallHandler
       i2_USBSuspend
         i2_USER_USB_CALLBACK_EVENT_HANDLER
           i2_CDCInitEP
             i2_USBEnableEndpoint
               i2_USBConfigureEndpoint
             i2_USBTransferOnePacket
           i2_USBCheckCDCRequest
       i2_USBWakeFromSuspend
         i2_USER_USB_CALLBACK_EVENT_HANDLER
           i2_CDCInitEP
             i2_USBEnableEndpoint
               i2_USBConfigureEndpoint
             i2_USBTransferOnePacket
           i2_USBCheckCDCRequest
       i2_USER_USB_CALLBACK_EVENT_HANDLER
         i2_CDCInitEP
           i2_USBEnableEndpoint
             i2_USBConfigureEndpoint
           i2_USBTransferOnePacket
         i2_USBCheckCDCRequest

 Address spaces:
Name               Size   Autos  Total    Cost      Usage
BIGRAMl            3FF      0       0      25        0.0%
BIGRAMhhh          280      0       0      22        0.0%
EEDATA             100      0       0       0        0.0%
BITBANK7           100      0       0      20        0.0%
BANK7              100      0       0      21        0.0%
BITBANK6           100      0       0      18        0.0%
BANK6              100      0       0      19        0.0%
BITBANK3           100      0       0       9        0.0%
BANK3              100      0       0      10        0.0%
BITBANK2           100      0       0       7        0.0%
BANK2              100      0       0       8        0.0%
BITBANK1           100      0       0       5        0.0%
BANK1              100      4       4       6        1.6%
BITBANK0            A0      0       0       3        0.0%
BANK0               A0     1B      A0       4      100.0%
BIGRAMhhl           90      0       0      23        0.0%
BANK4h              90      0       0      13        0.0%
BITBANK4h           90      0       0      11        0.0%
BITBANK5            80      0       0      15        0.0%
BANK5               80      0       0      16        0.0%
BITCOMRAM           5E      0       0       0        0.0%
COMRAM              5E     29      53       1       88.3%
BIGRAMhl            18      0       0      24        0.0%
BITBANK4l           18      0       0      12        0.0%
BANK4l              18      0       0      14        0.0%
BITSFR               0      0       0     200        0.0%
SFR                  0      0       0     200        0.0%
STACK                0      0       0       2        0.0%
NULL                 0      0       0       0        0.0%
ABS                  0      0      F7      17        0.0%
DATA                 0      0      F7      26        0.0%
CODE                 0      0       0       0        0.0%


Microchip Technology PIC18 Macro Assembler V2.10 build 88905656 
Symbol Table                                                                                   Fri Oct 17 12:24:45 2025

                            _usbWriteBuffer 0060                                  _USB_SD_Ptr 0801  
                     ??i2_USBEnableEndpoint 0034                                          l40 3D4E  
                                        l38 3D40                                          l55 3BE6  
                                        l48 4124                                          l90 3FD8  
                                        l91 3FDA                                          l79 4132  
              ??i2_USBCtrlEPServiceComplete 002C                               _USBDeviceInit 1B16  
                               __CFG_BORV$3 000000                          __size_of_CDCInitEP 0068  
         __end_ofi2_USBStdFeatureReqHandler 0F6C                                __CFG_CP0$OFF 000000  
                              __CFG_CP1$OFF 000000                                __CFG_CP2$OFF 000000  
                              __CFG_CP3$OFF 000000      i2USER_USB_CALLBACK_EVENT_HANDLER@event 0037  
      USER_USB_CALLBACK_EVENT_HANDLER@event 00EA      i2USER_USB_CALLBACK_EVENT_HANDLER@pdata 0039  
      USER_USB_CALLBACK_EVENT_HANDLER@pdata 00EC                                         l301 3F0E  
                                       l302 3F0C                                         l312 30A8  
                                       l304 3F20                                         l241 1B7E  
                                       l402 3C44                                         l323 3596  
                                       l308 30A8                                         l404 3C46  
                                       l252 0FCC                                         l421 342C  
                                       l413 3F62                                         l253 119A  
               __end_of_USBStdGetDscHandler 19B6                                         l318 3644  
                                       l326 1F8E                                         l246 1C62  
                                       l262 10EE                                         l351 2886  
                                       l431 3A46                                         l407 40A0  
                                       l263 1198                                         l336 2032  
                                       l424 3830                                         l264 1102  
                                       l600 140C                                         l362 1EDA  
                                       l282 2174                                         l371 3286  
                                       l451 2554                                         l444 2BA6  
                                       l364 1EF0                                         l276 3DAA  
                                       l460 25AC                                         l445 2BAC  
                                       l437 2B98                                         l605 1482  
                                       l552 2C2C                                         l392 2A88  
                                       l545 2CB0                                         l385 19B4  
                                       l393 29C0                                         l449 265A  
                                       l554 2C62                                         l466 08F0  
                                       l394 29C6                                         l636 394A  
                                       l485 0B7E                                         l477 0ACC  
                                       l389 29A6                                         l581 40FA  
                                       l558 3B22                                         l494 400E  
                                       l399 2AA4                                         l489 0C1E  
                                       _BDT 000400                                         l599 155A  
                              __CFG_CPB$OFF 000000                                __CFG_CPD$OFF 000000  
                                       _UIE 000F69                                         _UIR 000F68  
                              __CFG_BOR$OFF 000000                                  _USBSuspend 4074  
                      USBStdSetCfgHandler@i 00F2                                         prod 000FF3  
                                       wreg 000FE8                              _USBDeviceTasks 0F6C  
                            _USBDeviceState 0029                       ??_USBCtrlTrfRxService 00DE  
                  __size_ofi2_USBDeviceInit 014A                    USBEnableEndpoint@options 00E6  
                              __CFG_LVP$OFF 000000                                __CFG_WDT$OFF 000000  
                                      l1320 16D2                                        l1316 3DFC  
                USBConfigureEndpoint@handle 00E4                                        l7000 14FA  
                                      l7010 1536                                        l7002 14FC  
                                      l6300 216C                                        l7020 1B24  
                                      l7100 3F1C                                        l7012 153A  
                                      l7004 150C                                        l7022 1B42  
                                      l7110 3F4C                                        l7102 3F22  
                                      l7006 151C                                        l7014 1558  
                                      l6320 2C0E                                        l6312 2BE2  
                                      l6304 2BAE                                        l7040 1B80  
                                      l7024 1B46                                        l7016 1B16  
                                      l7120 4078                                        l7112 3F4E  
                                      l7104 3F26                                        l7200 0FDA  
                                      l7008 152E                                        l6250 3530  
                                      l6330 2C34                                        l6322 2C16  
                                      l6314 2BF2                                        l6402 38D6  
                                      l7050 1B8E                                        l7042 1B84  
                                      l7034 1B54                                        l7026 1B4A  
                                      l7018 1B18                                        l7130 3FEA  
                                      l7122 407A                                        l7114 3F5C  
                                      l7106 3F44                                        l7202 0FE8  
                                      l7210 0FF4                                        l6420 27A8  
                                      l6412 2778                                        l6260 3588  
                                      l6252 353A                                        l6332 2C44  
                                      l6324 2C18                                        l6308 2BC8  
                                      l6500 35F4                                        l7052 1B92  
                                      l7044 1B86                                        l7036 1B6C  
                                      l7028 1B4E                                        l7132 3FFA  
                                      l7140 3BF6                                        l7124 407E  
                                      l7116 4074                                        l7108 3F46  
                                      l7220 1030                                        l7212 1002  
                                      l7204 0FEC                                        l6430 27DC  
                                      l6422 27B0                                        l6414 277E  
                                      l6254 354A                                        l6246 34EC  
                                      l6270 3D90                                        l6262 3D5C  
                                      l6350 3ABC                                        l6334 2C4A  
                                      l6326 2C1E                                        l6318 2C06  
                                      l6342 2C6C                                        l6510 3638  
                                      l6502 360C                                        l7150 336E  
                                      l7070 1C14                                        l7062 1BC2  
                                      l7054 1B9A                                        l7046 1B88  
                                      l7038 1B6E                                        l7134 3FFC  
                                      l7142 3C10                                        l7126 4084  
                                      l7118 4076                                        l7230 1068  
                                      l7222 104E                                        l7214 1010  
                                      l7206 0FEE                                        l7302 3BB0  
                                      l6440 2824                                        l6432 27E4  
                                      l6424 27C0                                        l6416 2794  
                                      l6256 3566                                        l6248 34F6  
                                      l6272 3D9E                                        l6264 3D6C  
                                      l6280 207E                                        l6360 3B1E  
                                      l6352 3ADE                                        l6336 2C52  
                                      l6328 2C26                                        l6600 2A1C  
                                      l6512 319A                                        l6504 3614  
                                      l7160 33BA                                        l7152 3374  
                                      l7080 1C3E                                        l7072 1C24  
                                      l7064 1BF2                                        l7056 1BA8  
                                      l7048 1B8A                                        l7136 400C  
                                      l7128 3FDC                                        l7144 3C2A  
                                      l7240 109C                                        l7232 1078  
                                      l7224 1050                                        l7216 1014  
                                      l7208 0FF2                                        l7312 3BDE  
                                      l7304 3BB8                                        l7320 3D0C  
                                      l6450 286E                                        l6442 282A  
                                      l6418 2798                                        l6426 27C4  
                                      l6258 357E                                        l6266 3D76  
                                      l6290 20CC                                        l6282 2090  
                                      l6274 2038                                        l6354 3AE8  
                                      l6338 2C5A                                        l6610 2A96  
                                      l6602 2A32                                        l6362 155C  
                                      l6530 3212                                        l6514 319C  
                                      l6506 3618                                        l7170 3428  
                                      l7162 33D8                                        l7154 338C  
                                      l7090 1C5E                                        l7082 1C42  
                                      l7074 1C2C                                        l7066 1C02  
                                      l7146 3C36                                        l7138 3BE8  
                                      l7250 10E8                                        l7242 10AA  
                                      l7226 1054                                        l7218 1022  
                                      l7234 107C                                        l7330 3D38  
                                      l7322 3D10                                        l6452 2874  
                                      l6436 27F6                                        l6444 282C  
                                      l6428 27CC                                        l6460 2FDE  
                                      l6268 3D86                                        l6292 20D8  
                                      l6276 204A                                        l6356 3AF4  
                                      l6700 0BEE                                        l6612 2A9E  
                                      l6604 2A48                                        l6380 165C  
                                      l6372 15BE                                        l6540 3248  
                                      l6532 322E                                        l6524 31E0  
                                      l6516 31D8                                        l6508 362C  
                                      l7164 3402                                        l7156 33A8  
                                      l7084 1C44                                        l7076 1C30  
                                      l7068 1C12                                        l7148 3C42  
                                      l7260 1114                                        l7252 10FC  
                                      l7244 10B8                                        l7236 108A  
                                      l7228 1066                                        l7180 0F7C  
                                      l7308 3BD6                                        l7092 3EE0  
                                      l7172 4126                                        l7332 3D3C  
                                      l7324 3D14                                        l7316 3D02  
                                      l6446 2840                                        l6438 2820  
                                      l6454 2876                                        l6470 3020  
                                      l6462 2FE2                                        l6294 20E4  
                                      l6286 209C                                        l6278 2066  
                                      l6358 3B14                                        l6702 0BFA  
                                      l6630 08E4                                        l6622 08AA  
                                      l6550 184A                                        l6614 2AA0  
                                      l6390 16BC                                        l6374 1616  
                                      l6366 157C                                        l6542 324C  
                                      l6534 3230                                        l6526 3200  
                                      l6518 31DA                                        l6710 1F10  
                                      l7166 340A                                        l7158 33B0  
                                      l7086 1C48                                        l7078 1C3A  
                                      l7270 1150                                        l7262 1120  
                                      l7246 10D4                                        l7238 1098  
                                      l7190 0FA4                                        l7182 0F8A  
                                      l7094 3EF0                                        l7174 412A  
                                      l7326 3D28                                        l7318 3D0A  
                                      l6448 286A                                        l6480 3064  
                                      l6472 3030                                        l6464 2FF4  
                                      l6456 2FBA                                        l6296 20F4  
                                      l6288 20C0                                        l6704 0C12  
                                      l6640 0940                                        l6632 08EC  
                                      l6624 08BC                                        l6560 188C  
                                      l6552 185E                                        l6608 2A52  
                                      l6392 16C0                                        l6384 1676  
                                      l6368 1588                                        l6544 325C  
                                      l6536 3238                                        l6528 3202  
                                      l6800 2538                                        l6720 1F5A  
                                      l6712 1F26                                        l7168 3412  
                                      l7088 1C5A                                        l7272 1160  
                                      l7264 1122                                        l7248 10D8  
                                      l7192 0FB2                                        l7184 0F8E  
                                      l7096 3F04                                        l7176 412E  
                                      l7280 3FA4                                        l7328 3D36  
                                      l6482 3070                                        l6474 3034  
                                      l6466 3004                                        l6458 2FCA  
                                      l6298 2132                                        l6394 38C2  
                                      l6650 09C4                                        l6642 0952  
                                      l6634 0900                                        l6626 08D0  
                                      l6570 1926                                        l6562 18A8  
                                      l6554 1866                                        l6386 16AA  
                                      l6378 1630                                        l6546 3264  
                                      l6538 3240                                        l6810 256E  
                                      l6490 3598                                        l6730 1FB6  
                                      l6722 1F66                                        l6714 1F2A  
                                      l6706 1EF2                                        l7274 1168  
                                      l7266 1130                                        l7258 1110  
                                      l7194 0FB4                                        l7186 0F90  
                                      l7178 0F6C                                        l7098 3F06  
                                      l7282 3FB4                                        l7290 40FC  
      __size_ofi2_USBCtrlEPAllowStatusStage 00F0                                        l6900 2AC2  
                                      l6484 3074                                        l6476 3044  
                                      l6468 3010                                        l7700 38F6  
                                      l6396 38C6                                        l6660 0A18  
                                      l6652 09E0                                        l6644 0964  
                                      l6636 0914                                        l6628 08D2  
                                      l6572 1942                                        l6564 18D8  
                                      l6556 186E                                        l6580 1980  
                                      l6388 16B6                                        l6548 3282  
                                      l6820 258A                                        l6812 2576  
                                      l6804 2556                                        l6492 35A2  
                                      l6740 1FDA                                        l6732 1FBA  
                                      l6724 1F7E                                        l6716 1F2E  
                                      l6708 1F02                                        l7276 1184  
                                      l7268 1142                                        l7196 0FB8  
                                      l7188 0F96                                        l7284 3FC2  
                                      l7292 410E                                        l6902 2AD4  
                                      l6910 2AF8                                        l6486 3084  
                                      l6478 3058                                        l7702 393C  
                                      l6398 38CE                                        l6670 0A98  
                                      l6662 0A3C                                        l6654 09EE  
                                      l6646 0984                                        l6638 0928  
                                      l6574 1970                                        l6566 190C  
                                      l6558 187A                                        l6830 25AE  
                                      l6822 2592                                        l6814 2578  
                                      l6806 255E                                        l6494 35B4  
                                      l6750 201A                                        l6742 1FEA  
                                      l6734 1FBE                                        l6726 1F9E  
                                      l6718 1F36                                        l7278 1188  
                                      l7198 0FC6                                        l7286 3FCE  
                                      l7294 4120                                        l6920 2B3E  
                                      l6912 2B08                                        l6904 2ADC  
                                      l6488 3098                                        l6760 1DD6  
                                      l7704 2C82                                        l6680 0B16  
                                      l6672 0AB4                                        l6664 0A5C  
                                      l6656 09FE                                        l6648 09A4  
                                      l6576 1978                                        l6568 1914  
                                      l6592 29A8                                        l6832 25C4  
                                      l6824 25A0                                        l6816 257C  
                                      l6808 2566                                        l6496 35D8  
                                      l6752 201E                                        l6744 1FFE  
                                      l6736 1FCE                                        l6728 1FB2  
                                      l7296 3B88                                        l6930 2B88  
                                      l6922 2B4E                                        l6914 2B1C  
                                      l6906 2AEC                                        l6770 1E06  
                                      l6762 1DDA                                        l6690 0B68  
                                      l6682 0B22                                        l6666 0A70  
                                      l6674 0AE8                                        l6658 0A08  
                                      l6594 29B8                                        l6826 25A2  
                                      l6818 2582                                        l6498 35E4  
                                      l6746 200A                                        l6738 1FD6  
                                      l6850 3DD0                                        l7298 3B92  
                                      l6932 2BA6                                        l6924 2B60  
                                      l6916 2B20                                        l6908 2AF4  
                                      l6780 1E66                                        l6772 1E08  
                                      l6764 1DE2                                        l6756 1DAE  
                                      l6692 0B8E                                        l6684 0B42  
                                      l6676 0AF4                                        l6668 0A88  
                                      l6596 29D8                                        l6588 2998  
                                      l6828 25A6                                        l6836 25E6  
                                      l6748 2016                                        l6860 37C6  
                                      l6852 3DDC                                        l6844 3DAC  
                                      l6940 40E2                                        l6934 2BA8  
                                      l6926 2B6C                                        l6918 2B32  
                                      l6790 1EC2                                        l6782 1E72  
                                      l6774 1E1A                                        l6766 1DEA  
                                      l6758 1DC0                                        l6694 0BAA  
                                      l6686 0B4E                                        l6678 0B0A  
                                      l6598 29FC                                        l6870 37F6  
                                      l6862 37D0                                        l6846 3DC0  
                                      l6854 3DE0                                        l6950 13C4  
                                      l6942 40EA                                        l6928 2B7C  
                                      l6792 1ECE                                        l6784 1E82  
                                      l6776 1E2C                                        l6768 1E02  
                                      l6696 0BC2                                        l6688 0B5A  
                                      l6880 382C                                        l6872 37FE  
                                      l6864 37DC                                        l6856 37A0  
                                      l6848 3DCC                                        l6960 1408  
                                      l6952 13C6                                        l6944 40EE  
                                      l6936 40D0                                        l6794 1EDA  
                                      l6786 1E8E                                        l6778 1E50  
                                      l6890 3A26                                        l6882 39D4  
                                      l6698 0BCE                                        l6874 3802  
                                      l6866 37E6                                        l6858 37BA  
                                      l6970 145A                                        l6962 141C  
                                      l6954 13DA                                        l6946 40F4  
                                      l6938 40D2                                        l6796 1EDC  
                                      l6788 1E9E                                        l6892 3A32  
                                      l6884 39E6                                        l6876 380A  
                                      l6868 37F2                                        l6980 1498  
                                      l6972 146A                                        l6964 1422  
                                      l6956 13F0                                        l6948 40F8  
                                      l6798 1EEC                                        l6894 3A42  
                                      l6886 39EE                                        l7694 25FC  
                                      l6878 380E                                        l6990 14C8  
                                      l6974 147A                                        l6966 1434  
                                      l6958 13F6                                        l6896 2AA6  
                                      l6888 3A02                                        l7696 2A6A  
                                      l6984 14AC                                        l6992 14CA  
                                      l6976 1486                                        l6968 1452  
                                      l6898 2AB8                                        l7698 1996  
                                      l6994 14DE                                        l6986 14C0  
                                      l6978 1494                                        l6996 14F2  
                                      l6988 14C4                                        l6998 14F6  
                                      _LATC 000F8B                                        u6000 0A70  
                                      u6001 0A6C                                        u6010 0A88  
                                      u6011 0A84                                        u6020 0A98  
                                      u6100 1F9E                                        u6021 0A94  
                                      u6101 1F9A                                        u6030 0B0A  
                                      u6110 1FB2                                        u6031 0B06  
                                      u6111 1FAE                                        u6040 0B68  
                                      u6120 1FCE                                        u6200 3DFC  
                                      u6041 0B64                                        u6121 1FCA  
                                      u6201 3DF8                                        u6210 39E6  
                                      u6050 0B7E                                        u6130 202E  
                                      u6211 39E2                                        u6051 0B7A  
                                      u6131 202A                                        u6140 1DD6  
                                      u6220 3A02                                        u5500 204A  
                                      u6060 0B8E                                        u6300 13DA  
                                      u6141 1DD2                                        u6221 39FE  
                                      u5501 2046                                        u6061 0B8A  
                                      u6301 13D6                                        u6230 2AD4  
                                      u6150 1E1A                                        u5510 2090  
                                      u6070 1F02                                        u6310 13F0  
                                      u6231 2AD0                                        u6151 1E16  
                                      u5511 208C                                        u6071 1EFE  
                                      u6311 13EC                                        u6240 2AEC  
                                      u6160 1E2C                                        u5520 20F4  
                                      u5600 1672                                        u6080 1F10  
                                      u6400 151C                                        u6320 1408  
                                      u6241 2AE8                                        u6161 1E28  
                                      u5521 20F0                                        u5601 166E  
                                      u6081 1F0C                                        u6401 1518  
                                      u6321 1404                                        u6250 2B08  
                                      u6170 1E66                                        u5530 2BC4  
                                      u5610 16D2                                        u6090 1F26  
                                      u6410 152E                                        u6330 141C  
                                      u6251 2B04                                        u6171 1E62  
                                      u5531 2BC0                                        u5611 16CE  
                                      u6091 1F22                                        u6411 152A  
                                      u6331 1418                                        u5620 2794  
                                      u6260 2B32                                        u5700 2FCA  
                                      u6180 1EEC                                        u5540 2BDE  
                                      u6420 1B7E                                        u6500 3BF6  
                                      u6340 1434                                        u5621 2790  
                                      u6261 2B2E                                        u5701 2FC6  
                                      u6181 1EE8                                        u5541 2BDA  
                                      u6421 1B7A                                        u6501 3BF2  
                                      u6341 1430                                        u5630 27A8  
                                      u6270 2B60                                        u5710 2FDE  
                                      u5470 354A                                        u5550 2BF2  
                                      u6190 2550                                        u6430 1BA8  
                                      u6510 3C10                                        u6350 146A  
                                      u5631 27A4                                        u6271 2B5C  
                                      u5711 2FDA                                        u5471 3546  
                                      u5551 2BEE                                        u6191 254C  
                                      u6431 1BA4                                        u6511 3C0C  
                                      u6351 1466                                        u5640 27C0  
                                      u6280 2BA6                                        u5720 2FF4  
                                      u5480 3D6C                                        u5560 2C02  
                                      u5800 18D6                                        u6440 1C24  
                                      u6520 3C2A                                        u6600 0FC6  
                                      u6360 147A                                        u5641 27BC  
                                      u6281 2BA2                                        u5721 2FF0  
                                      u5481 3D68                                        u5561 2BFE  
                                      u6441 1C20                                        u6521 3C26  
                                      u6601 0FC2                                        u6361 1476  
                                      u5650 27F2                                        u5730 3030  
                                      u5490 3D86                                        u5810 1906  
                                      u5570 1578                                        u6530 338C  
                                      u6610 0FDA                                        u6450 3EF0  
                                      u6370 14A8                                        u6290 40E2  
                                      u5651 27EE                                        u5731 302C  
                                      u5491 3D82                                        u5571 1574  
                                      u6531 3388                                        u6611 0FD6  
                                      u6451 3EEC                                        u6371 14A4  
                                      u6291 40DE                                        i2l60 3CD6  
                                      u5660 281E                                        u5900 08D0  
                                      u5820 1926                                        u5580 15BA  
                                      u5740 35B4                                        u6540 33D8  
                                      u6700 1098                                        u6620 0FE8  
                                      u6460 3F1C                                        u6380 14DA  
                                      u5901 08CC                                        u5821 1922  
                                      u5581 15B6                                        u5741 35B0  
                                      u6541 33D4                                        u6701 1094  
                                      u6621 0FE4                                        u6461 3F18  
                                      u6381 14D6                                        u5670 283C  
                                      u5910 08E4                                        u5830 1962  
                                      u5590 162C                                        u5750 360C  
                                      u6550 3428                                        u6470 3F5C  
                                      u6710 10AA                                        u6630 1002  
                                      u6390 150C                                        u5671 2838  
                                      u5911 08E0                                        u5807 18CC  
                                      u5591 1628                                        u5751 3608  
                                      u6551 3424                                        u6471 3F58  
                                      u6711 10A6                                        u6631 0FFE  
                                      u6391 1508                       ??_USBCtrlTrfTxService 00DE  
                                      u5680 2868                                        u5920 0900  
                                      u5840 29B8                                        u5760 3212  
                                      u6480 3FFA                                        u6720 10B8  
                                      u6640 1010                                        u6560 0F7C  
                                      u6800 3FC2                                        u5921 08FC  
                                      u5817 18FC                                        u5841 29B4  
                                      u5761 320E                                        u6481 3FF6  
                                      u6721 10B4                                        u6641 100C  
                                      u6561 0F78                                        u6801 3FBE  
                                      u5690 2886                                        u5930 0914  
                                      u5850 29D8                                        u5770 325C  
                                      u6490 400C                                        u6730 10E8  
                                      u6650 1022                                        u6570 0F8A  
                                      u5691 2882                                        u5667 2814  
                                      u5931 0910                                        u5851 29D4  
                                      u5771 3258                                        u6491 4008  
                                      u6731 10E4                                        u6651 101E  
                                      u6571 0F86                                        u6811 4106  
                                      i2l84 4072                                        u5940 0928  
                                      u5780 185E                                        u5860 2A32  
                                      u6740 10FC                                        u6660 1030  
                                      u6580 0FA4                                        u6820 3BAC  
                                      u5941 0924                                        u5837 1958  
                                      u5781 185A                                        u5861 2A2E  
                                      u6741 10F8                                        u6661 102C  
                                      u6581 0FA0                                        u6821 3BA8  
                                      u5950 0940                                        u5790 188C  
                                      u5870 2A48                                        u6750 1110  
                                      u6670 1066                                        u6590 0FB2  
                                      u6830 3BD2                                        u5687 285E  
                                      u5951 093C                                        u5791 1888  
                                      u5871 2A44                                        u6751 110C  
                                      u6671 1062                                        u6591 0FAE  
                                      u6831 3BCE                                        _UCFG 000F6F  
                                      u5960 0952                                        u5880 2A96  
                                      u6760 1130                                        u6680 1078  
                                      u6840 3D28                                        u5961 094E  
                                      u5881 2A92                                        u6761 112C  
                                      u6681 1074                                        u6841 3D24  
                                      u5970 0964                                        u5890 08BC  
                                      u6770 1160                                        u6690 108A  
                                      u6850 3D36                                        u5971 0960  
                                      u5891 08B8                                        u6771 115C  
                                      u6691 1086                                        u6851 3D32  
                                      u5980 09EE                                        u6780 1198  
                                      u6860 3D4E                                        _UEP0 000F70  
                                      u5981 09EA                                        u6781 1194  
                                      u6861 3D4A                                        _UEP1 000F71  
                                      u5990 0A18                                        u6790 3FB4  
                                      u5991 0A14                                        u6791 3FB0  
                                      _UEIE 000F6B                                        _UEIR 000F6A  
                                      _UCON 000F6D                     ??i2_USBCtrlTrfInHandler 002C  
                           _CDCDataInHandle 00BE    i2USBStdFeatureReqHandler@current_ep_data 0043  
    USBStdFeatureReqHandler@current_ep_data 00F6                                        _pDst 00C2  
                                      _main 3D02                    ??i2_USBTransferOnePacket 002F  
             i2USBStdFeatureReqHandler@pUEP 0041                                        fsr1h 000FE2  
                                      fsr2h 000FDA                                        indf1 000FE7  
                               _BaudRateGen 00B0                                        indf2 000FDF  
                                      fsr1l 000FE1                                        fsr2l 000FD9  
                           _USBDeviceAttach 3EE0                                        btemp 0054  
                                      prodh 000FF4                                        prodl 000FF3  
                                      start 000E                               __CFG_IESO$OFF 000000  
       __size_ofi2_USBCtrlEPServiceComplete 0142              __size_ofi2_USBStdGetDscHandler 0160  
             __end_ofi2_USBStdGetDscHandler 1B16                                ?i2_CDCInitEP 002B  
                __end_of_USBCheckStdRequest 265C                      ??_USBCtrlTrfOutHandler 00E0  
                             __CFG_MCLRE$ON 000000                                ___param_bank 000000  
                 ??_USBStdFeatureReqHandler 00F2                    ??_USBStdGetStatusHandler 00DE  
                            ?_USBDeviceInit 002B                               __CFG_PLLDIV$2 000000  
               __size_ofi2_USBCtrlEPService 00BA                              __CFG_CCP2MX$ON 000000  
                                     ?_main 002B           __size_of_USBCtrlEPServiceComplete 0142  
                    __end_of_USBDeviceTasks 119C                   ?_USBCtrlEPServiceComplete 002B  
                                     i2l312 3198                                       i2l241 1CC8  
                                     i2l402 3CA4                                       i2l323 379E  
                                     i2l308 3198                                       i2l404 3CA6  
                                     i2l252 11FC                                       i2l421 34E6  
                                     i2l413 3FA2                                       i2l253 13C2  
                                     i2l318 36F2                                       i2l326 2212  
                                     i2l246 1DAC                                       i2l262 131A  
                                     i2l351 2996                                       i2l431 3ABA  
                                     i2l407 40CE                                       i2l263 13C0  
                                     i2l336 22B6                                       i2l424 38C0  
                                     i2l264 132C                                       i2l362 23E2  
                                     i2l282 2536                                       i2l371 336C  
                                     i2l451 2678                                       i2l444 2DAE  
                                     i2l364 23F8                                       i2l276 3E98  
                                     i2l460 26CE                                       i2l445 2DB4  
                                     i2l437 2DA0                                       i2l552 2F36  
                                     i2l392 2E9A                                       i2l545 2FB8  
                                     i2l385 1B14                                       i2l393 2DDC  
                                     i2l449 2776                                       i2l554 2F6C  
                                     i2l466 0C66                                       i2l394 2DE2  
                                     i2l636 39D2                                       i2l485 0ED0  
                                     i2l477 0E22                                       i2l389 2DC4  
                                     i2l558 3B86                                       i2l494 4042  
                                     i2l399 2EB6                                       i2l489 0F6A  
                                     _UADDR 000F6E                               __CFG_USBDIV$2 000000  
                                     _TRISC 000F94                                       _USTAT 000F6C  
                             __CFG_PWRT$OFF 000000                               __CFG_WRT0$OFF 000000  
        __size_of_USBCtrlEPAllowStatusStage 00F0                               __CFG_WRT1$OFF 000000  
                             __CFG_WRT2$OFF 000000                               __CFG_WRT3$OFF 000000  
                                i2memcpy@d1 002B                              __CFG_EBTR0$OFF 000000  
                            __CFG_FCMEN$OFF 000000                              __CFG_EBTR1$OFF 000000  
                                i2memcpy@s1 002D                              __CFG_EBTR2$OFF 000000  
                            __CFG_EBTR3$OFF 000000             __end_of_USBCtrlEPAllowDataStage 3646  
                           __end_of_mainISR 3D02                                       _sd000 08A4  
                                     _sd001 084C                                       _sd002 0872  
                             __CFG_WRTB$OFF 000000              ?_USBIncrement1msInternalTimers 002B  
                             __CFG_WRTC$OFF 000000                               __CFG_WRTD$OFF 000000  
                  __end_ofi2_USBDeviceTasks 13C4                              __CFG_EBTRB$OFF 000000  
                  ??i2_USBConfigureEndpoint 002C                                       tablat 000FF5  
                     __end_of_debounceDelay 3BE8                                       plusw1 000FE3  
                                     plusw2 000FDB                           __end_of_CDCInitEP 3B24  
                                     ttemp5 0055                                       ttemp6 0058  
                                     ttemp7 005C                                       status 000FD8  
                                     wtemp8 0055                     ??i2_USBCtrlTrfRxService 002B  
                            __CFG_ICPRT$OFF 000000                            __end_ofi2_memcpy 3E4E  
                          __end_ofi2_memset 184A                              __CFG_PBADEN$ON 000000  
              i2USBCtrlTrfInHandler@lastDTS 002C                             putUSBUSART@data 00DE  
              __size_of_USBStdSetCfgHandler 00EE                     ??i2_USBCtrlTrfTxService 002B  
                           __initialization 3E9A                                __end_of_main 3D58  
                     _control_signal_bitmap 00C4                   __size_of_USBCtrlEPService 00C0  
                                    ??_main 00F9                               __activetblptr 000002  
                           ?_USBDeviceTasks 002B                                 ?_USBSuspend 002B  
                 i2USBStdGetStatusHandler@p 002D                       i2_USBStdSetCfgHandler 3288  
                              _cdc_mem_type 00C5                __end_ofi2_USBWakeFromSuspend 3FA4  
                   __end_of_USBDeviceAttach 3F22                            _CDCDataOutHandle 00C0  
                ??i2_USBCtrlTrfSetupHandler 0048                __end_ofi2_USBCheckCDCRequest 2FBA  
                     __size_of_CDCTxService 0198                                      i2l1320 1848  
                                    i2l1316 3E4C                                      i2l4102 16D4  
                                    i2l4040 2888                                      i2l4120 17D2  
                                    i2l4112 1734                                      i2l4050 28BE  
                                    i2l4042 288C                                      i2l4130 1832  
                                    i2l4114 178C                                      i2l4106 16F2  
                                    i2l5010 3862                                      i2l4060 28F4  
                                    i2l4052 28CE                                      i2l4044 28A2  
                                    i2l4132 1836                                      i2l4124 17EC  
                                    i2l4108 16FE                                      i2l4300 32EA  
                                    i2l5020 3890                                      i2l5012 386E  
                                    i2l5004 3832                                      i2l4070 293A  
                                    i2l4046 28A6                                      i2l4054 28D2  
                                    i2l4230 30BA                                      i2l5030 3A48  
                                    i2l4126 1820                                      i2l4118 17A6  
                                    i2l4310 3328                                      i2l4302 32FA  
                                    i2l5022 3894                                      i2l5014 3878  
                                    i2l5006 384C                                      i2l4080 2984  
                                    i2l4064 2906                                      i2l4072 293C  
                                    i2l4056 28DA                                      i2l4048 28B6  
                                    i2l4240 3100                                      i2l4232 30CE  
                                    i2l5040 3AA6                                      i2l5032 3A5A  
                                    i2l4400 0C48                                      i2l4128 182C  
                                    i2l4320 3368                                      i2l4312 3330  
                                    i2l4304 3316                                      i2l5024 389C  
                                    i2l5016 3884                                      i2l5008 3858  
                                    i2l5200 1C9A                                      i2l4074 2950  
                                    i2l4066 2930                                      i2l4082 2986  
                                    i2l4058 28EA                                      i2l5050 2CDE  
                                    i2l4250 3148                                      i2l4242 3110  
                                    i2l4234 30D2                                      i2l5042 3AB6  
                                    i2l5034 3A62                                      i2l4410 0C9E  
                                    i2l4402 0C5A                                      i2l4330 19E6  
                                    i2l4322 19B6                                      i2l4314 3334  
                                    i2l4306 3318                                      i2l5026 38A0  
                                    i2l5018 3888                                      i2l5210 1CB8  
                                    i2l4076 297A                                      i2l4068 2934  
                                    i2l5060 2D12                                      i2l5052 2CE6  
                                    i2l5044 2CB2                                      i2l4260 3188  
                                    i2l4252 3154                                      i2l4244 3120  
                                    i2l4236 30E4                                      i2l4228 30AA  
                                    i2l5036 3A76                                      i2l4092 3960  
                                    i2l4084 394C                                      i2l4420 0D10  
                                    i2l4412 0CB4                                      i2l4404 0C62  
                                    i2l4340 1A7A                                      i2l4332 19F6  
                                    i2l4324 19CA                                      i2l4316 3344  
                                    i2l4308 3320                                      i2l5028 38BC  
                                    i2l5220 1CD4                                      i2l5212 1CCA  
                                    i2l5300 3F9C                                      i2l4078 297E  
                                    i2l5070 2D58                                      i2l5062 2D26  
                                    i2l5054 2CF6                                      i2l5046 2CC2  
                                    i2l4254 3160                                      i2l4246 3124  
                                    i2l4238 30F4                                      i2l5038 3A9A  
                                    i2l4086 3950                                      i2l4430 0D6E  
                                    i2l4422 0D2E                                      i2l4414 0CC6  
                                    i2l4406 0C76                                      i2l4342 1A8A  
                                    i2l4334 1A12                                      i2l4326 19D2  
                                    i2l4318 334C                                      i2l4270 3692  
                                    i2l4262 3646                                      i2l5310 346E  
                                    i2l5302 342E                                      i2l5222 1CD8  
                                    i2l5214 1CCE                                      i2l5206 1C9E  
                                    i2l5080 2DAE                                      i2l5072 2D68  
                                    i2l5064 2D2A                                      i2l5056 2CFE  
                                    i2l5048 2CCC                                      i2l4256 3164  
                                    i2l4248 3134                                      i2l4088 3958  
                                    i2l4440 0DE4                                      i2l4432 0D7C  
                                    i2l4424 0D46                                      i2l4416 0CD6  
                                    i2l4408 0C8A                                      i2l4344 1AA6  
                                    i2l4336 1A40                                      i2l4328 19DA  
                                    i2l4352 1AE2                                      i2l4360 2DB6  
                                    i2l4280 36DA                                      i2l4272 36A2  
                                    i2l4264 3650                                      i2l5312 3478  
                                    i2l5320 34CE                                      i2l5304 3434  
                                    i2l5240 1D5C                                      i2l5224 1CDC  
                                    i2l5216 1CD0                                      i2l5208 1CB6  
                                    i2l5082 2DB0                                      i2l5074 2D74  
                                    i2l5066 2D3C                                      i2l5058 2D02  
                                    i2l4258 3174                                      i2l3810 36FE  
                                    i2l4450 0E5E                                      i2l4442 0DF2  
                                    i2l4434 0D9E                                      i2l4426 0D54  
                                    i2l4418 0CF4                                      i2l4346 1AD2  
                                    i2l4338 1A72                                      i2l4370 2E14  
                                    i2l4290 32C4                                      i2l4282 36E6  
                                    i2l4274 36BA                                      i2l4266 3662  
                                    i2l5090 3E22                                      i2l5322 34E2  
                                    i2l5314 3496                                      i2l5306 344A  
                                    i2l5250 1D84                                      i2l5242 1D5E  
                                    i2l5234 1D0C                                      i2l5226 1CE4  
                                    i2l5218 1CD2                                      i2l5330 4030  
                                    i2l5076 2D84                                      i2l5068 2D48  
                                    i2l3820 3786                                      i2l3812 3738  
                                    i2l4460 0EAC                                      i2l4452 0E6A  
                                    i2l4444 0E0C                                      i2l4436 0DBC  
                                    i2l4428 0D64                                      i2l4348 1ADA  
                                    i2l4372 2E32                                      i2l4364 2DC6  
                                    i2l4380 2E66                                      i2l4284 3288  
                                    i2l4276 36C2                                      i2l4268 3686  
                                    i2l5092 3E2E                                      i2l5084 3DFE  
                                    i2l5316 34BE                                      i2l5308 3466  
                                    i2l5260 1DA4                                      i2l5252 1D88  
                                    i2l5244 1D6E                                      i2l5236 1D3C  
                                    i2l5228 1CF2                                      i2l5332 4040  
                                    i2l5324 4010                                      i2l5078 2D90  
                                    i2l3822 3790                                      i2l3814 3742  
                                    i2l4470 0F1C                                      i2l4462 0EBA  
                                    i2l4454 0E76                                      i2l4438 0DCE  
                                    i2l4446 0E3E                                      i2l4382 2EA8  
                                    i2l4374 2E48                                      i2l4366 2DD6  
                                    i2l4286 328A                                      i2l4278 36C6  
                                    i2l5086 3E12                                      i2l5094 3E32  
                                    i2l5318 34C6                                      i2l5262 1DA8  
                                    i2l5254 1D8C                                      i2l5246 1D76  
                                    i2l5238 1D4C                                      i2l5190 1C66  
                                    i2l5326 401E                                      i2l5270 3C8A  
                                    i2l4800 2358                                      i2l3816 3752  
                                    i2l3808 36F6                                      i2l3840 3E50  
                                    i2l4464 0EE0                                      i2l4472 0F3C  
                                    i2l4456 0E96                                      i2l4448 0E48  
                                    i2l4384 2EB0                                      i2l4376 2E5E  
                                    i2l4368 2DF2                                      i2l4296 32C8  
                                    i2l4288 32C2                                      i2l5088 3E1E  
                                    i2l5256 1D8E                                      i2l5248 1D7A  
                                    i2l5192 1C72                                      i2l5328 402E  
                                    i2l5272 3C96                                      i2l5264 3C48  
                                    i2l5280 40A6                                      i2l5600 1222  
                                    i2l4802 236E                                      i2l4810 23A6  
                                    i2l3818 376E                                      i2l3850 3E8C  
                                    i2l3842 3E5E                                      i2l4474 0F48  
                                    i2l4466 0EFA                                      i2l4458 0EA2  
                                    i2l4394 0C20                                      i2l4386 2EB2  
                                    i2l4298 32E8                                      i2l4730 2186  
                                    i2l5258 1D92                                      i2l5194 1C8E  
                                    i2l5274 3CA2                                      i2l5266 3C56  
                                    i2l5282 40A8                                      i2l5290 3F68  
                                    i2l5610 1252                                      i2l5602 1224  
                                    i2l4820 23F4                                      i2l4812 23CA  
                                    i2l4804 237A                                      i2l3844 3E68  
                                    i2l3860 2452                                      i2l3852 23FC  
                                    i2l3940 2F18                                      i2l3932 2EEC  
                                    i2l3924 2EB8                                      i2l4476 0F5E  
                                    i2l4468 0F10                                      i2l4396 0C32  
                                    i2l4732 2194                                      i2l4740 21BA  
                                    i2l5196 1C92                                      i2l5188 1C64  
                                    i2l5268 3C70                                      i2l5284 40AC  
                                    i2l5276 40A2                                      i2l5292 3F84  
                                    i2l5620 1294                                      i2l5612 1260  
                                    i2l5604 1232                                      i2l4814 23D6  
                                    i2l4806 238A                                      i2l3846 3E76  
                                    i2l3870 249A                                      i2l3854 240C  
                                    i2l3950 2F3E                                      i2l3942 2F20  
                                    i2l3934 2EFC                                      i2l4398 0C46  
                                    i2l4830 268A                                      i2l4822 265C  
                                    i2l4750 2236                                      i2l4742 21DE  
                                    i2l4734 21AA                                      i2l5198 1C96  
                                    i2l5286 40B2                                      i2l5278 40A4  
                                    i2l5294 3F86                                      i2l5630 12C6  
                                    i2l5622 1296                                      i2l5614 127C  
                                    i2l5606 1240                                      i2l4816 23E2  
                                    i2l4808 2396                                      i2l3848 3E80  
                                    i2l3872 24A6                                      i2l3864 245E  
                                    i2l3856 2428                                      i2l3952 2F4E  
                                    i2l3944 2F22                                      i2l3928 2ED2  
                                    i2l4840 26A6                                      i2l4832 2692  
                                    i2l4752 223A                                      i2l4760 225A  
                                    i2l4744 21EA                                      i2l4736 21AE  
                                    i2l4728 2176                                      i2l5296 3F8C  
                                    i2l5288 3F64                                      i2l5640 1304  
                                    i2l5632 12CA                                      i2l5624 12A6  
                                    i2l5616 127E                                      i2l5608 1244  
                                    i2l5800 4060                                      i2l4818 23E4  
                                    i2l3874 24B6                                      i2l3866 2482  
                                    i2l3858 2440                                      i2l3970 3B24  
                                    i2l3954 2F54                                      i2l3946 2F28  
                                    i2l3938 2F10                                      i2l3962 2F76  
                                    i2l4850 26C8                                      i2l4842 26AE  
                                    i2l4834 269A                                      i2l4826 267A  
                                    i2l4770 229A                                      i2l4762 225E  
                                    i2l4754 223E                                      i2l4746 2202  
                                    i2l4738 21B2                                      i2l5298 3F8E  
                                    i2l5650 133A                                      i2l5642 1314  
                                    i2l5634 12D8                                      i2l5618 1282  
                                    i2l5626 12AA                                      i2l5570 119C  
                                    i2l5802 406E                                      i2l4780 22C8  
                                    i2l3876 24F4                                      i2l3868 248E  
                                    i2l3980 3B82                                      i2l3972 3B46  
                                    i2l3956 2F5C                                      i2l3948 2F30  
                                    i2l4852 26D0                                      i2l4844 26B6  
                                    i2l4836 269C                                      i2l4828 2682  
                                    i2l4772 229E                                      i2l4764 226E  
                                    i2l4756 2242                                      i2l4748 2222  
                                    i2l5660 136C                                      i2l5652 133E  
                                    i2l5644 1328                                      i2l5636 12E6  
                                    i2l5628 12B8                                      i2l5572 11AC  
                                    i2l5580 11C6                                      i2l4790 230A  
                                    i2l4782 22DE                                      i2l3878 252E  
                                    i2l3974 3B50                                      i2l3958 2F64  
                                    i2l4854 26E4                                      i2l4846 26C2  
                                    i2l4838 26A0                                      i2l4774 22A2  
                                    i2l4766 2282                                      i2l4758 2252  
                                    i2l5670 13B0                                      i2l5662 137A  
                                    i2l5654 134A                                      i2l5638 1300  
                                    i2l5590 11F6                                      i2l5582 11D4  
                                    i2l5574 11BA                                      i2l5822 3CD2  
                                    i2l4792 230E                                      i2l4784 22E2  
                                    i2l3976 3B5A                                      i2l4848 26C4  
                                    i2l4768 228E                                      i2l5664 138A  
                                    i2l5656 134C                                      i2l5592 120A  
                                    i2l5584 11E2                                      i2l5576 11BE  
                                    i2l4794 2310                                      i2l4786 22EA  
                                    i2l4778 22B8                                      i2l3978 3B78  
                                    i2l4858 2704                                      i2l5666 1392  
                                    i2l5658 135A                                      i2l5594 1218  
                                    i2l5586 11E4                                      i2l5578 11C0  
                                    i2l4796 2322                                      i2l4788 22F2  
                                    i2l5668 13AE                                      i2l5596 121C  
                                    i2l5588 11E8                                      i2l4798 2334  
                                    i2l7710 1AF6                                      i2l5598 121E  
                                    i2l7712 397E                                      i2l7714 39C4  
                                    i2l7706 2718                                      i2l7716 2F8A  
                                    i2l7708 2E7C                                      i2l5796 4044  
                                    i2l5798 4052                               CDCTxService@i 00E9  
                  i2USBTransferOnePacket@ep 0033                           ??i2_USBDeviceInit 0037  
           __size_ofi2_USBTransferOnePacket 013E                              __CFG_VREGEN$ON 000000  
                         _shortPacketStatus 0028                              __CFG_XINST$OFF 000000  
                           USBDeviceTasks@i 0103                                 i2memcpy@tmp 0035  
               USBStdFeatureReqHandler@pUEP 00F4                    USBTransferOnePacket@data 00DF  
                USBCtrlTrfInHandler@lastDTS 00DF                             ??_USBDeviceInit 00EA  
                              ?_putUSBUSART 00DE                              __CFG_STVREN$ON 000000  
        __end_ofi2_USBCtrlEPServiceComplete 22B8                  i2_USBCtrlEPServiceComplete 2176  
                         _USBEnableEndpoint 3D58             __size_of_USBStdGetStatusHandler 010E  
                                    _memcpy 3DAC                                      _memset 155C  
               ??i2_USBStdFeatureReqHandler 003F                                      clear_0 3EC0  
                                    clear_1 3ECC                          ?_USBEnableEndpoint 00E6  
                          __end_of_sendFlap 4126                                   ??_mainISR 004A  
             __size_of_USBTransferOnePacket 0142                    __size_of_processUSBTasks 0030  
                              _CDCTxService 13C4                                __mediumconst 0000  
                                    tblptrh 000FF7                                      tblptrl 000FF6  
                                    tblptru 000FF8                         ??_USBEnableEndpoint 00E7  
                  ??i2_USBCtrlTrfOutHandler 002D                                 _CtrlTrfData 000450  
           __size_ofi2_USBConfigureEndpoint 00AC                        _controlTransferState 0027  
                                __accesstop 0060                     __end_of__initialization 3ED2  
                             ___rparam_used 000001                    __size_of_USBStallHandler 0060  
                       __size_of_USBSuspend 002E                              __pcstackCOMRAM 002B  
                 __end_of_USBEnableEndpoint 3DAC                               sendFlap@F3956 00F9  
                             __end_of_sd000 08A8                               __end_of_sd001 0872  
                             __end_of_sd002 0892                                __pidataBANK0 4134  
                      __size_ofi2_CDCInitEP 0064            __size_of_USBCtrlEPAllowDataStage 00AE  
             __size_of_USBConfigureEndpoint 00B0                 __end_of_USBCtrlTrfInHandler 2BAE  
                    i2_USBTransferOnePacket 23FA               __size_ofi2_USBCheckStdRequest 011C  
                    ?i2_USBStdSetCfgHandler 002B                                  _cdc_notice 00A0  
                                 ?i2_memcpy 002B                                   ?i2_memset 002B  
                                _cdc_rx_len 00C7                                  _cdc_tx_len 00C6  
                  ??_USBCtrlTrfSetupHandler 00F9                     _USBTicksSinceSuspendEnd 00C8  
                          ?_USBDeviceAttach 002B           __size_ofi2_USBStdGetStatusHandler 0102  
                 ?i2_USBStdGetStatusHandler 002B                      _USBStdGetStatusHandler 2998  
                 i2_USBStdFeatureReqHandler 0C20                                  __pbssBANK0 0060  
            __size_ofi2_USBCtrlTrfInHandler 0104               __end_ofi2_USBCtrlTrfInHandler 2DB6  
                               sendFlap@msg 00EB                 __end_ofi2_USBEnableEndpoint 3E9A  
               __size_of_USBWakeFromSuspend 0042                                 _pBDTEntryIn 000F  
                         i2_USBStallHandler 3C48            __end_of_USBCtrlEPServiceComplete 2034  
               __size_of_USBCheckCDCRequest 0104                                  _isUSBReady 3FA4  
                      USBCtrlTrfRxService@i 00DE                          ?i2_USBStallHandler 002B  
                            _isUSBReady$397 00DE         __end_ofi2_USBCtrlEPAllowStatusStage 319A  
               i2_USBCtrlEPAllowStatusStage 30AA                      i2_USBConfigureEndpoint 36F4  
                      i2_USBWakeFromSuspend 3F64                                     ?_memcpy 00DE  
                                   ?_memset 00DE                                  _device_dsc 0892  
                      i2_USBCheckCDCRequest 2EB8                            _USBCtrlEPService 336E  
                                _ep_data_in 0018                         ??i2_USBStallHandler 002B  
               __end_of_USBCtrlTrfRxService 1EF2                          _USBCheckStdRequest 2538  
                         _configDescriptor1 0809                               ?i2_USBSuspend 002B  
                                ??i2_memcpy 0031                                  ??i2_memset 0031  
               __end_of_USBCtrlTrfTxService 2888                         _USBStdSetCfgHandler 319A  
                         ?i2_USBDeviceTasks 002B             __size_ofi2_USBCtrlTrfOutHandler 0074  
                       ?_USBCheckStdRequest 002B                __size_of_USBStdGetDscHandler 016C  
                                   _UIEbits 000F69                           ??_processUSBTasks 004A  
                                   _UIRbits 000F68                          ??i2_USBDeviceTasks 0049  
                             _cdc_trf_state 001F                   __end_ofi2_USBStallHandler 3CA8  
                                 ?_sendFlap 002B                                     _pCDCDst 00B8  
                                   _pCDCSrc 00BB                                  _initUSBLib 4126  
            __size_ofi2_USBCtrlTrfRxService 0142                                     __Hparam 0000  
           ??_USBIncrement1msInternalTimers 00DE                        ?_USBStdSetCfgHandler 002B  
                                 _CDCInitEP 3ABC               __end_ofi2_USBCtrlTrfRxService 23FA  
                                   __Lparam 0000                  __size_of_USBEnableEndpoint 0054  
            __size_ofi2_USBCtrlTrfTxService 0110                        ??_USBCheckStdRequest 0100  
                     i2_USBStdGetDscHandler 19B6               __size_of_USBCtrlTrfOutHandler 0074  
             __end_ofi2_USBCtrlTrfTxService 2998                       ?i2_USBWakeFromSuspend 002B  
                __end_ofi2_USBCtrlEPService 34E8                            ??_USBDeviceTasks 00F9  
                         ??_USBStallHandler 00DE                                __psmallconst 0800  
                     ?i2_USBCheckCDCRequest 002B                        __size_of_putUSBUSART 002C  
                                   __pcinit 3E9A                             __size_of_memcpy 0052  
                           __size_of_memset 0178                   __end_of_configDescriptor1 084C  
                                   __ramtop 0800                                     __ptext0 3D02  
                                   __ptext1 40FC                                     __ptext2 40D0  
                                   __ptext3 13C4                                     __ptext4 3FA4  
                                   __ptext5 4126                                     __ptext6 3EE0  
                                   __ptext7 3B88                                     __ptext8 0F6C  
                                   __ptext9 3F22                                i2memset@dest 002B  
                                   _inPipes 0009                                     _mainISR 0008  
               _USBDeferOUTDataStagePackets 00C9                              ??i2_USBSuspend 003F  
                              ??_USBSuspend 00F2                             i2_USBDeviceInit 1C64  
                          i2USBDeviceInit@i 0037                          __end_of_USB_CD_Ptr 0809  
           __size_of_USBCtrlTrfSetupHandler 0092                              __pintcode_body 3CA8  
                      end_of_initialization 3ED2                          __end_of_USB_SD_Ptr 0807  
                                   memcpy@d 00E5                                     memcpy@n 00E2  
                                   memcpy@s 00E7                         _pBDTEntryEP0OutNext 001B  
                                   memset@c 00E0                                     memset@k 00E6  
                                   memset@n 00E2                                     memset@s 00E8  
                             __Lmediumconst 0000                                     int_func 3CA8  
                           _USB1msTickCount 00B4             _dummy_encapsulated_cmd_response 00CC  
                  ?_USBStdFeatureReqHandler 002B                                  ??_sendFlap 00EB  
                     ??_USBStdSetCfgHandler 00F2                                  ?_CDCInitEP 002B  
        __size_ofi2_USBCtrlEPAllowDataStage 00AE                                 ?_isUSBReady 002B  
                        __end_of_USBSuspend 40A2                  ?i2_USBCtrlEPAllowDataStage 002B  
                   _USBCtrlEPAllowDataStage 3598                      i2_USBCtrlTrfOutHandler 3A48  
                                   postdec1 000FE5                                     postdec2 000FDD  
                                   postinc0 000FEE                                     postinc2 000FDE  
               ?i2_USBCtrlEPServiceComplete 002B                    _USBCtrlEPServiceComplete 1EF2  
                _USBStatusStageEnabledFlag1 0022                  _USBStatusStageEnabledFlag2 0021  
                        USBEnableEndpoint@p 00E7                                   _PORTDbits 000F83  
                    __size_of_debounceDelay 0060                                   _TRISDbits 000F95  
                        _BothEP0OutUOWNsSet 0024                   USBConfigureEndpoint@EPNum 00E3  
                ?_USBCtrlEPAllowStatusStage 002B       i2USER_USB_CALLBACK_EVENT_HANDLER@size 003B  
       USER_USB_CALLBACK_EVENT_HANDLER@size 00EE                                   _USTATcopy 00DD  
              __end_of_USBTransferOnePacket 2176                  __size_ofi2_USBStallHandler 0060  
                               ?_initUSBLib 002B                           putUSBUSART@length 00E0  
                    ?i2_USBStdGetDscHandler 002B                      ??i2_USBWakeFromSuspend 003F  
         __size_ofi2_USBCtrlTrfSetupHandler 0090                   ?i2_USBCtrlTrfSetupHandler 002B  
                    _USBCtrlTrfSetupHandler 37A0                      ??i2_USBCheckCDCRequest 002B  
         __end_ofi2_USBCtrlEPAllowDataStage 36F4                     ?i2_USBTransferOnePacket 002B  
                     __end_of_USBDeviceInit 1C64     __end_ofi2_USBIncrement1msInternalTimers 4044  
  __size_ofi2_USBIncrement1msInternalTimers 0034       __end_of_USBIncrement1msInternalTimers 4010  
    __size_of_USBIncrement1msInternalTimers 0034           ??i2_USBIncrement1msInternalTimers 002B  
          ?i2_USBIncrement1msInternalTimers 002B             i2_USBIncrement1msInternalTimers 4010  
             _USBIncrement1msInternalTimers 3FDC                     ??i2_USBStdSetCfgHandler 003F  
          __end_ofi2_USBStdGetStatusHandler 2EB8                                   i2memcpy@d 0031  
                                 i2memcpy@n 002F                     __end_ofi2_USBDeviceInit 1DAE  
                                 i2memcpy@s 0033                                   i2memset@c 002D  
                                 i2memset@k 0033                                   i2memset@n 002F  
                                 i2memset@s 0035                              __end_of_memcpy 3DFE  
                            __end_of_memset 16D4                           _USBBusIsSuspended 0025  
                       start_initialization 3E9A                     ?_USBStdGetStatusHandler 002B  
           i2USBCtrlTrfRxService@byteToRead 002C               USBCtrlTrfRxService@byteToRead 00DF  
                       __size_of_isUSBReady 0038                                 _cdc_data_rx 000540  
                         __size_ofi2_memcpy 0050                                 _cdc_data_tx 000500  
                         __size_ofi2_memset 0176                __end_of_USBConfigureEndpoint 3598  
           __end_of_USBStdFeatureReqHandler 0C20           __end_of_USBCtrlEPAllowStatusStage 30AA  
                  __end_of_USBCtrlEPService 342E                               _debounceDelay 3B88  
              __end_ofi2_USBCheckStdRequest 2778                   ??_USBCtrlEPAllowDataStage 00DF  
                      __end_ofi2_USBSuspend 40D0                               ??i2_CDCInitEP 0037  
                               ??_CDCInitEP 00EA                              USBDeviceInit@i 00EA  
                   ?i2_USBConfigureEndpoint 002B                      _pBDTEntryEP0OutCurrent 001D  
                   USBTransferOnePacket@dir 00DE                     USBTransferOnePacket@len 00E1  
            __end_ofi2_USBTransferOnePacket 2538                         _USBStdGetDscHandler 184A  
                               __pdataBANK0 00F9                            __CFG_LPT1OSC$OFF 000000  
                                  ??_memcpy 00E4                                    ??_memset 00E4  
                                memset@dest 00DE                             _processUSBTasks 4044  
                    _USBActiveConfiguration 002A              __end_of_USBStdGetStatusHandler 2AA6  
                    i2USBStdSetCfgHandler@i 003F                                 __pbssCOMRAM 0001  
                             __pcstackBANK0 00DE                               __pcstackBANK1 0100  
              __size_of_USBCtrlTrfInHandler 0108                         __size_of_initUSBLib 000E  
                i2USBStdFeatureReqHandler@p 0044                        ?_USBStdGetDscHandler 002B  
                            ?_debounceDelay 002B                  __end_of_USBWakeFromSuspend 3F64  
                           _USBStallHandler 3BE8                                _pBDTEntryOut 00AA  
                __end_of_USBCheckCDCRequest 2CB2              __end_ofi2_USBConfigureEndpoint 37A0  
                  __size_of_USBDeviceAttach 0042                       i2_USBCtrlTrfInHandler 2CB2  
                 __size_ofi2_USBDeviceTasks 0228                           __size_of_sendFlap 002A  
                                 __pintcode 0008                __size_ofi2_USBEnableEndpoint 004C  
                       __end_ofi2_CDCInitEP 3B88                            ?i2_USBDeviceInit 002B  
                                  ?_mainISR 002B                        _USBTransferOnePacket 2034  
                               __smallconst 0800                    i2_USBStdGetStatusHandler 2DB6  
                        i2_USBCtrlEPService 342E                __end_of_USBCtrlTrfOutHandler 3A48  
                     ??_USBStdGetDscHandler 00DE                                 _ep_data_out 0015  
              __size_of_USBCtrlTrfRxService 0144             i2USBConfigureEndpoint@direction 002B  
             USBConfigureEndpoint@direction 00DE                         ?i2_USBCtrlEPService 002B  
              __size_of_USBCtrlTrfTxService 0110                                    _LATCbits 000F8B  
                ??_USBCtrlEPServiceComplete 00DF                                    _IPR2bits 000FA2  
                                  _PIE2bits 000FA0                     ?i2_USBCtrlTrfOutHandler 002B  
                                  i2u300_40 292E                                    i2u300_47 2924  
                                  i2u301_40 294C                                    i2u301_41 2948  
                                  i2u302_40 2978                                    i2u302_47 296E  
                                  i2u303_40 2996                                    i2u303_41 2992  
                                  i2u304_40 16EE                                    i2u400_40 2236  
                                  i2u304_41 16EA                                    i2u400_41 2232  
                                  i2u305_40 1730                                    i2u401_40 2252  
                                  i2u305_41 172C                                    i2u401_41 224E  
                                  i2u322_40 30BA                                    i2u330_40 19CA  
                                  i2u306_40 17A2                                    i2u402_40 22B2  
                                  i2u322_41 30B6                                    i2u330_41 19C6  
                                  i2u306_41 179E                                    i2u402_41 22AE  
                                  i2u323_40 30CE                                    i2u403_40 22DE  
                                  i2u331_40 19F6                                    i2u307_40 17E8  
                                  i2u323_41 30CA                                    i2u403_41 22DA  
                                  i2u331_41 19F2                                    i2u307_41 17E4  
                                  i2u324_40 30E4                                    i2u404_40 2322  
                                  i2u332_40 1A3E                                    i2u340_40 2EA8  
                                  i2u308_40 1848                                    i2u500_40 138A  
                                  i2u324_41 30E0                                    i2u404_41 231E  
                                  i2u340_41 2EA4                                    i2u308_41 1844  
                                  i2u500_41 1386                                    i2u332_47 1A34  
                                  i2u325_40 3120                                    i2u405_40 2334  
                                  i2u341_40 0C32                                    i2u333_40 1A6C  
                                  i2u501_40 13C0                                    i2u325_41 311C  
                                  i2u405_41 2330                                    i2u341_41 0C2E  
                                  i2u501_41 13BC                                    i2u333_47 1A62  
                                  i2u406_40 236E                                    i2u422_40 3A5A  
                                  i2u350_40 0D54                                    i2u342_40 0C46  
                                  i2u334_40 1A8A                                    i2u326_40 3662  
                                  i2u430_40 3E4C                                    i2u406_41 236A  
                                  i2u422_41 3A56                                    i2u350_41 0D50  
                                  i2u342_41 0C42                                    i2u334_41 1A86  
                                  i2u326_41 365E                                    i2u430_41 3E48  
                                  i2u407_40 23F4                                    i2u423_40 3A76  
                                  i2u351_40 0D7C                                    i2u343_40 0C5A  
                                  i2u335_40 1AC6                                    i2u327_40 36BA  
                                  i2u407_41 23F0                                    i2u423_41 3A72  
                                  i2u351_41 0D78                                    i2u343_41 0C56  
                                  i2u327_41 36B6                                    i2u335_47 1ABC  
                                  i2u424_40 2CDE                                    i2u280_40 240C  
                                  i2u352_40 0DCE                                    i2u344_40 0C76  
                                  i2u336_40 2DD6                                    i2u328_40 32FA  
                                  i2u408_40 2674                                    i2u440_40 1CC8  
                                  i2u424_41 2CDA                                    i2u280_41 2408  
                                  i2u352_41 0DCA                                    i2u344_41 0C72  
                                  i2u336_41 2DD2                                    i2u328_41 32F6  
                                  i2u408_41 2670                                    i2u440_41 1CC4  
                                  i2u425_40 2CF6                                    i2u281_40 2452  
                                  i2u353_40 0DE4                                    i2u345_40 0C8A  
                                  i2u337_40 2DF2                                    i2u329_40 3344  
                                  i2u441_40 1CF2                                    i2u425_41 2CF2  
                                  i2u281_41 244E                                    i2u353_41 0DE0  
                                  i2u345_41 0C86                                    i2u337_41 2DEE  
                                  i2u329_41 3340                                    i2u441_41 1CEE  
                                  i2u426_40 2D12                                    i2u282_40 24B6  
                                  i2u290_40 2EFC                                    i2u354_40 0DF2  
                                  i2u346_40 0C9E                                    i2u338_40 2E48  
                                  i2u442_40 1D6E                                    i2u450_40 402E  
                                  i2u530_40 406E                                    i2u426_41 2D0E  
                                  i2u282_41 24B2                                    i2u290_41 2EF8  
                                  i2u354_41 0DEE                                    i2u346_41 0C9A  
                                  i2u338_41 2E44                                    i2u442_41 1D6A  
                                  i2u450_41 402A                                    i2u530_41 406A  
                                  i2u427_40 2D3C                                    i2u291_40 2F0C  
                                  i2u355_40 0E5E                                    i2u347_40 0CB4  
                                  i2u339_40 2E5E                                    i2u451_40 4040  
                                  i2u443_40 3C56                                    i2u427_41 2D38  
                                  i2u291_41 2F08                                    i2u355_41 0E5A  
                                  i2u347_41 0CB0                                    i2u339_41 2E5A  
                                  i2u451_41 403C                                    i2u443_41 3C52  
                                  _PIR2bits 000FA1                                    i2u428_40 2D68  
                                  i2u276_40 3752                                    i2u356_40 0EBA  
                                  i2u348_40 0CC6                                    i2u444_40 3C70  
                                  i2u428_41 2D64                                    i2u276_41 374E  
                                  i2u356_41 0EB6                                    i2u348_41 0CC2  
                                  i2u444_41 3C6C                                    i2u429_40 2DAE  
                                  i2u357_40 0ED0                                    i2u349_40 0CD6  
                                  i2u445_40 3C8A                                    i2u429_41 2DAA  
                                  i2u357_41 0ECC                                    i2u349_41 0CD2  
                                  i2u445_41 3C86                                    i2u278_40 3E5E  
                                  i2u358_40 0EE0                                    i2u446_40 3F9C  
                                  i2u278_41 3E5A                                    i2u358_41 0EDC  
                                  i2u446_41 3F98                                    i2u279_40 3E76  
                                  i2u447_40 344A                                    i2u279_41 3E72  
                                  i2u447_41 3446                                    i2u296_40 28A2  
                                  i2u288_40 2ECE                                    i2u448_40 3496  
                                  i2u480_40 11BA                                    i2u528_40 4052  
                                  i2u296_41 289E                                    i2u288_41 2ECA  
                                  i2u448_41 3492                                    i2u480_41 11B6  
                                  i2u528_41 404E                                ??_isUSBReady 00DE  
                                  i2u297_40 28B6                                    i2u289_40 2EE8  
                                  i2u449_40 34E2                                    i2u481_40 11D4  
                                  i2u529_40 4060                                    i2u297_41 28B2  
                                  i2u289_41 2EE4                                    i2u449_41 34DE  
                                  i2u481_41 11D0                                    i2u529_41 405C  
                                  i2u298_40 28CE                                    i2u490_40 1294  
                                  i2u482_40 11E2                                    i2u298_41 28CA  
                                  i2u490_41 1290                                    i2u482_41 11DE  
                                  i2u299_40 2902                                    i2u491_40 12A6  
                                  i2u483_40 11F6                                    i2u299_41 28FE  
                                  i2u491_41 12A2                                    i2u483_41 11F2  
                                  i2u396_40 2186                                    i2u492_40 12B8  
                                  i2u484_40 120A                                    i2u396_41 2182  
                                  i2u492_41 12B4                                    i2u484_41 1206  
                                  i2u397_40 2194                                    i2u493_40 12C6  
                                  i2u485_40 1218                                    i2u397_41 2190  
                                  i2u493_41 12C2                                    i2u485_41 1214  
                                  i2u398_40 21AA                                    i2u494_40 12D8  
                                  i2u486_40 1232                                    i2u398_41 21A6  
                                  i2u494_41 12D4                                    i2u486_41 122E  
                                  i2u399_40 2222                                    i2u495_40 12E6  
                                  i2u487_40 1240                                    i2u479_40 11AC  
                                  i2u399_41 221E                                    i2u495_41 12E2  
                                  i2u487_41 123C                                    i2u479_41 11A8  
                                  i2u496_40 1314                                    i2u488_40 1252  
                                  i2u496_41 1310                                    i2u488_41 124E  
                                  i2u497_40 1328                                    i2u489_40 1260  
                                  i2u497_41 1324                                    i2u489_41 125C  
                                  i2u498_40 133A                                    i2u498_41 1336  
                                  i2u499_40 135A                                    i2u499_41 1356  
                             ??_putUSBUSART 00E1                            __CFG_WDTPS$32768 000000  
                                  _UEP0bits 000F70                 ??i2_USBCtrlEPAllowDataStage 002C  
                   __end_of_processUSBTasks 4074                  _USBDeferINDataStagePackets 0020  
                     i2_USBCtrlTrfRxService 22B8                 __size_of_USBCheckStdRequest 0124  
                                  _UCONbits 000F6D                        _USBConfigureEndpoint 34E8  
                      ??i2_USBCtrlEPService 0048                       i2_USBCtrlTrfTxService 2888  
          __size_of_USBStdFeatureReqHandler 0376                       ?_USBTransferOnePacket 00DE  
                      i2_USBCheckStdRequest 265C                               ?_CDCTxService 002B  
                              _RemoteWakeup 0026                                    i2_memcpy 3DFE  
                                  i2_memset 16D4                       i2USBEnableEndpoint@ep 0036  
                i2USBEnableEndpoint@options 0033                     __end_of_USBStallHandler 3C48  
                           ??_debounceDelay 00DE                                   copy_data0 3EAE  
                        __end_of_isUSBReady 3FDC            __end_ofi2_USBCtrlTrfSetupHandler 38C2  
               ??_USBCtrlEPAllowStatusStage 00DE                 __end_of_USBStdSetCfgHandler 3288  
                     __size_ofi2_USBSuspend 002E              __end_ofi2_USBCtrlTrfOutHandler 3ABC  
                   ??i2_USBStdGetDscHandler 002B                          __end_of_device_dsc 08A4  
                    ?i2_USBCtrlTrfInHandler 002B                                ??_initUSBLib 00EB  
                   ?_USBCtrlTrfSetupHandler 002B                     USBStdGetStatusHandler@p 00E0  
                                  __Hrparam 0000                                 i2_CDCInitEP 3B24  
                                 memcpy@tmp 00E4                                    __Lrparam 0000  
                    USBTransferOnePacket@ep 00E6                                    _SetupPkt 000430  
                     ?_USBConfigureEndpoint 00DE                           ??_USBDeviceAttach 00DE  
            __size_ofi2_USBStdSetCfgHandler 00E6                       ?i2_USBCheckStdRequest 002B  
             __end_ofi2_USBStdSetCfgHandler 336E                         __end_of_putUSBUSART 40FC  
                               _line_coding 00D4                              ??_CDCTxService 00E9  
                          __size_of_mainISR 3CFA                                i2_USBSuspend 40A2  
                   __size_of_USBDeviceTasks 0230                   i2_USBCtrlEPAllowDataStage 3646  
                        __end_of_initUSBLib 4134                                    __ptext10 4074  
                                  __ptext11 3BE8                                    __ptext20 319A  
                                  __ptext12 3FDC                                    __ptext21 155C  
                                  __ptext13 1B16                                    __ptext30 34E8  
                                  __ptext22 2998                                    __ptext14 336E  
                                  __ptext31 39D4                                    __ptext23 184A  
                                  __ptext15 3DAC                                    __ptext40 40A2  
                                  __ptext32 1DAE                                    __ptext24 08AA  
                                  __ptext16 37A0                                    __ptext41 3C48  
                                  __ptext33 2FBA                                    __ptext25 38C2  
                                  __ptext17 1EF2                                    __ptext50 3288  
                                  __ptext42 4010                                    __ptext34 2AA6  
                                  __ptext26 2BAE                                    __ptext18 3598  
                                  __ptext51 16D4                                    __ptext43 1C64  
                                  __ptext35 2778                                    __ptext27 3ABC  
                                  __ptext19 2538                                    __ptext60 36F4  
                                  __ptext52 2DB6                                    __ptext44 342E  
                                  __ptext28 2034                                    __ptext61 3A48  
                                  __ptext53 19B6                                    __ptext45 3DFE  
                                  __ptext37 4044                                    __ptext29 3D58  
                                  __ptext62 22B8                                    __ptext54 0C20  
                                  __ptext46 3832                                    __ptext38 119C  
                                  __ptext63 30AA                                    __ptext55 394C  
                                  __ptext47 2176                                    __ptext39 3F64  
                                  __ptext64 2CB2                                    __ptext56 2EB8  
                                  __ptext48 3646                                    __ptext65 2888  
                                  __ptext57 3B24                                    __ptext49 265C  
                                  __ptext58 23FA                                    __ptext59 3E4E  
            __end_of_USBCtrlTrfSetupHandler 3832                               __size_of_main 0056  
                         ?_USBCtrlEPService 002B                                    _sendFlap 40FC  
                        ??_USBCtrlEPService 0102                               _usbReadBuffer 0080  
                       _USBCtrlTrfInHandler 2AA6                      ?i2_USBCtrlTrfRxService 002B  
                          i2_USBDeviceTasks 119C                                    _outPipes 0001  
                      _USBCtrlTrfOutHandler 39D4                                    int$flags 0054  
                          ?_processUSBTasks 002B               __size_ofi2_USBWakeFromSuspend 0040  
              ?i2_USBCtrlEPAllowStatusStage 002B                   _USBCtrlEPAllowStatusStage 2FBA  
                         i2USBDeviceTasks@i 0049                      ?i2_USBCtrlTrfTxService 002B  
                            debounceDelay@i 00DE                              debounceDelay@j 00E0  
             __size_ofi2_USBCheckCDCRequest 0102                      ??_USBTransferOnePacket 00E2  
                      i2USBEnableEndpoint@p 0034                       __CFG_CPUDIV$OSC1_PLL2 000000  
                 _USBDeferStatusStagePacket 0023                    CDCTxService@byte_to_send 00EA  
                                _INTCONbits 000FF2                        ?_USBCtrlTrfInHandler 002B  
                                  memcpy@d1 00DE                                    memcpy@s1 00E0  
           i2USBCtrlTrfTxService@byteToSend 002B               USBCtrlTrfTxService@byteToSend 00DE  
                          ?_USBStallHandler 002B                    USBStdFeatureReqHandler@p 00F7  
                       i2_USBEnableEndpoint 3E4E                                    intlevel2 0000  
                    __size_of_USBDeviceInit 014E   __end_ofi2_USER_USB_CALLBACK_EVENT_HANDLER 39D4  
__size_ofi2_USER_USB_CALLBACK_EVENT_HANDLER 0088     __end_of_USER_USB_CALLBACK_EVENT_HANDLER 394C  
  __size_of_USER_USB_CALLBACK_EVENT_HANDLER 008A         ??i2_USER_USB_CALLBACK_EVENT_HANDLER 003D  
        ?i2_USER_USB_CALLBACK_EVENT_HANDLER 0037           ??_USER_USB_CALLBACK_EVENT_HANDLER 00F0  
          ?_USER_USB_CALLBACK_EVENT_HANDLER 00EA           i2_USER_USB_CALLBACK_EVENT_HANDLER 394C  
           _USER_USB_CALLBACK_EVENT_HANDLER 38C2                i2USBTransferOnePacket@handle 0034  
                  i2_USBCtrlTrfSetupHandler 3832                      i2USBCtrlTrfRxService@i 002B  
                i2USBTransferOnePacket@data 002C                      ??_USBConfigureEndpoint 00DF  
                     ?_USBCtrlTrfOutHandler 002B                                 _putUSBUSART 40D0  
                       _USBCtrlTrfRxService 1DAE                        ?i2_USBEnableEndpoint 0033  
        __size_ofi2_USBStdFeatureReqHandler 034C                  ??i2_USBStdGetStatusHandler 002B  
                        _USBWakeFromSuspend 3F22                  ?i2_USBStdFeatureReqHandler 002B  
                   _USBStdFeatureReqHandler 08AA                      ??i2_USBCheckStdRequest 0046  
                        _USBCheckCDCRequest 2BAE               ??i2_USBCtrlEPAllowStatusStage 002B  
                       _USBCtrlTrfTxService 2778                         ?_USBWakeFromSuspend 002B  
                     ??_USBCtrlTrfInHandler 00DF                       _USBAlternateInterface 00DB  
                       ?_USBCheckCDCRequest 002B                   i2USBTransferOnePacket@dir 002B  
                 i2USBTransferOnePacket@len 002E                i2USBConfigureEndpoint@handle 0031  
                       USBEnableEndpoint@ep 00E9                             _endpoint_number 00CB  
               i2USBConfigureEndpoint@EPNum 0030                        ?_USBCtrlTrfRxService 002B  
                        __CFG_FOSC$HSPLL_HS 000000                    ?_USBCtrlEPAllowDataStage 002B  
                      ?_USBCtrlTrfTxService 002B                _USBStatusStageTimeoutCounter 00CA  
                      ??_USBWakeFromSuspend 00F2                  USBTransferOnePacket@handle 00E7  
                      __end_of_CDCTxService 155C                        ??_USBCheckCDCRequest 00DE  
                                _USB_CD_Ptr 0807  
